

Microchip MPLAB XC8 Assembler V2.31 build 20201012212115 
                                                                                               Sat Feb 27 12:43:02 2021

Microchip MPLAB XC8 C Compiler v2.31 (Free license) build 20201012212115 Og1 
     1                           	processor	16LF1717
     2                           	pagewidth 120
     3                           	opt	flic
     4                           	psect	nvBANK1,global,class=BANK1,space=1,delta=1,noexec
     5                           	psect	nvBANK2,global,class=BANK2,space=1,delta=1,noexec
     6                           	psect	stringtext1,global,class=STRCODE,delta=2,noexec
     7                           	psect	stringtext2,global,class=STRCODE,delta=2,noexec
     8                           	psect	stringtext3,global,class=STRCODE,delta=2,noexec
     9                           	psect	stringtext4,global,class=STRCODE,delta=2,noexec
    10                           	psect	stringtext5,global,class=STRCODE,delta=2,noexec
    11                           	psect	stringtext6,global,class=STRCODE,delta=2,noexec
    12                           	psect	stringtext7,global,class=STRCODE,delta=2,noexec
    13                           	psect	stringtext8,global,class=STRCODE,delta=2,noexec
    14                           	psect	stringtext9,global,class=STRCODE,delta=2,noexec
    15                           	psect	stringtext10,global,class=STRCODE,delta=2,noexec
    16                           	psect	stringtext11,global,class=STRCODE,delta=2,noexec
    17                           	psect	stringtext12,global,class=STRCODE,delta=2,noexec
    18                           	psect	stringtext13,global,class=STRCODE,delta=2,noexec
    19                           	psect	stringtext14,global,class=STRCODE,delta=2,noexec
    20                           	psect	stringtext15,global,class=STRCODE,delta=2,noexec
    21                           	psect	stringtext16,global,class=STRCODE,delta=2,noexec
    22                           	psect	stringtext17,global,class=STRCODE,delta=2,noexec
    23                           	psect	stringtext18,global,class=STRCODE,delta=2,noexec
    24                           	psect	cinit,global,class=CODE,merge=1,delta=2
    25                           	psect	bssBANK0,global,class=BANK0,space=1,delta=1,noexec
    26                           	psect	bssBANK1,global,class=BANK1,space=1,delta=1,noexec
    27                           	psect	bssBANK3,global,class=BANK3,space=1,delta=1,noexec
    28                           	psect	clrtext,global,class=CODE,delta=2
    29                           	psect	cstackBANK2,global,class=BANK2,space=1,delta=1,noexec
    30                           	psect	cstackBANK1,global,class=BANK1,space=1,delta=1,noexec
    31                           	psect	cstackCOMMON,global,class=COMMON,space=1,delta=1,noexec
    32                           	psect	cstackBANK0,global,class=BANK0,space=1,delta=1,noexec
    33                           	psect	maintext,global,class=CODE,merge=1,split=1,delta=2
    34                           	psect	text1,local,class=CODE,merge=1,delta=2
    35                           	psect	text2,local,class=CODE,merge=1,delta=2
    36                           	psect	text3,local,class=CODE,merge=1,delta=2
    37                           	psect	text4,local,class=CODE,merge=1,delta=2
    38                           	psect	text5,local,class=CODE,merge=1,delta=2
    39                           	psect	text6,local,class=CODE,merge=1,delta=2
    40                           	psect	text7,local,class=CODE,merge=1,delta=2
    41                           	psect	text8,local,class=CODE,merge=1,delta=2
    42                           	psect	text9,local,class=CODE,merge=1,delta=2,group=3
    43                           	psect	text10,local,class=CODE,merge=1,delta=2,group=1
    44                           	psect	text11,local,class=CODE,merge=1,delta=2,group=1
    45                           	psect	text12,local,class=CODE,merge=1,delta=2,group=3
    46                           	psect	text13,local,class=CODE,merge=1,delta=2,group=1
    47                           	psect	text14,local,class=CODE,merge=1,delta=2,group=3
    48                           	psect	text15,local,class=CODE,merge=1,delta=2,group=3
    49                           	psect	text16,local,class=CODE,merge=1,delta=2,group=3
    50                           	psect	text17,local,class=CODE,merge=1,delta=2,group=1
    51                           	psect	text18,local,class=CODE,merge=1,delta=2,group=3
    52                           	psect	text19,local,class=CODE,merge=1,delta=2,group=3
    53                           	psect	text20,local,class=CODE,merge=1,delta=2,group=3
    54                           	psect	text21,local,class=CODE,merge=1,delta=2
    55                           	psect	text22,local,class=CODE,merge=1,delta=2
    56                           	psect	text23,local,class=CODE,merge=1,delta=2,group=3
    57                           	psect	text24,local,class=CODE,merge=1,delta=2,group=3
    58                           	psect	text25,local,class=CODE,merge=1,delta=2,group=2
    59                           	psect	text26,local,class=CODE,merge=1,delta=2,group=2
    60                           	psect	text27,local,class=CODE,merge=1,delta=2,group=2
    61                           	psect	text28,local,class=CODE,merge=1,delta=2,group=2
    62                           	psect	text29,local,class=CODE,merge=1,delta=2,group=2
    63                           	psect	text30,local,class=CODE,merge=1,delta=2,group=2
    64                           	psect	text31,local,class=CODE,merge=1,delta=2,group=2
    65                           	psect	text32,local,class=CODE,merge=1,delta=2,group=2
    66                           	psect	text33,local,class=CODE,merge=1,delta=2,group=2
    67                           	psect	text34,local,class=CODE,merge=1,delta=2,group=2
    68                           	psect	text35,local,class=CODE,merge=1,delta=2,group=2
    69                           	psect	text36,local,class=CODE,merge=1,delta=2
    70                           	psect	text37,local,class=CODE,merge=1,delta=2
    71                           	psect	text38,local,class=CODE,merge=1,delta=2
    72                           	psect	text39,local,class=CODE,merge=1,delta=2
    73                           	psect	text40,local,class=CODE,merge=1,delta=2
    74                           	psect	text41,local,class=CODE,merge=1,delta=2
    75                           	psect	text42,local,class=CODE,merge=1,delta=2
    76                           	psect	text43,local,class=CODE,merge=1,delta=2
    77                           	psect	config,global,abs,ovrld,class=CONFIG,space=4,delta=2,noexec
    78                           	dabs	1,0x7E,2
    79  0000                     
    80                           ; Version 2.20
    81                           ; Generated 12/02/2020 GMT
    82                           ; 
    83                           ; Copyright © 2020, Microchip Technology Inc. and its subsidiaries ("Microchip")
    84                           ; All rights reserved.
    85                           ; 
    86                           ; This software is developed by Microchip Technology Inc. and its subsidiaries ("Microch
      +                          ip").
    87                           ; 
    88                           ; Redistribution and use in source and binary forms, with or without modification, are
    89                           ; permitted provided that the following conditions are met:
    90                           ; 
    91                           ;     1. Redistributions of source code must retain the above copyright notice, this lis
      +                          t of
    92                           ;        conditions and the following disclaimer.
    93                           ; 
    94                           ;     2. Redistributions in binary form must reproduce the above copyright notice, this 
      +                          list
    95                           ;        of conditions and the following disclaimer in the documentation and/or other
    96                           ;        materials provided with the distribution.
    97                           ; 
    98                           ;     3. Microchip's name may not be used to endorse or promote products derived from th
      +                          is
    99                           ;        software without specific prior written permission.
   100                           ; 
   101                           ; THIS SOFTWARE IS PROVIDED BY MICROCHIP "AS IS" AND ANY EXPRESS OR IMPLIED WARRANTIES,
   102                           ; INCLUDING, BUT NOT LIMITED TO, THE IMPLIED WARRANTIES OF MERCHANTABILITY AND FITNESS F
      +                          OR
   103                           ; PURPOSE ARE DISCLAIMED.  IN NO EVENT SHALL MICROCHIP BE LIABLE FOR ANY DIRECT, INDIREC
      +                          T,
   104                           ; INCIDENTAL, SPECIAL, EXEMPLARY, OR CONSEQUENTIAL DAMAGES (INCLUDING BUT NOT LIMITED TO
   105                           ; PROCUREMENT OF SUBSTITUTE GOODS OR SERVICES; LOSS OF USE, DATA OR PROFITS; OR BUSINESS
   106                           ; INTERRUPTION) HOWSOEVER CAUSED AND ON ANY THEORY OF LIABILITY, WHETHER IN CONTRACT, ST
      +                          RICT
   107                           ; LIABILITY, OR TORT (INCLUDING NEGLIGENCE OR OTHERWISE) ARISING IN ANY WAY OUT OF THE U
      +                          SE OF
   108                           ; THIS SOFTWARE, EVEN IF ADVISED OF THE POSSIBILITY OF SUCH DAMAGE.
   109                           ; 
   110                           ; 
   111                           ; Code-generator required, PIC16LF1717 Definitions
   112                           ; 
   113                           ; SFR Addresses
   114  0000                     	;# 
   115  0001                     	;# 
   116  0002                     	;# 
   117  0003                     	;# 
   118  0004                     	;# 
   119  0005                     	;# 
   120  0006                     	;# 
   121  0007                     	;# 
   122  0008                     	;# 
   123  0009                     	;# 
   124  000A                     	;# 
   125  000B                     	;# 
   126  000C                     	;# 
   127  000D                     	;# 
   128  000E                     	;# 
   129  000F                     	;# 
   130  0010                     	;# 
   131  0011                     	;# 
   132  0012                     	;# 
   133  0013                     	;# 
   134  0015                     	;# 
   135  0016                     	;# 
   136  0016                     	;# 
   137  0017                     	;# 
   138  0018                     	;# 
   139  0019                     	;# 
   140  001A                     	;# 
   141  001B                     	;# 
   142  001C                     	;# 
   143  008C                     	;# 
   144  008D                     	;# 
   145  008E                     	;# 
   146  008F                     	;# 
   147  0090                     	;# 
   148  0091                     	;# 
   149  0092                     	;# 
   150  0093                     	;# 
   151  0095                     	;# 
   152  0096                     	;# 
   153  0097                     	;# 
   154  0098                     	;# 
   155  0099                     	;# 
   156  009A                     	;# 
   157  009B                     	;# 
   158  009B                     	;# 
   159  009C                     	;# 
   160  009D                     	;# 
   161  009E                     	;# 
   162  009F                     	;# 
   163  010C                     	;# 
   164  010D                     	;# 
   165  010E                     	;# 
   166  010F                     	;# 
   167  0110                     	;# 
   168  0111                     	;# 
   169  0112                     	;# 
   170  0113                     	;# 
   171  0114                     	;# 
   172  0115                     	;# 
   173  0116                     	;# 
   174  0117                     	;# 
   175  0118                     	;# 
   176  0119                     	;# 
   177  011A                     	;# 
   178  011B                     	;# 
   179  011B                     	;# 
   180  011C                     	;# 
   181  018C                     	;# 
   182  018D                     	;# 
   183  018E                     	;# 
   184  018F                     	;# 
   185  0190                     	;# 
   186  0191                     	;# 
   187  0191                     	;# 
   188  0192                     	;# 
   189  0193                     	;# 
   190  0193                     	;# 
   191  0194                     	;# 
   192  0195                     	;# 
   193  0196                     	;# 
   194  0199                     	;# 
   195  0199                     	;# 
   196  0199                     	;# 
   197  019A                     	;# 
   198  019A                     	;# 
   199  019A                     	;# 
   200  019B                     	;# 
   201  019B                     	;# 
   202  019B                     	;# 
   203  019B                     	;# 
   204  019B                     	;# 
   205  019C                     	;# 
   206  019C                     	;# 
   207  019C                     	;# 
   208  019D                     	;# 
   209  019D                     	;# 
   210  019D                     	;# 
   211  019E                     	;# 
   212  019E                     	;# 
   213  019E                     	;# 
   214  019F                     	;# 
   215  019F                     	;# 
   216  019F                     	;# 
   217  019F                     	;# 
   218  019F                     	;# 
   219  020C                     	;# 
   220  020D                     	;# 
   221  020E                     	;# 
   222  020F                     	;# 
   223  0210                     	;# 
   224  0211                     	;# 
   225  0211                     	;# 
   226  0212                     	;# 
   227  0212                     	;# 
   228  0213                     	;# 
   229  0213                     	;# 
   230  0214                     	;# 
   231  0214                     	;# 
   232  0215                     	;# 
   233  0215                     	;# 
   234  0215                     	;# 
   235  0215                     	;# 
   236  0216                     	;# 
   237  0216                     	;# 
   238  0217                     	;# 
   239  0217                     	;# 
   240  028C                     	;# 
   241  028D                     	;# 
   242  028E                     	;# 
   243  028F                     	;# 
   244  0290                     	;# 
   245  0291                     	;# 
   246  0291                     	;# 
   247  0292                     	;# 
   248  0293                     	;# 
   249  0293                     	;# 
   250  0298                     	;# 
   251  0298                     	;# 
   252  0299                     	;# 
   253  029A                     	;# 
   254  029A                     	;# 
   255  029E                     	;# 
   256  030C                     	;# 
   257  030D                     	;# 
   258  030E                     	;# 
   259  030F                     	;# 
   260  0310                     	;# 
   261  038C                     	;# 
   262  038D                     	;# 
   263  038E                     	;# 
   264  038F                     	;# 
   265  0390                     	;# 
   266  0391                     	;# 
   267  0392                     	;# 
   268  0393                     	;# 
   269  0394                     	;# 
   270  0395                     	;# 
   271  0396                     	;# 
   272  0397                     	;# 
   273  0398                     	;# 
   274  0399                     	;# 
   275  039D                     	;# 
   276  039E                     	;# 
   277  039F                     	;# 
   278  0415                     	;# 
   279  0416                     	;# 
   280  0417                     	;# 
   281  041C                     	;# 
   282  041D                     	;# 
   283  041E                     	;# 
   284  0498                     	;# 
   285  0498                     	;# 
   286  0499                     	;# 
   287  049A                     	;# 
   288  049B                     	;# 
   289  049B                     	;# 
   290  049C                     	;# 
   291  049D                     	;# 
   292  049E                     	;# 
   293  049F                     	;# 
   294  0511                     	;# 
   295  0515                     	;# 
   296  0617                     	;# 
   297  0618                     	;# 
   298  0619                     	;# 
   299  0619                     	;# 
   300  061A                     	;# 
   301  061B                     	;# 
   302  061C                     	;# 
   303  061C                     	;# 
   304  0691                     	;# 
   305  0692                     	;# 
   306  0693                     	;# 
   307  0694                     	;# 
   308  0695                     	;# 
   309  0696                     	;# 
   310  0697                     	;# 
   311  0698                     	;# 
   312  0699                     	;# 
   313  069A                     	;# 
   314  069B                     	;# 
   315  069C                     	;# 
   316  069D                     	;# 
   317  069E                     	;# 
   318  069F                     	;# 
   319  0E0F                     	;# 
   320  0E10                     	;# 
   321  0E11                     	;# 
   322  0E12                     	;# 
   323  0E13                     	;# 
   324  0E14                     	;# 
   325  0E15                     	;# 
   326  0E17                     	;# 
   327  0E20                     	;# 
   328  0E21                     	;# 
   329  0E22                     	;# 
   330  0E24                     	;# 
   331  0E25                     	;# 
   332  0E28                     	;# 
   333  0E29                     	;# 
   334  0E2A                     	;# 
   335  0E2B                     	;# 
   336  0E90                     	;# 
   337  0E91                     	;# 
   338  0E92                     	;# 
   339  0E93                     	;# 
   340  0E94                     	;# 
   341  0E95                     	;# 
   342  0E96                     	;# 
   343  0E97                     	;# 
   344  0E98                     	;# 
   345  0E99                     	;# 
   346  0E9A                     	;# 
   347  0E9B                     	;# 
   348  0E9C                     	;# 
   349  0E9D                     	;# 
   350  0E9E                     	;# 
   351  0E9F                     	;# 
   352  0EA0                     	;# 
   353  0EA1                     	;# 
   354  0EA2                     	;# 
   355  0EA3                     	;# 
   356  0EA4                     	;# 
   357  0EA5                     	;# 
   358  0EA6                     	;# 
   359  0EA7                     	;# 
   360  0EA8                     	;# 
   361  0EA9                     	;# 
   362  0EAA                     	;# 
   363  0EAB                     	;# 
   364  0EAC                     	;# 
   365  0EAD                     	;# 
   366  0EAE                     	;# 
   367  0EAF                     	;# 
   368  0EB0                     	;# 
   369  0EB1                     	;# 
   370  0EB2                     	;# 
   371  0F0F                     	;# 
   372  0F10                     	;# 
   373  0F11                     	;# 
   374  0F12                     	;# 
   375  0F13                     	;# 
   376  0F14                     	;# 
   377  0F15                     	;# 
   378  0F16                     	;# 
   379  0F17                     	;# 
   380  0F18                     	;# 
   381  0F19                     	;# 
   382  0F1A                     	;# 
   383  0F1B                     	;# 
   384  0F1C                     	;# 
   385  0F1D                     	;# 
   386  0F1E                     	;# 
   387  0F1F                     	;# 
   388  0F20                     	;# 
   389  0F21                     	;# 
   390  0F22                     	;# 
   391  0F23                     	;# 
   392  0F24                     	;# 
   393  0F25                     	;# 
   394  0F26                     	;# 
   395  0F27                     	;# 
   396  0F28                     	;# 
   397  0F29                     	;# 
   398  0F2A                     	;# 
   399  0F2B                     	;# 
   400  0F2C                     	;# 
   401  0F2D                     	;# 
   402  0F2E                     	;# 
   403  0F2F                     	;# 
   404  0F30                     	;# 
   405  0F31                     	;# 
   406  0F32                     	;# 
   407  0F33                     	;# 
   408  0F34                     	;# 
   409  0F35                     	;# 
   410  0F36                     	;# 
   411  0F37                     	;# 
   412  0FE4                     	;# 
   413  0FE5                     	;# 
   414  0FE6                     	;# 
   415  0FE7                     	;# 
   416  0FE8                     	;# 
   417  0FE9                     	;# 
   418  0FEA                     	;# 
   419  0FEB                     	;# 
   420  0FED                     	;# 
   421  0FEE                     	;# 
   422  0FEF                     	;# 
   423  0000                     	;# 
   424  0001                     	;# 
   425  0002                     	;# 
   426  0003                     	;# 
   427  0004                     	;# 
   428  0005                     	;# 
   429  0006                     	;# 
   430  0007                     	;# 
   431  0008                     	;# 
   432  0009                     	;# 
   433  000A                     	;# 
   434  000B                     	;# 
   435  000C                     	;# 
   436  000D                     	;# 
   437  000E                     	;# 
   438  000F                     	;# 
   439  0010                     	;# 
   440  0011                     	;# 
   441  0012                     	;# 
   442  0013                     	;# 
   443  0015                     	;# 
   444  0016                     	;# 
   445  0016                     	;# 
   446  0017                     	;# 
   447  0018                     	;# 
   448  0019                     	;# 
   449  001A                     	;# 
   450  001B                     	;# 
   451  001C                     	;# 
   452  008C                     	;# 
   453  008D                     	;# 
   454  008E                     	;# 
   455  008F                     	;# 
   456  0090                     	;# 
   457  0091                     	;# 
   458  0092                     	;# 
   459  0093                     	;# 
   460  0095                     	;# 
   461  0096                     	;# 
   462  0097                     	;# 
   463  0098                     	;# 
   464  0099                     	;# 
   465  009A                     	;# 
   466  009B                     	;# 
   467  009B                     	;# 
   468  009C                     	;# 
   469  009D                     	;# 
   470  009E                     	;# 
   471  009F                     	;# 
   472  010C                     	;# 
   473  010D                     	;# 
   474  010E                     	;# 
   475  010F                     	;# 
   476  0110                     	;# 
   477  0111                     	;# 
   478  0112                     	;# 
   479  0113                     	;# 
   480  0114                     	;# 
   481  0115                     	;# 
   482  0116                     	;# 
   483  0117                     	;# 
   484  0118                     	;# 
   485  0119                     	;# 
   486  011A                     	;# 
   487  011B                     	;# 
   488  011B                     	;# 
   489  011C                     	;# 
   490  018C                     	;# 
   491  018D                     	;# 
   492  018E                     	;# 
   493  018F                     	;# 
   494  0190                     	;# 
   495  0191                     	;# 
   496  0191                     	;# 
   497  0192                     	;# 
   498  0193                     	;# 
   499  0193                     	;# 
   500  0194                     	;# 
   501  0195                     	;# 
   502  0196                     	;# 
   503  0199                     	;# 
   504  0199                     	;# 
   505  0199                     	;# 
   506  019A                     	;# 
   507  019A                     	;# 
   508  019A                     	;# 
   509  019B                     	;# 
   510  019B                     	;# 
   511  019B                     	;# 
   512  019B                     	;# 
   513  019B                     	;# 
   514  019C                     	;# 
   515  019C                     	;# 
   516  019C                     	;# 
   517  019D                     	;# 
   518  019D                     	;# 
   519  019D                     	;# 
   520  019E                     	;# 
   521  019E                     	;# 
   522  019E                     	;# 
   523  019F                     	;# 
   524  019F                     	;# 
   525  019F                     	;# 
   526  019F                     	;# 
   527  019F                     	;# 
   528  020C                     	;# 
   529  020D                     	;# 
   530  020E                     	;# 
   531  020F                     	;# 
   532  0210                     	;# 
   533  0211                     	;# 
   534  0211                     	;# 
   535  0212                     	;# 
   536  0212                     	;# 
   537  0213                     	;# 
   538  0213                     	;# 
   539  0214                     	;# 
   540  0214                     	;# 
   541  0215                     	;# 
   542  0215                     	;# 
   543  0215                     	;# 
   544  0215                     	;# 
   545  0216                     	;# 
   546  0216                     	;# 
   547  0217                     	;# 
   548  0217                     	;# 
   549  028C                     	;# 
   550  028D                     	;# 
   551  028E                     	;# 
   552  028F                     	;# 
   553  0290                     	;# 
   554  0291                     	;# 
   555  0291                     	;# 
   556  0292                     	;# 
   557  0293                     	;# 
   558  0293                     	;# 
   559  0298                     	;# 
   560  0298                     	;# 
   561  0299                     	;# 
   562  029A                     	;# 
   563  029A                     	;# 
   564  029E                     	;# 
   565  030C                     	;# 
   566  030D                     	;# 
   567  030E                     	;# 
   568  030F                     	;# 
   569  0310                     	;# 
   570  038C                     	;# 
   571  038D                     	;# 
   572  038E                     	;# 
   573  038F                     	;# 
   574  0390                     	;# 
   575  0391                     	;# 
   576  0392                     	;# 
   577  0393                     	;# 
   578  0394                     	;# 
   579  0395                     	;# 
   580  0396                     	;# 
   581  0397                     	;# 
   582  0398                     	;# 
   583  0399                     	;# 
   584  039D                     	;# 
   585  039E                     	;# 
   586  039F                     	;# 
   587  0415                     	;# 
   588  0416                     	;# 
   589  0417                     	;# 
   590  041C                     	;# 
   591  041D                     	;# 
   592  041E                     	;# 
   593  0498                     	;# 
   594  0498                     	;# 
   595  0499                     	;# 
   596  049A                     	;# 
   597  049B                     	;# 
   598  049B                     	;# 
   599  049C                     	;# 
   600  049D                     	;# 
   601  049E                     	;# 
   602  049F                     	;# 
   603  0511                     	;# 
   604  0515                     	;# 
   605  0617                     	;# 
   606  0618                     	;# 
   607  0619                     	;# 
   608  0619                     	;# 
   609  061A                     	;# 
   610  061B                     	;# 
   611  061C                     	;# 
   612  061C                     	;# 
   613  0691                     	;# 
   614  0692                     	;# 
   615  0693                     	;# 
   616  0694                     	;# 
   617  0695                     	;# 
   618  0696                     	;# 
   619  0697                     	;# 
   620  0698                     	;# 
   621  0699                     	;# 
   622  069A                     	;# 
   623  069B                     	;# 
   624  069C                     	;# 
   625  069D                     	;# 
   626  069E                     	;# 
   627  069F                     	;# 
   628  0E0F                     	;# 
   629  0E10                     	;# 
   630  0E11                     	;# 
   631  0E12                     	;# 
   632  0E13                     	;# 
   633  0E14                     	;# 
   634  0E15                     	;# 
   635  0E17                     	;# 
   636  0E20                     	;# 
   637  0E21                     	;# 
   638  0E22                     	;# 
   639  0E24                     	;# 
   640  0E25                     	;# 
   641  0E28                     	;# 
   642  0E29                     	;# 
   643  0E2A                     	;# 
   644  0E2B                     	;# 
   645  0E90                     	;# 
   646  0E91                     	;# 
   647  0E92                     	;# 
   648  0E93                     	;# 
   649  0E94                     	;# 
   650  0E95                     	;# 
   651  0E96                     	;# 
   652  0E97                     	;# 
   653  0E98                     	;# 
   654  0E99                     	;# 
   655  0E9A                     	;# 
   656  0E9B                     	;# 
   657  0E9C                     	;# 
   658  0E9D                     	;# 
   659  0E9E                     	;# 
   660  0E9F                     	;# 
   661  0EA0                     	;# 
   662  0EA1                     	;# 
   663  0EA2                     	;# 
   664  0EA3                     	;# 
   665  0EA4                     	;# 
   666  0EA5                     	;# 
   667  0EA6                     	;# 
   668  0EA7                     	;# 
   669  0EA8                     	;# 
   670  0EA9                     	;# 
   671  0EAA                     	;# 
   672  0EAB                     	;# 
   673  0EAC                     	;# 
   674  0EAD                     	;# 
   675  0EAE                     	;# 
   676  0EAF                     	;# 
   677  0EB0                     	;# 
   678  0EB1                     	;# 
   679  0EB2                     	;# 
   680  0F0F                     	;# 
   681  0F10                     	;# 
   682  0F11                     	;# 
   683  0F12                     	;# 
   684  0F13                     	;# 
   685  0F14                     	;# 
   686  0F15                     	;# 
   687  0F16                     	;# 
   688  0F17                     	;# 
   689  0F18                     	;# 
   690  0F19                     	;# 
   691  0F1A                     	;# 
   692  0F1B                     	;# 
   693  0F1C                     	;# 
   694  0F1D                     	;# 
   695  0F1E                     	;# 
   696  0F1F                     	;# 
   697  0F20                     	;# 
   698  0F21                     	;# 
   699  0F22                     	;# 
   700  0F23                     	;# 
   701  0F24                     	;# 
   702  0F25                     	;# 
   703  0F26                     	;# 
   704  0F27                     	;# 
   705  0F28                     	;# 
   706  0F29                     	;# 
   707  0F2A                     	;# 
   708  0F2B                     	;# 
   709  0F2C                     	;# 
   710  0F2D                     	;# 
   711  0F2E                     	;# 
   712  0F2F                     	;# 
   713  0F30                     	;# 
   714  0F31                     	;# 
   715  0F32                     	;# 
   716  0F33                     	;# 
   717  0F34                     	;# 
   718  0F35                     	;# 
   719  0F36                     	;# 
   720  0F37                     	;# 
   721  0FE4                     	;# 
   722  0FE5                     	;# 
   723  0FE6                     	;# 
   724  0FE7                     	;# 
   725  0FE8                     	;# 
   726  0FE9                     	;# 
   727  0FEA                     	;# 
   728  0FEB                     	;# 
   729  0FED                     	;# 
   730  0FEE                     	;# 
   731  0FEF                     	;# 
   732  0000                     	;# 
   733  0001                     	;# 
   734  0002                     	;# 
   735  0003                     	;# 
   736  0004                     	;# 
   737  0005                     	;# 
   738  0006                     	;# 
   739  0007                     	;# 
   740  0008                     	;# 
   741  0009                     	;# 
   742  000A                     	;# 
   743  000B                     	;# 
   744  000C                     	;# 
   745  000D                     	;# 
   746  000E                     	;# 
   747  000F                     	;# 
   748  0010                     	;# 
   749  0011                     	;# 
   750  0012                     	;# 
   751  0013                     	;# 
   752  0015                     	;# 
   753  0016                     	;# 
   754  0016                     	;# 
   755  0017                     	;# 
   756  0018                     	;# 
   757  0019                     	;# 
   758  001A                     	;# 
   759  001B                     	;# 
   760  001C                     	;# 
   761  008C                     	;# 
   762  008D                     	;# 
   763  008E                     	;# 
   764  008F                     	;# 
   765  0090                     	;# 
   766  0091                     	;# 
   767  0092                     	;# 
   768  0093                     	;# 
   769  0095                     	;# 
   770  0096                     	;# 
   771  0097                     	;# 
   772  0098                     	;# 
   773  0099                     	;# 
   774  009A                     	;# 
   775  009B                     	;# 
   776  009B                     	;# 
   777  009C                     	;# 
   778  009D                     	;# 
   779  009E                     	;# 
   780  009F                     	;# 
   781  010C                     	;# 
   782  010D                     	;# 
   783  010E                     	;# 
   784  010F                     	;# 
   785  0110                     	;# 
   786  0111                     	;# 
   787  0112                     	;# 
   788  0113                     	;# 
   789  0114                     	;# 
   790  0115                     	;# 
   791  0116                     	;# 
   792  0117                     	;# 
   793  0118                     	;# 
   794  0119                     	;# 
   795  011A                     	;# 
   796  011B                     	;# 
   797  011B                     	;# 
   798  011C                     	;# 
   799  018C                     	;# 
   800  018D                     	;# 
   801  018E                     	;# 
   802  018F                     	;# 
   803  0190                     	;# 
   804  0191                     	;# 
   805  0191                     	;# 
   806  0192                     	;# 
   807  0193                     	;# 
   808  0193                     	;# 
   809  0194                     	;# 
   810  0195                     	;# 
   811  0196                     	;# 
   812  0199                     	;# 
   813  0199                     	;# 
   814  0199                     	;# 
   815  019A                     	;# 
   816  019A                     	;# 
   817  019A                     	;# 
   818  019B                     	;# 
   819  019B                     	;# 
   820  019B                     	;# 
   821  019B                     	;# 
   822  019B                     	;# 
   823  019C                     	;# 
   824  019C                     	;# 
   825  019C                     	;# 
   826  019D                     	;# 
   827  019D                     	;# 
   828  019D                     	;# 
   829  019E                     	;# 
   830  019E                     	;# 
   831  019E                     	;# 
   832  019F                     	;# 
   833  019F                     	;# 
   834  019F                     	;# 
   835  019F                     	;# 
   836  019F                     	;# 
   837  020C                     	;# 
   838  020D                     	;# 
   839  020E                     	;# 
   840  020F                     	;# 
   841  0210                     	;# 
   842  0211                     	;# 
   843  0211                     	;# 
   844  0212                     	;# 
   845  0212                     	;# 
   846  0213                     	;# 
   847  0213                     	;# 
   848  0214                     	;# 
   849  0214                     	;# 
   850  0215                     	;# 
   851  0215                     	;# 
   852  0215                     	;# 
   853  0215                     	;# 
   854  0216                     	;# 
   855  0216                     	;# 
   856  0217                     	;# 
   857  0217                     	;# 
   858  028C                     	;# 
   859  028D                     	;# 
   860  028E                     	;# 
   861  028F                     	;# 
   862  0290                     	;# 
   863  0291                     	;# 
   864  0291                     	;# 
   865  0292                     	;# 
   866  0293                     	;# 
   867  0293                     	;# 
   868  0298                     	;# 
   869  0298                     	;# 
   870  0299                     	;# 
   871  029A                     	;# 
   872  029A                     	;# 
   873  029E                     	;# 
   874  030C                     	;# 
   875  030D                     	;# 
   876  030E                     	;# 
   877  030F                     	;# 
   878  0310                     	;# 
   879  038C                     	;# 
   880  038D                     	;# 
   881  038E                     	;# 
   882  038F                     	;# 
   883  0390                     	;# 
   884  0391                     	;# 
   885  0392                     	;# 
   886  0393                     	;# 
   887  0394                     	;# 
   888  0395                     	;# 
   889  0396                     	;# 
   890  0397                     	;# 
   891  0398                     	;# 
   892  0399                     	;# 
   893  039D                     	;# 
   894  039E                     	;# 
   895  039F                     	;# 
   896  0415                     	;# 
   897  0416                     	;# 
   898  0417                     	;# 
   899  041C                     	;# 
   900  041D                     	;# 
   901  041E                     	;# 
   902  0498                     	;# 
   903  0498                     	;# 
   904  0499                     	;# 
   905  049A                     	;# 
   906  049B                     	;# 
   907  049B                     	;# 
   908  049C                     	;# 
   909  049D                     	;# 
   910  049E                     	;# 
   911  049F                     	;# 
   912  0511                     	;# 
   913  0515                     	;# 
   914  0617                     	;# 
   915  0618                     	;# 
   916  0619                     	;# 
   917  0619                     	;# 
   918  061A                     	;# 
   919  061B                     	;# 
   920  061C                     	;# 
   921  061C                     	;# 
   922  0691                     	;# 
   923  0692                     	;# 
   924  0693                     	;# 
   925  0694                     	;# 
   926  0695                     	;# 
   927  0696                     	;# 
   928  0697                     	;# 
   929  0698                     	;# 
   930  0699                     	;# 
   931  069A                     	;# 
   932  069B                     	;# 
   933  069C                     	;# 
   934  069D                     	;# 
   935  069E                     	;# 
   936  069F                     	;# 
   937  0E0F                     	;# 
   938  0E10                     	;# 
   939  0E11                     	;# 
   940  0E12                     	;# 
   941  0E13                     	;# 
   942  0E14                     	;# 
   943  0E15                     	;# 
   944  0E17                     	;# 
   945  0E20                     	;# 
   946  0E21                     	;# 
   947  0E22                     	;# 
   948  0E24                     	;# 
   949  0E25                     	;# 
   950  0E28                     	;# 
   951  0E29                     	;# 
   952  0E2A                     	;# 
   953  0E2B                     	;# 
   954  0E90                     	;# 
   955  0E91                     	;# 
   956  0E92                     	;# 
   957  0E93                     	;# 
   958  0E94                     	;# 
   959  0E95                     	;# 
   960  0E96                     	;# 
   961  0E97                     	;# 
   962  0E98                     	;# 
   963  0E99                     	;# 
   964  0E9A                     	;# 
   965  0E9B                     	;# 
   966  0E9C                     	;# 
   967  0E9D                     	;# 
   968  0E9E                     	;# 
   969  0E9F                     	;# 
   970  0EA0                     	;# 
   971  0EA1                     	;# 
   972  0EA2                     	;# 
   973  0EA3                     	;# 
   974  0EA4                     	;# 
   975  0EA5                     	;# 
   976  0EA6                     	;# 
   977  0EA7                     	;# 
   978  0EA8                     	;# 
   979  0EA9                     	;# 
   980  0EAA                     	;# 
   981  0EAB                     	;# 
   982  0EAC                     	;# 
   983  0EAD                     	;# 
   984  0EAE                     	;# 
   985  0EAF                     	;# 
   986  0EB0                     	;# 
   987  0EB1                     	;# 
   988  0EB2                     	;# 
   989  0F0F                     	;# 
   990  0F10                     	;# 
   991  0F11                     	;# 
   992  0F12                     	;# 
   993  0F13                     	;# 
   994  0F14                     	;# 
   995  0F15                     	;# 
   996  0F16                     	;# 
   997  0F17                     	;# 
   998  0F18                     	;# 
   999  0F19                     	;# 
  1000  0F1A                     	;# 
  1001  0F1B                     	;# 
  1002  0F1C                     	;# 
  1003  0F1D                     	;# 
  1004  0F1E                     	;# 
  1005  0F1F                     	;# 
  1006  0F20                     	;# 
  1007  0F21                     	;# 
  1008  0F22                     	;# 
  1009  0F23                     	;# 
  1010  0F24                     	;# 
  1011  0F25                     	;# 
  1012  0F26                     	;# 
  1013  0F27                     	;# 
  1014  0F28                     	;# 
  1015  0F29                     	;# 
  1016  0F2A                     	;# 
  1017  0F2B                     	;# 
  1018  0F2C                     	;# 
  1019  0F2D                     	;# 
  1020  0F2E                     	;# 
  1021  0F2F                     	;# 
  1022  0F30                     	;# 
  1023  0F31                     	;# 
  1024  0F32                     	;# 
  1025  0F33                     	;# 
  1026  0F34                     	;# 
  1027  0F35                     	;# 
  1028  0F36                     	;# 
  1029  0F37                     	;# 
  1030  0FE4                     	;# 
  1031  0FE5                     	;# 
  1032  0FE6                     	;# 
  1033  0FE7                     	;# 
  1034  0FE8                     	;# 
  1035  0FE9                     	;# 
  1036  0FEA                     	;# 
  1037  0FEB                     	;# 
  1038  0FED                     	;# 
  1039  0FEE                     	;# 
  1040  0FEF                     	;# 
  1041  0000                     	;# 
  1042  0001                     	;# 
  1043  0002                     	;# 
  1044  0003                     	;# 
  1045  0004                     	;# 
  1046  0005                     	;# 
  1047  0006                     	;# 
  1048  0007                     	;# 
  1049  0008                     	;# 
  1050  0009                     	;# 
  1051  000A                     	;# 
  1052  000B                     	;# 
  1053  000C                     	;# 
  1054  000D                     	;# 
  1055  000E                     	;# 
  1056  000F                     	;# 
  1057  0010                     	;# 
  1058  0011                     	;# 
  1059  0012                     	;# 
  1060  0013                     	;# 
  1061  0015                     	;# 
  1062  0016                     	;# 
  1063  0016                     	;# 
  1064  0017                     	;# 
  1065  0018                     	;# 
  1066  0019                     	;# 
  1067  001A                     	;# 
  1068  001B                     	;# 
  1069  001C                     	;# 
  1070  008C                     	;# 
  1071  008D                     	;# 
  1072  008E                     	;# 
  1073  008F                     	;# 
  1074  0090                     	;# 
  1075  0091                     	;# 
  1076  0092                     	;# 
  1077  0093                     	;# 
  1078  0095                     	;# 
  1079  0096                     	;# 
  1080  0097                     	;# 
  1081  0098                     	;# 
  1082  0099                     	;# 
  1083  009A                     	;# 
  1084  009B                     	;# 
  1085  009B                     	;# 
  1086  009C                     	;# 
  1087  009D                     	;# 
  1088  009E                     	;# 
  1089  009F                     	;# 
  1090  010C                     	;# 
  1091  010D                     	;# 
  1092  010E                     	;# 
  1093  010F                     	;# 
  1094  0110                     	;# 
  1095  0111                     	;# 
  1096  0112                     	;# 
  1097  0113                     	;# 
  1098  0114                     	;# 
  1099  0115                     	;# 
  1100  0116                     	;# 
  1101  0117                     	;# 
  1102  0118                     	;# 
  1103  0119                     	;# 
  1104  011A                     	;# 
  1105  011B                     	;# 
  1106  011B                     	;# 
  1107  011C                     	;# 
  1108  018C                     	;# 
  1109  018D                     	;# 
  1110  018E                     	;# 
  1111  018F                     	;# 
  1112  0190                     	;# 
  1113  0191                     	;# 
  1114  0191                     	;# 
  1115  0192                     	;# 
  1116  0193                     	;# 
  1117  0193                     	;# 
  1118  0194                     	;# 
  1119  0195                     	;# 
  1120  0196                     	;# 
  1121  0199                     	;# 
  1122  0199                     	;# 
  1123  0199                     	;# 
  1124  019A                     	;# 
  1125  019A                     	;# 
  1126  019A                     	;# 
  1127  019B                     	;# 
  1128  019B                     	;# 
  1129  019B                     	;# 
  1130  019B                     	;# 
  1131  019B                     	;# 
  1132  019C                     	;# 
  1133  019C                     	;# 
  1134  019C                     	;# 
  1135  019D                     	;# 
  1136  019D                     	;# 
  1137  019D                     	;# 
  1138  019E                     	;# 
  1139  019E                     	;# 
  1140  019E                     	;# 
  1141  019F                     	;# 
  1142  019F                     	;# 
  1143  019F                     	;# 
  1144  019F                     	;# 
  1145  019F                     	;# 
  1146  020C                     	;# 
  1147  020D                     	;# 
  1148  020E                     	;# 
  1149  020F                     	;# 
  1150  0210                     	;# 
  1151  0211                     	;# 
  1152  0211                     	;# 
  1153  0212                     	;# 
  1154  0212                     	;# 
  1155  0213                     	;# 
  1156  0213                     	;# 
  1157  0214                     	;# 
  1158  0214                     	;# 
  1159  0215                     	;# 
  1160  0215                     	;# 
  1161  0215                     	;# 
  1162  0215                     	;# 
  1163  0216                     	;# 
  1164  0216                     	;# 
  1165  0217                     	;# 
  1166  0217                     	;# 
  1167  028C                     	;# 
  1168  028D                     	;# 
  1169  028E                     	;# 
  1170  028F                     	;# 
  1171  0290                     	;# 
  1172  0291                     	;# 
  1173  0291                     	;# 
  1174  0292                     	;# 
  1175  0293                     	;# 
  1176  0293                     	;# 
  1177  0298                     	;# 
  1178  0298                     	;# 
  1179  0299                     	;# 
  1180  029A                     	;# 
  1181  029A                     	;# 
  1182  029E                     	;# 
  1183  030C                     	;# 
  1184  030D                     	;# 
  1185  030E                     	;# 
  1186  030F                     	;# 
  1187  0310                     	;# 
  1188  038C                     	;# 
  1189  038D                     	;# 
  1190  038E                     	;# 
  1191  038F                     	;# 
  1192  0390                     	;# 
  1193  0391                     	;# 
  1194  0392                     	;# 
  1195  0393                     	;# 
  1196  0394                     	;# 
  1197  0395                     	;# 
  1198  0396                     	;# 
  1199  0397                     	;# 
  1200  0398                     	;# 
  1201  0399                     	;# 
  1202  039D                     	;# 
  1203  039E                     	;# 
  1204  039F                     	;# 
  1205  0415                     	;# 
  1206  0416                     	;# 
  1207  0417                     	;# 
  1208  041C                     	;# 
  1209  041D                     	;# 
  1210  041E                     	;# 
  1211  0498                     	;# 
  1212  0498                     	;# 
  1213  0499                     	;# 
  1214  049A                     	;# 
  1215  049B                     	;# 
  1216  049B                     	;# 
  1217  049C                     	;# 
  1218  049D                     	;# 
  1219  049E                     	;# 
  1220  049F                     	;# 
  1221  0511                     	;# 
  1222  0515                     	;# 
  1223  0617                     	;# 
  1224  0618                     	;# 
  1225  0619                     	;# 
  1226  0619                     	;# 
  1227  061A                     	;# 
  1228  061B                     	;# 
  1229  061C                     	;# 
  1230  061C                     	;# 
  1231  0691                     	;# 
  1232  0692                     	;# 
  1233  0693                     	;# 
  1234  0694                     	;# 
  1235  0695                     	;# 
  1236  0696                     	;# 
  1237  0697                     	;# 
  1238  0698                     	;# 
  1239  0699                     	;# 
  1240  069A                     	;# 
  1241  069B                     	;# 
  1242  069C                     	;# 
  1243  069D                     	;# 
  1244  069E                     	;# 
  1245  069F                     	;# 
  1246  0E0F                     	;# 
  1247  0E10                     	;# 
  1248  0E11                     	;# 
  1249  0E12                     	;# 
  1250  0E13                     	;# 
  1251  0E14                     	;# 
  1252  0E15                     	;# 
  1253  0E17                     	;# 
  1254  0E20                     	;# 
  1255  0E21                     	;# 
  1256  0E22                     	;# 
  1257  0E24                     	;# 
  1258  0E25                     	;# 
  1259  0E28                     	;# 
  1260  0E29                     	;# 
  1261  0E2A                     	;# 
  1262  0E2B                     	;# 
  1263  0E90                     	;# 
  1264  0E91                     	;# 
  1265  0E92                     	;# 
  1266  0E93                     	;# 
  1267  0E94                     	;# 
  1268  0E95                     	;# 
  1269  0E96                     	;# 
  1270  0E97                     	;# 
  1271  0E98                     	;# 
  1272  0E99                     	;# 
  1273  0E9A                     	;# 
  1274  0E9B                     	;# 
  1275  0E9C                     	;# 
  1276  0E9D                     	;# 
  1277  0E9E                     	;# 
  1278  0E9F                     	;# 
  1279  0EA0                     	;# 
  1280  0EA1                     	;# 
  1281  0EA2                     	;# 
  1282  0EA3                     	;# 
  1283  0EA4                     	;# 
  1284  0EA5                     	;# 
  1285  0EA6                     	;# 
  1286  0EA7                     	;# 
  1287  0EA8                     	;# 
  1288  0EA9                     	;# 
  1289  0EAA                     	;# 
  1290  0EAB                     	;# 
  1291  0EAC                     	;# 
  1292  0EAD                     	;# 
  1293  0EAE                     	;# 
  1294  0EAF                     	;# 
  1295  0EB0                     	;# 
  1296  0EB1                     	;# 
  1297  0EB2                     	;# 
  1298  0F0F                     	;# 
  1299  0F10                     	;# 
  1300  0F11                     	;# 
  1301  0F12                     	;# 
  1302  0F13                     	;# 
  1303  0F14                     	;# 
  1304  0F15                     	;# 
  1305  0F16                     	;# 
  1306  0F17                     	;# 
  1307  0F18                     	;# 
  1308  0F19                     	;# 
  1309  0F1A                     	;# 
  1310  0F1B                     	;# 
  1311  0F1C                     	;# 
  1312  0F1D                     	;# 
  1313  0F1E                     	;# 
  1314  0F1F                     	;# 
  1315  0F20                     	;# 
  1316  0F21                     	;# 
  1317  0F22                     	;# 
  1318  0F23                     	;# 
  1319  0F24                     	;# 
  1320  0F25                     	;# 
  1321  0F26                     	;# 
  1322  0F27                     	;# 
  1323  0F28                     	;# 
  1324  0F29                     	;# 
  1325  0F2A                     	;# 
  1326  0F2B                     	;# 
  1327  0F2C                     	;# 
  1328  0F2D                     	;# 
  1329  0F2E                     	;# 
  1330  0F2F                     	;# 
  1331  0F30                     	;# 
  1332  0F31                     	;# 
  1333  0F32                     	;# 
  1334  0F33                     	;# 
  1335  0F34                     	;# 
  1336  0F35                     	;# 
  1337  0F36                     	;# 
  1338  0F37                     	;# 
  1339  0FE4                     	;# 
  1340  0FE5                     	;# 
  1341  0FE6                     	;# 
  1342  0FE7                     	;# 
  1343  0FE8                     	;# 
  1344  0FE9                     	;# 
  1345  0FEA                     	;# 
  1346  0FEB                     	;# 
  1347  0FED                     	;# 
  1348  0FEE                     	;# 
  1349  0FEF                     	;# 
  1350                           
  1351 ;; Function _EUSART_DefaultFramingErrorHandler is unused but had its address taken
  1352  0000                     
  1353 ;; Function _EUSART_DefaultOverrunErrorHandler is unused but had its address taken
  1354  0000                     
  1355 ;; Function _EUSART_DefaultErrorHandler is unused but had its address taken
  1356  0000                     
  1357 ;; Function _open is unused but had its address taken
  1358  0000                     
  1359 ;; Function _close is unused but had its address taken
  1360  0000                     
  1361 ;; Function _open@temp_sensor$F416 is unused but had its address taken
  1362  0000                     
  1363 ;; Function _close@temp_sensor$F422 is unused but had its address taken
  1364  0000                     
  1365 ;; Function _turn_blue is unused but had its address taken
  1366  0000                     
  1367 ;; Function _turn_green is unused but had its address taken
  1368  0000                     
  1369 ;; Function _turn_red is unused but had its address taken
  1370  0000                     
  1371 ;; Function _set_brightness is unused but had its address taken
  1372  0000                     
  1373 ;; Function _set_color is unused but had its address taken
  1374  0000                     
  1375                           	psect	nvBANK1
  1376  00ED                     __pnvBANK1:
  1377  00ED                     _EUSART_FramingErrorHandler:
  1378  00ED                     	ds	2
  1379                           
  1380                           	psect	nvBANK2
  1381  013A                     __pnvBANK2:
  1382  013A                     _EUSART_ErrorHandler:
  1383  013A                     	ds	2
  1384  013C                     _EUSART_OverrunErrorHandler:
  1385  013C                     	ds	2
  1386  0011                     _PIR1bits	set	17
  1387  0095                     _OPTION_REGbits	set	149
  1388  008F                     _TRISD	set	143
  1389  008E                     _TRISC	set	142
  1390  008D                     _TRISB	set	141
  1391  008C                     _TRISA	set	140
  1392  0090                     _TRISE	set	144
  1393  0097                     _WDTCON	set	151
  1394  0098                     _OSCTUNE	set	152
  1395  0099                     _OSCCON	set	153
  1396  010E                     _LATC	set	270
  1397  010D                     _LATB	set	269
  1398  010C                     _LATA	set	268
  1399  010F                     _LATD	set	271
  1400  0110                     _LATE	set	272
  1401  0116                     _BORCON	set	278
  1402  019A                     _TX1REG	set	410
  1403  0199                     _RC1REG	set	409
  1404  019D                     _RC1STAbits	set	413
  1405  019E                     _TX1STAbits	set	414
  1406  019C                     _SP1BRGH	set	412
  1407  019B                     _SP1BRGL	set	411
  1408  019E                     _TX1STA	set	414
  1409  019D                     _RC1STA	set	413
  1410  019F                     _BAUD1CON	set	415
  1411  018C                     _ANSELA	set	396
  1412  0190                     _ANSELE	set	400
  1413  018D                     _ANSELB	set	397
  1414  018E                     _ANSELC	set	398
  1415  018F                     _ANSELD	set	399
  1416  020E                     _WPUC	set	526
  1417  020C                     _WPUA	set	524
  1418  020D                     _WPUB	set	525
  1419  0210                     _WPUE	set	528
  1420  020F                     _WPUD	set	527
  1421  028F                     _ODCOND	set	655
  1422  028E                     _ODCONC	set	654
  1423  028D                     _ODCONB	set	653
  1424  028C                     _ODCONA	set	652
  1425  0290                     _ODCONE	set	656
  1426  0310                     _SLRCONE	set	784
  1427  030F                     _SLRCOND	set	783
  1428  030E                     _SLRCONC	set	782
  1429  030D                     _SLRCONB	set	781
  1430  030C                     _SLRCONA	set	780
  1431  0390                     _INLVLE	set	912
  1432  038F                     _INLVLD	set	911
  1433  038E                     _INLVLC	set	910
  1434  038D                     _INLVLB	set	909
  1435  038C                     _INLVLA	set	908
  1436  0E24                     _RXPPS	set	3620
  1437  0EA6                     _RC6PPS	set	3750
  1438                           
  1439                           	psect	stringtext1
  1440  1800                     __pstringtext1:
  1441  1800                     STR_2:
  1442  1800  3454               	retlw	84	;'T'
  1443  1801  3465               	retlw	101	;'e'
  1444  1802  346D               	retlw	109	;'m'
  1445  1803  3470               	retlw	112	;'p'
  1446  1804  3465               	retlw	101	;'e'
  1447  1805  3472               	retlw	114	;'r'
  1448  1806  3461               	retlw	97	;'a'
  1449  1807  3474               	retlw	116	;'t'
  1450  1808  3475               	retlw	117	;'u'
  1451  1809  3472               	retlw	114	;'r'
  1452  180A  3465               	retlw	101	;'e'
  1453  180B  3420               	retlw	32	;' '
  1454  180C  3473               	retlw	115	;'s'
  1455  180D  3465               	retlw	101	;'e'
  1456  180E  346E               	retlw	110	;'n'
  1457  180F  3473               	retlw	115	;'s'
  1458  1810  346F               	retlw	111	;'o'
  1459  1811  3472               	retlw	114	;'r'
  1460  1812  3420               	retlw	32	;' '
  1461  1813  3476               	retlw	118	;'v'
  1462  1814  3461               	retlw	97	;'a'
  1463  1815  346C               	retlw	108	;'l'
  1464  1816  3475               	retlw	117	;'u'
  1465  1817  3465               	retlw	101	;'e'
  1466  1818  343A               	retlw	58	;':'
  1467  1819  3420               	retlw	32	;' '
  1468  181A  3425               	retlw	37	;'%'
  1469  181B  3466               	retlw	102	;'f'
  1470  181C  340A               	retlw	10
  1471  181D  3400               	retlw	0
  1472                           
  1473                           	psect	stringtext2
  1474  181E                     __pstringtext2:
  1475  181E                     STR_7:
  1476  181E  3454               	retlw	84	;'T'
  1477  181F  3465               	retlw	101	;'e'
  1478  1820  346D               	retlw	109	;'m'
  1479  1821  3470               	retlw	112	;'p'
  1480  1822  3420               	retlw	32	;' '
  1481  1823  3473               	retlw	115	;'s'
  1482  1824  3465               	retlw	101	;'e'
  1483  1825  346E               	retlw	110	;'n'
  1484  1826  3473               	retlw	115	;'s'
  1485  1827  346F               	retlw	111	;'o'
  1486  1828  3472               	retlw	114	;'r'
  1487  1829  3420               	retlw	32	;' '
  1488  182A  346F               	retlw	111	;'o'
  1489  182B  3470               	retlw	112	;'p'
  1490  182C  3465               	retlw	101	;'e'
  1491  182D  346E               	retlw	110	;'n'
  1492  182E  3469               	retlw	105	;'i'
  1493  182F  346E               	retlw	110	;'n'
  1494  1830  3467               	retlw	103	;'g'
  1495  1831  3420               	retlw	32	;' '
  1496  1832  3466               	retlw	102	;'f'
  1497  1833  3461               	retlw	97	;'a'
  1498  1834  3469               	retlw	105	;'i'
  1499  1835  346C               	retlw	108	;'l'
  1500  1836  3465               	retlw	101	;'e'
  1501  1837  3464               	retlw	100	;'d'
  1502  1838  3421               	retlw	33	;'!'
  1503  1839  340A               	retlw	10
  1504  183A  3400               	retlw	0
  1505                           
  1506                           	psect	stringtext3
  1507  183B                     __pstringtext3:
  1508  183B                     STR_1:
  1509  183B  344C               	retlw	76	;'L'
  1510  183C  3469               	retlw	105	;'i'
  1511  183D  3467               	retlw	103	;'g'
  1512  183E  3468               	retlw	104	;'h'
  1513  183F  3474               	retlw	116	;'t'
  1514  1840  3420               	retlw	32	;' '
  1515  1841  3473               	retlw	115	;'s'
  1516  1842  3465               	retlw	101	;'e'
  1517  1843  346E               	retlw	110	;'n'
  1518  1844  3473               	retlw	115	;'s'
  1519  1845  346F               	retlw	111	;'o'
  1520  1846  3472               	retlw	114	;'r'
  1521  1847  3420               	retlw	32	;' '
  1522  1848  3476               	retlw	118	;'v'
  1523  1849  3461               	retlw	97	;'a'
  1524  184A  346C               	retlw	108	;'l'
  1525  184B  3475               	retlw	117	;'u'
  1526  184C  3465               	retlw	101	;'e'
  1527  184D  343A               	retlw	58	;':'
  1528  184E  3420               	retlw	32	;' '
  1529  184F  3425               	retlw	37	;'%'
  1530  1850  3466               	retlw	102	;'f'
  1531  1851  340A               	retlw	10
  1532  1852  3400               	retlw	0
  1533                           
  1534                           	psect	stringtext4
  1535  1853                     __pstringtext4:
  1536  1853                     STR_3:
  1537  1853  344C               	retlw	76	;'L'
  1538  1854  3469               	retlw	105	;'i'
  1539  1855  3467               	retlw	103	;'g'
  1540  1856  3468               	retlw	104	;'h'
  1541  1857  3474               	retlw	116	;'t'
  1542  1858  3420               	retlw	32	;' '
  1543  1859  3473               	retlw	115	;'s'
  1544  185A  3465               	retlw	101	;'e'
  1545  185B  346E               	retlw	110	;'n'
  1546  185C  3473               	retlw	115	;'s'
  1547  185D  346F               	retlw	111	;'o'
  1548  185E  3472               	retlw	114	;'r'
  1549  185F  3420               	retlw	32	;' '
  1550  1860  346F               	retlw	111	;'o'
  1551  1861  3470               	retlw	112	;'p'
  1552  1862  3465               	retlw	101	;'e'
  1553  1863  346E               	retlw	110	;'n'
  1554  1864  3465               	retlw	101	;'e'
  1555  1865  3464               	retlw	100	;'d'
  1556  1866  3421               	retlw	33	;'!'
  1557  1867  340A               	retlw	10
  1558  1868  3400               	retlw	0
  1559                           
  1560                           	psect	stringtext5
  1561  1869                     __pstringtext5:
  1562  1869                     STR_5:
  1563  1869  344C               	retlw	76	;'L'
  1564  186A  3469               	retlw	105	;'i'
  1565  186B  3467               	retlw	103	;'g'
  1566  186C  3468               	retlw	104	;'h'
  1567  186D  3474               	retlw	116	;'t'
  1568  186E  3420               	retlw	32	;' '
  1569  186F  3473               	retlw	115	;'s'
  1570  1870  3465               	retlw	101	;'e'
  1571  1871  346E               	retlw	110	;'n'
  1572  1872  3473               	retlw	115	;'s'
  1573  1873  346F               	retlw	111	;'o'
  1574  1874  3472               	retlw	114	;'r'
  1575  1875  3420               	retlw	32	;' '
  1576  1876  3463               	retlw	99	;'c'
  1577  1877  346C               	retlw	108	;'l'
  1578  1878  346F               	retlw	111	;'o'
  1579  1879  3473               	retlw	115	;'s'
  1580  187A  3465               	retlw	101	;'e'
  1581  187B  3464               	retlw	100	;'d'
  1582  187C  3421               	retlw	33	;'!'
  1583  187D  340A               	retlw	10
  1584  187E  3400               	retlw	0
  1585                           
  1586                           	psect	stringtext6
  1587  187F                     __pstringtext6:
  1588  187F                     STR_4:
  1589  187F  3452               	retlw	82	;'R'
  1590  1880  3465               	retlw	101	;'e'
  1591  1881  3461               	retlw	97	;'a'
  1592  1882  3464               	retlw	100	;'d'
  1593  1883  3469               	retlw	105	;'i'
  1594  1884  346E               	retlw	110	;'n'
  1595  1885  3467               	retlw	103	;'g'
  1596  1886  3420               	retlw	32	;' '
  1597  1887  346C               	retlw	108	;'l'
  1598  1888  3469               	retlw	105	;'i'
  1599  1889  3467               	retlw	103	;'g'
  1600  188A  3468               	retlw	104	;'h'
  1601  188B  3474               	retlw	116	;'t'
  1602  188C  3420               	retlw	32	;' '
  1603  188D  3473               	retlw	115	;'s'
  1604  188E  3465               	retlw	101	;'e'
  1605  188F  346E               	retlw	110	;'n'
  1606  1890  3473               	retlw	115	;'s'
  1607  1891  346F               	retlw	111	;'o'
  1608  1892  3472               	retlw	114	;'r'
  1609  1893  340A               	retlw	10
  1610  1894  3400               	retlw	0
  1611                           
  1612                           	psect	stringtext7
  1613  1895                     __pstringtext7:
  1614  1895                     STR_6:
  1615  1895  3454               	retlw	84	;'T'
  1616  1896  3465               	retlw	101	;'e'
  1617  1897  346D               	retlw	109	;'m'
  1618  1898  3470               	retlw	112	;'p'
  1619  1899  3420               	retlw	32	;' '
  1620  189A  3473               	retlw	115	;'s'
  1621  189B  3465               	retlw	101	;'e'
  1622  189C  346E               	retlw	110	;'n'
  1623  189D  3473               	retlw	115	;'s'
  1624  189E  346F               	retlw	111	;'o'
  1625  189F  3472               	retlw	114	;'r'
  1626  18A0  3420               	retlw	32	;' '
  1627  18A1  346F               	retlw	111	;'o'
  1628  18A2  3470               	retlw	112	;'p'
  1629  18A3  3465               	retlw	101	;'e'
  1630  18A4  346E               	retlw	110	;'n'
  1631  18A5  3465               	retlw	101	;'e'
  1632  18A6  3464               	retlw	100	;'d'
  1633  18A7  3421               	retlw	33	;'!'
  1634  18A8  340A               	retlw	10
  1635  18A9  3400               	retlw	0
  1636                           
  1637                           	psect	stringtext8
  1638  18AA                     __pstringtext8:
  1639  18AA                     STR_9:
  1640  18AA  3454               	retlw	84	;'T'
  1641  18AB  3465               	retlw	101	;'e'
  1642  18AC  346D               	retlw	109	;'m'
  1643  18AD  3470               	retlw	112	;'p'
  1644  18AE  3420               	retlw	32	;' '
  1645  18AF  3473               	retlw	115	;'s'
  1646  18B0  3465               	retlw	101	;'e'
  1647  18B1  346E               	retlw	110	;'n'
  1648  18B2  3473               	retlw	115	;'s'
  1649  18B3  346F               	retlw	111	;'o'
  1650  18B4  3472               	retlw	114	;'r'
  1651  18B5  3420               	retlw	32	;' '
  1652  18B6  3463               	retlw	99	;'c'
  1653  18B7  346C               	retlw	108	;'l'
  1654  18B8  346F               	retlw	111	;'o'
  1655  18B9  3473               	retlw	115	;'s'
  1656  18BA  3465               	retlw	101	;'e'
  1657  18BB  3464               	retlw	100	;'d'
  1658  18BC  3421               	retlw	33	;'!'
  1659  18BD  340A               	retlw	10
  1660  18BE  3400               	retlw	0
  1661                           
  1662                           	psect	stringtext9
  1663  18BF                     __pstringtext9:
  1664  18BF                     STR_8:
  1665  18BF  3452               	retlw	82	;'R'
  1666  18C0  3465               	retlw	101	;'e'
  1667  18C1  3461               	retlw	97	;'a'
  1668  18C2  3464               	retlw	100	;'d'
  1669  18C3  3469               	retlw	105	;'i'
  1670  18C4  346E               	retlw	110	;'n'
  1671  18C5  3467               	retlw	103	;'g'
  1672  18C6  3420               	retlw	32	;' '
  1673  18C7  3474               	retlw	116	;'t'
  1674  18C8  3465               	retlw	101	;'e'
  1675  18C9  346D               	retlw	109	;'m'
  1676  18CA  3470               	retlw	112	;'p'
  1677  18CB  3420               	retlw	32	;' '
  1678  18CC  3473               	retlw	115	;'s'
  1679  18CD  3465               	retlw	101	;'e'
  1680  18CE  346E               	retlw	110	;'n'
  1681  18CF  3473               	retlw	115	;'s'
  1682  18D0  346F               	retlw	111	;'o'
  1683  18D1  3472               	retlw	114	;'r'
  1684  18D2  340A               	retlw	10
  1685  18D3  3400               	retlw	0
  1686                           
  1687                           	psect	stringtext10
  1688  18D4                     __pstringtext10:
  1689  18D4                     STR_10:
  1690  18D4  3444               	retlw	68	;'D'
  1691  18D5  3465               	retlw	101	;'e'
  1692  18D6  346D               	retlw	109	;'m'
  1693  18D7  346F               	retlw	111	;'o'
  1694  18D8  3420               	retlw	32	;' '
  1695  18D9  3431               	retlw	49	;'1'
  1696  18DA  3421               	retlw	33	;'!'
  1697  18DB  340A               	retlw	10
  1698  18DC  3400               	retlw	0
  1699                           
  1700                           	psect	stringtext11
  1701  18DD                     __pstringtext11:
  1702  18DD                     STR_11:
  1703  18DD  3444               	retlw	68	;'D'
  1704  18DE  3465               	retlw	101	;'e'
  1705  18DF  346D               	retlw	109	;'m'
  1706  18E0  346F               	retlw	111	;'o'
  1707  18E1  3420               	retlw	32	;' '
  1708  18E2  3432               	retlw	50	;'2'
  1709  18E3  3421               	retlw	33	;'!'
  1710  18E4  340A               	retlw	10
  1711  18E5  3400               	retlw	0
  1712                           
  1713                           	psect	stringtext12
  1714  18E6                     __pstringtext12:
  1715  18E6                     STR_12:
  1716  18E6  3444               	retlw	68	;'D'
  1717  18E7  3465               	retlw	101	;'e'
  1718  18E8  346D               	retlw	109	;'m'
  1719  18E9  346F               	retlw	111	;'o'
  1720  18EA  3420               	retlw	32	;' '
  1721  18EB  3433               	retlw	51	;'3'
  1722  18EC  3421               	retlw	33	;'!'
  1723  18ED  340A               	retlw	10
  1724  18EE  3400               	retlw	0
  1725                           
  1726                           	psect	stringtext13
  1727  18EF                     __pstringtext13:
  1728  18EF                     STR_18:
  1729  18EF  3449               	retlw	73	;'I'
  1730  18F0  344E               	retlw	78	;'N'
  1731  18F1  3446               	retlw	70	;'F'
  1732  18F2  3400               	retlw	0
  1733                           
  1734                           	psect	stringtext14
  1735  18F3                     __pstringtext14:
  1736  18F3                     STR_22:
  1737  18F3  344E               	retlw	78	;'N'
  1738  18F4  3441               	retlw	65	;'A'
  1739  18F5  344E               	retlw	78	;'N'
  1740  18F6  3400               	retlw	0
  1741                           
  1742                           	psect	stringtext15
  1743  18F7                     __pstringtext15:
  1744  18F7                     STR_19:
  1745  18F7  3469               	retlw	105	;'i'
  1746  18F8  346E               	retlw	110	;'n'
  1747  18F9  3466               	retlw	102	;'f'
  1748  18FA  3400               	retlw	0
  1749                           
  1750                           	psect	stringtext16
  1751  18FB                     __pstringtext16:
  1752  18FB                     STR_23:
  1753  18FB  346E               	retlw	110	;'n'
  1754  18FC  3461               	retlw	97	;'a'
  1755  18FD  346E               	retlw	110	;'n'
  1756  18FE  3400               	retlw	0
  1757                           
  1758                           	psect	stringtext17
  1759  18FF                     __pstringtext17:
  1760  18FF                     STR_26:
  1761  18FF  346C               	retlw	108	;'l'
  1762  1900  3466               	retlw	102	;'f'
  1763  1901  3400               	retlw	0
  1764                           
  1765                           	psect	stringtext18
  1766  0000                     __pstringtext18:
  1767  18D4                     
  1768                           	psect	cinit
  1769  07EB                     start_initialization:	
  1770                           ; #config settings
  1771                           
  1772  07EB                     __initialization:
  1773                           
  1774                           ; Clear objects allocated to BANK0
  1775  07EB  0020               	movlb	0	; select bank0
  1776  07EC  01EF               	clrf	__pbssBANK0& (0+127)
  1777                           
  1778                           ; Clear objects allocated to BANK1
  1779  07ED  30DD               	movlw	low __pbssBANK1
  1780  07EE  0084               	movwf	4
  1781  07EF  3000               	movlw	high __pbssBANK1
  1782  07F0  0085               	movwf	5
  1783  07F1  3010               	movlw	16
  1784  07F2  3191  2181  3187   	fcall	clear_ram0
  1785                           
  1786                           ; Clear objects allocated to BANK3
  1787  07F5  30A0               	movlw	low __pbssBANK3
  1788  07F6  0084               	movwf	4
  1789  07F7  3001               	movlw	high __pbssBANK3
  1790  07F8  0085               	movwf	5
  1791  07F9  3050               	movlw	80
  1792  07FA  3191  2181  3187   	fcall	clear_ram0
  1793  07FD                     end_of_initialization:	
  1794                           ;End of C runtime variable initialization code
  1795                           
  1796  07FD                     __end_of__initialization:
  1797  07FD  0020               	movlb	0
  1798  07FE  3180  2827         	ljmp	_main	;jump to C main() function
  1799                           
  1800                           	psect	bssBANK0
  1801  006F                     __pbssBANK0:
  1802  006F                     _eusartRxLastError:
  1803  006F                     	ds	1
  1804                           
  1805                           	psect	bssBANK1
  1806  00DD                     __pbssBANK1:
  1807  00DD                     floorf@F527:
  1808  00DD                     	ds	4
  1809  00E1                     ___fpclassifyf@F465:
  1810  00E1                     	ds	4
  1811  00E5                     _nout:
  1812  00E5                     	ds	2
  1813  00E7                     _width:
  1814  00E7                     	ds	2
  1815  00E9                     _prec:
  1816  00E9                     	ds	2
  1817  00EB                     _flags:
  1818  00EB                     	ds	2
  1819                           
  1820                           	psect	bssBANK3
  1821  01A0                     __pbssBANK3:
  1822  01A0                     _dbuf:
  1823  01A0                     	ds	80
  1824                           
  1825                           	psect	clrtext
  1826  1181                     clear_ram0:	
  1827                           ;	Called with FSR0 containing the base address, and
  1828                           ;	WREG with the size to clear
  1829                           
  1830  1181  0064               	clrwdt	;clear the watchdog before getting into this loop
  1831  1182                     clrloop0:
  1832  1182  0180               	clrf	0	;clear RAM location pointed to by FSR
  1833  1183  3101               	addfsr 0,1
  1834  1184  0B89               	decfsz	9,f	;Have we reached the end of clearing yet?
  1835  1185  2982               	goto	clrloop0	;have we reached the end yet?
  1836  1186  3400               	retlw	0	;all done for this memory range, return
  1837                           
  1838                           	psect	cstackBANK2
  1839  0120                     __pcstackBANK2:
  1840  0120                     main@light_value:
  1841                           
  1842                           ; 4 bytes @ 0x0
  1843  0120                     	ds	4
  1844  0124                     main@temp_value:
  1845                           
  1846                           ; 4 bytes @ 0x4
  1847  0124                     	ds	4
  1848  0128                     main@light_sensor:
  1849                           
  1850                           ; 6 bytes @ 0x8
  1851  0128                     	ds	6
  1852  012E                     main@temp_sensor:
  1853                           
  1854                           ; 6 bytes @ 0xE
  1855  012E                     	ds	6
  1856  0134                     main@lcd_screen:
  1857                           
  1858                           ; 6 bytes @ 0x14
  1859  0134                     	ds	6
  1860                           
  1861                           	psect	cstackBANK1
  1862  00A0                     __pcstackBANK1:
  1863  00A0                     _efgtoa$915:
  1864                           
  1865                           ; 2 bytes @ 0x0
  1866  00A0                     	ds	2
  1867  00A2                     _efgtoa$916:
  1868                           
  1869                           ; 2 bytes @ 0x2
  1870  00A2                     	ds	2
  1871  00A4                     _efgtoa$921:
  1872                           
  1873                           ; 2 bytes @ 0x4
  1874  00A4                     	ds	2
  1875  00A6                     _efgtoa$925:
  1876                           
  1877                           ; 2 bytes @ 0x6
  1878  00A6                     	ds	2
  1879  00A8                     _efgtoa$926:
  1880                           
  1881                           ; 2 bytes @ 0x8
  1882  00A8                     	ds	2
  1883  00AA                     _efgtoa$927:
  1884                           
  1885                           ; 2 bytes @ 0xA
  1886  00AA                     	ds	2
  1887  00AC                     efgtoa@t:
  1888                           
  1889                           ; 2 bytes @ 0xC
  1890  00AC                     	ds	2
  1891  00AE                     efgtoa@pp:
  1892                           
  1893                           ; 2 bytes @ 0xE
  1894  00AE                     	ds	2
  1895  00B0                     efgtoa@ne:
  1896                           
  1897                           ; 2 bytes @ 0x10
  1898  00B0                     	ds	2
  1899  00B2                     efgtoa@m:
  1900                           
  1901                           ; 2 bytes @ 0x12
  1902  00B2                     	ds	2
  1903  00B4                     efgtoa@ou:
  1904                           
  1905                           ; 4 bytes @ 0x14
  1906  00B4                     	ds	4
  1907  00B8                     efgtoa@d:
  1908                           
  1909                           ; 2 bytes @ 0x18
  1910  00B8                     	ds	2
  1911  00BA                     efgtoa@sign:
  1912                           
  1913                           ; 2 bytes @ 0x1A
  1914  00BA                     	ds	2
  1915  00BC                     efgtoa@p:
  1916                           
  1917                           ; 2 bytes @ 0x1C
  1918  00BC                     	ds	2
  1919  00BE                     efgtoa@fp:
  1920                           
  1921                           ; 1 bytes @ 0x1E
  1922  00BE                     	ds	1
  1923  00BF                     efgtoa@w:
  1924                           
  1925                           ; 2 bytes @ 0x1F
  1926  00BF                     	ds	2
  1927  00C1                     efgtoa@nmode:
  1928                           
  1929                           ; 1 bytes @ 0x21
  1930  00C1                     	ds	1
  1931  00C2                     efgtoa@mode:
  1932                           
  1933                           ; 1 bytes @ 0x22
  1934  00C2                     	ds	1
  1935  00C3                     efgtoa@h:
  1936                           
  1937                           ; 4 bytes @ 0x23
  1938  00C3                     	ds	4
  1939  00C7                     efgtoa@l:
  1940                           
  1941                           ; 4 bytes @ 0x27
  1942  00C7                     	ds	4
  1943  00CB                     efgtoa@i:
  1944                           
  1945                           ; 2 bytes @ 0x2B
  1946  00CB                     	ds	2
  1947  00CD                     efgtoa@g:
  1948                           
  1949                           ; 4 bytes @ 0x2D
  1950  00CD                     	ds	4
  1951  00D1                     efgtoa@e:
  1952                           
  1953                           ; 2 bytes @ 0x31
  1954  00D1                     	ds	2
  1955  00D3                     efgtoa@n:
  1956                           
  1957                           ; 2 bytes @ 0x33
  1958  00D3                     	ds	2
  1959  00D5                     efgtoa@u:
  1960                           
  1961                           ; 4 bytes @ 0x35
  1962  00D5                     	ds	4
  1963  00D9                     ?_read:
  1964  00D9                     ?_read@temp_sensor$F420:	
  1965                           ; 4 bytes @ 0x39
  1966                           
  1967                           
  1968                           ; 4 bytes @ 0x39
  1969  00D9                     	ds	4
  1970                           
  1971                           	psect	cstackCOMMON
  1972  0070                     __pcstackCOMMON:
  1973  0070                     ?___fleq:
  1974  0070                     ?_PIN_MANAGER_Initialize:	
  1975                           ; 1 bit 
  1976                           
  1977  0070                     ??_PIN_MANAGER_Initialize:	
  1978                           ; 1 bytes @ 0x0
  1979                           
  1980  0070                     ?_OSCILLATOR_Initialize:	
  1981                           ; 1 bytes @ 0x0
  1982                           
  1983  0070                     ??_OSCILLATOR_Initialize:	
  1984                           ; 1 bytes @ 0x0
  1985                           
  1986  0070                     ?_WDT_Initialize:	
  1987                           ; 1 bytes @ 0x0
  1988                           
  1989  0070                     ??_WDT_Initialize:	
  1990                           ; 1 bytes @ 0x0
  1991                           
  1992  0070                     ?_EUSART_Initialize:	
  1993                           ; 1 bytes @ 0x0
  1994                           
  1995  0070                     ?_EUSART_SetFramingErrorHandler:	
  1996                           ; 1 bytes @ 0x0
  1997                           
  1998  0070                     ?_EUSART_SetOverrunErrorHandler:	
  1999                           ; 1 bytes @ 0x0
  2000                           
  2001  0070                     ?_EUSART_SetErrorHandler:	
  2002                           ; 1 bytes @ 0x0
  2003                           
  2004  0070                     ?_initialize_light:	
  2005                           ; 1 bytes @ 0x0
  2006                           
  2007  0070                     ??_initialize_light:	
  2008                           ; 1 bytes @ 0x0
  2009                           
  2010  0070                     ?_initialize_temp:	
  2011                           ; 1 bytes @ 0x0
  2012                           
  2013  0070                     ??_initialize_temp:	
  2014                           ; 1 bytes @ 0x0
  2015                           
  2016  0070                     ?_initialize_lcd_screen:	
  2017                           ; 1 bytes @ 0x0
  2018                           
  2019  0070                     ??_initialize_lcd_screen:	
  2020                           ; 1 bytes @ 0x0
  2021                           
  2022  0070                     ?_strcpy:	
  2023                           ; 1 bytes @ 0x0
  2024                           
  2025  0070                     ?_SYSTEM_Initialize:	
  2026                           ; 1 bytes @ 0x0
  2027                           
  2028  0070                     ?_EUSART_Write:	
  2029                           ; 1 bytes @ 0x0
  2030                           
  2031  0070                     ??_EUSART_Write:	
  2032                           ; 1 bytes @ 0x0
  2033                           
  2034  0070                     ?_putch:	
  2035                           ; 1 bytes @ 0x0
  2036                           
  2037  0070                     ?_main:	
  2038                           ; 1 bytes @ 0x0
  2039                           
  2040  0070                     ?_demo1:	
  2041                           ; 1 bytes @ 0x0
  2042                           
  2043  0070                     ?_demo2:	
  2044                           ; 1 bytes @ 0x0
  2045                           
  2046  0070                     ?_demo3:	
  2047                           ; 1 bytes @ 0x0
  2048                           
  2049  0070                     ?__Umul8_16:	
  2050                           ; 1 bytes @ 0x0
  2051                           
  2052  0070                     ?_strlen:	
  2053                           ; 2 bytes @ 0x0
  2054                           
  2055  0070                     ?___fpclassifyf:	
  2056                           ; 2 bytes @ 0x0
  2057                           
  2058  0070                     ?_isupper:	
  2059                           ; 2 bytes @ 0x0
  2060                           
  2061  0070                     ?_strncmp:	
  2062                           ; 2 bytes @ 0x0
  2063                           
  2064  0070                     ?___awdiv:	
  2065                           ; 2 bytes @ 0x0
  2066                           
  2067  0070                     ?___awmod:	
  2068                           ; 2 bytes @ 0x0
  2069                           
  2070  0070                     ?___flneg:	
  2071                           ; 2 bytes @ 0x0
  2072                           
  2073  0070                     ?___fltol:	
  2074                           ; 4 bytes @ 0x0
  2075                           
  2076  0070                     ?___fladd:	
  2077                           ; 4 bytes @ 0x0
  2078                           
  2079  0070                     ?___fldiv:	
  2080                           ; 4 bytes @ 0x0
  2081                           
  2082  0070                     EUSART_Write@txData:	
  2083                           ; 4 bytes @ 0x0
  2084                           
  2085  0070                     initialize_light@sensor_var:	
  2086                           ; 1 bytes @ 0x0
  2087                           
  2088  0070                     initialize_temp@sensor_var:	
  2089                           ; 1 bytes @ 0x0
  2090                           
  2091  0070                     initialize_lcd_screen@lcd_screen_var:	
  2092                           ; 1 bytes @ 0x0
  2093                           
  2094  0070                     __Umul8_16@multiplicand:	
  2095                           ; 1 bytes @ 0x0
  2096                           
  2097  0070                     EUSART_SetFramingErrorHandler@interruptHandler:	
  2098                           ; 1 bytes @ 0x0
  2099                           
  2100  0070                     EUSART_SetOverrunErrorHandler@interruptHandler:	
  2101                           ; 2 bytes @ 0x0
  2102                           
  2103  0070                     EUSART_SetErrorHandler@interruptHandler:	
  2104                           ; 2 bytes @ 0x0
  2105                           
  2106  0070                     ___awdiv@divisor:	
  2107                           ; 2 bytes @ 0x0
  2108                           
  2109  0070                     ___awmod@divisor:	
  2110                           ; 2 bytes @ 0x0
  2111                           
  2112  0070                     isupper@c:	
  2113                           ; 2 bytes @ 0x0
  2114                           
  2115  0070                     strcpy@src:	
  2116                           ; 2 bytes @ 0x0
  2117                           
  2118  0070                     strncmp@_r:	
  2119                           ; 2 bytes @ 0x0
  2120                           
  2121  0070                     ___fleq@ff1:	
  2122                           ; 2 bytes @ 0x0
  2123                           
  2124  0070                     ___flneg@f1:	
  2125                           ; 4 bytes @ 0x0
  2126                           
  2127  0070                     ___fltol@f1:	
  2128                           ; 4 bytes @ 0x0
  2129                           
  2130  0070                     ___fladd@b:	
  2131                           ; 4 bytes @ 0x0
  2132                           
  2133  0070                     ___fldiv@a:	
  2134                           ; 4 bytes @ 0x0
  2135                           
  2136  0070                     ___fpclassifyf@x:	
  2137                           ; 4 bytes @ 0x0
  2138                           
  2139                           
  2140                           ; 4 bytes @ 0x0
  2141  0070                     	ds	1
  2142  0071                     ??_putch:
  2143  0071                     putch@txData:	
  2144                           ; 1 bytes @ 0x1
  2145                           
  2146                           
  2147                           ; 1 bytes @ 0x1
  2148  0071                     	ds	1
  2149  0072                     ??_EUSART_Initialize:
  2150  0072                     ??_EUSART_SetFramingErrorHandler:	
  2151                           ; 1 bytes @ 0x2
  2152                           
  2153  0072                     ??_EUSART_SetOverrunErrorHandler:	
  2154                           ; 1 bytes @ 0x2
  2155                           
  2156  0072                     ??_EUSART_SetErrorHandler:	
  2157                           ; 1 bytes @ 0x2
  2158                           
  2159  0072                     ??__Umul8_16:	
  2160                           ; 1 bytes @ 0x2
  2161                           
  2162  0072                     ??_strlen:	
  2163                           ; 1 bytes @ 0x2
  2164                           
  2165  0072                     ??_isupper:	
  2166                           ; 1 bytes @ 0x2
  2167                           
  2168  0072                     ??_strcpy:	
  2169                           ; 1 bytes @ 0x2
  2170                           
  2171  0072                     ??_SYSTEM_Initialize:	
  2172                           ; 1 bytes @ 0x2
  2173                           
  2174  0072                     ?_fputc:	
  2175                           ; 1 bytes @ 0x2
  2176                           
  2177  0072                     ___awdiv@dividend:	
  2178                           ; 2 bytes @ 0x2
  2179                           
  2180  0072                     ___awmod@dividend:	
  2181                           ; 2 bytes @ 0x2
  2182                           
  2183  0072                     fputc@c:	
  2184                           ; 2 bytes @ 0x2
  2185                           
  2186  0072                     strncmp@n:	
  2187                           ; 2 bytes @ 0x2
  2188                           
  2189                           
  2190                           ; 2 bytes @ 0x2
  2191  0072                     	ds	1
  2192  0073                     strlen@a:
  2193                           
  2194                           ; 1 bytes @ 0x3
  2195  0073                     	ds	1
  2196  0074                     ??___fpclassifyf:
  2197  0074                     ??_strncmp:	
  2198                           ; 1 bytes @ 0x4
  2199                           
  2200  0074                     ??___awdiv:	
  2201                           ; 1 bytes @ 0x4
  2202                           
  2203  0074                     ??___awmod:	
  2204                           ; 1 bytes @ 0x4
  2205                           
  2206  0074                     ??___flneg:	
  2207                           ; 1 bytes @ 0x4
  2208                           
  2209  0074                     ??___fltol:	
  2210                           ; 1 bytes @ 0x4
  2211                           
  2212  0074                     fputc@fp:	
  2213                           ; 1 bytes @ 0x4
  2214                           
  2215  0074                     strlen@s:	
  2216                           ; 1 bytes @ 0x4
  2217                           
  2218  0074                     __Umul8_16@product:	
  2219                           ; 1 bytes @ 0x4
  2220                           
  2221  0074                     strcpy@s:	
  2222                           ; 2 bytes @ 0x4
  2223                           
  2224  0074                     ___fleq@ff2:	
  2225                           ; 2 bytes @ 0x4
  2226                           
  2227  0074                     ___fladd@a:	
  2228                           ; 4 bytes @ 0x4
  2229                           
  2230  0074                     ___fldiv@b:	
  2231                           ; 4 bytes @ 0x4
  2232                           
  2233                           
  2234                           ; 4 bytes @ 0x4
  2235  0074                     	ds	1
  2236  0075                     ??_fputc:
  2237  0075                     ___awdiv@counter:	
  2238                           ; 1 bytes @ 0x5
  2239                           
  2240  0075                     ___awmod@counter:	
  2241                           ; 1 bytes @ 0x5
  2242                           
  2243  0075                     strncmp@_l:	
  2244                           ; 1 bytes @ 0x5
  2245                           
  2246                           
  2247                           ; 1 bytes @ 0x5
  2248  0075                     	ds	1
  2249  0076                     ?_tolower:
  2250  0076                     ___awdiv@sign:	
  2251                           ; 2 bytes @ 0x6
  2252                           
  2253  0076                     ___awmod@sign:	
  2254                           ; 1 bytes @ 0x6
  2255                           
  2256  0076                     strcpy@d:	
  2257                           ; 1 bytes @ 0x6
  2258                           
  2259  0076                     __Umul8_16@word_mpld:	
  2260                           ; 1 bytes @ 0x6
  2261                           
  2262  0076                     strncmp@r:	
  2263                           ; 2 bytes @ 0x6
  2264                           
  2265  0076                     tolower@c:	
  2266                           ; 2 bytes @ 0x6
  2267                           
  2268                           
  2269                           ; 2 bytes @ 0x6
  2270  0076                     	ds	1
  2271  0077                     strcpy@dest:
  2272  0077                     ___awdiv@quotient:	
  2273                           ; 1 bytes @ 0x7
  2274                           
  2275                           
  2276                           ; 2 bytes @ 0x7
  2277  0077                     	ds	1
  2278  0078                     ??_tolower:
  2279  0078                     ??___fleq:	
  2280                           ; 1 bytes @ 0x8
  2281                           
  2282  0078                     ??___fldiv:	
  2283                           ; 1 bytes @ 0x8
  2284                           
  2285  0078                     ___fladd@signs:	
  2286                           ; 1 bytes @ 0x8
  2287                           
  2288  0078                     __Umul8_16@multiplier:	
  2289                           ; 1 bytes @ 0x8
  2290                           
  2291  0078                     strncmp@l:	
  2292                           ; 1 bytes @ 0x8
  2293                           
  2294                           
  2295                           ; 1 bytes @ 0x8
  2296  0078                     	ds	1
  2297  0079                     ??___flmul:
  2298  0079                     ___fltol@sign1:	
  2299                           ; 1 bytes @ 0x9
  2300                           
  2301  0079                     ___fladd@aexp:	
  2302                           ; 1 bytes @ 0x9
  2303                           
  2304                           
  2305                           ; 1 bytes @ 0x9
  2306  0079                     	ds	1
  2307  007A                     ?_fputs:
  2308  007A                     ___fltol@exp1:	
  2309                           ; 2 bytes @ 0xA
  2310                           
  2311  007A                     ___fladd@bexp:	
  2312                           ; 1 bytes @ 0xA
  2313                           
  2314  007A                     fputs@fp:	
  2315                           ; 1 bytes @ 0xA
  2316                           
  2317                           
  2318                           ; 1 bytes @ 0xA
  2319  007A                     	ds	1
  2320  007B                     ??_fputs:
  2321  007B                     ___fladd@grs:	
  2322                           ; 1 bytes @ 0xB
  2323                           
  2324                           
  2325                           ; 1 bytes @ 0xB
  2326  007B                     	ds	1
  2327  007C                     _tolower$1035:
  2328                           
  2329                           ; 2 bytes @ 0xC
  2330  007C                     	ds	2
  2331  007E                     ??_main:
  2332  007E                     ??_read:	
  2333                           ; 1 bytes @ 0xE
  2334                           
  2335  007E                     ??_read@temp_sensor$F420:	
  2336                           ; 1 bytes @ 0xE
  2337                           
  2338  007E                     ??_demo1:	
  2339                           ; 1 bytes @ 0xE
  2340                           
  2341  007E                     ??_demo2:	
  2342                           ; 1 bytes @ 0xE
  2343                           
  2344  007E                     ??_demo3:	
  2345                           ; 1 bytes @ 0xE
  2346                           
  2347  007E                     ??___flsub:	
  2348                           ; 1 bytes @ 0xE
  2349                           
  2350                           
  2351                           	psect	cstackBANK0
  2352  0020                     __pcstackBANK0:	
  2353                           ; 1 bytes @ 0xE
  2354                           
  2355  0020                     ??___fladd:
  2356  0020                     ?___flmul:	
  2357                           ; 1 bytes @ 0x0
  2358                           
  2359  0020                     fputs@c:	
  2360                           ; 4 bytes @ 0x0
  2361                           
  2362  0020                     ___fpclassifyf@e:	
  2363                           ; 1 bytes @ 0x0
  2364                           
  2365  0020                     ___fldiv@rem:	
  2366                           ; 2 bytes @ 0x0
  2367                           
  2368  0020                     ___flmul@b:	
  2369                           ; 4 bytes @ 0x0
  2370                           
  2371                           
  2372                           ; 4 bytes @ 0x0
  2373  0020                     	ds	1
  2374  0021                     fputs@i:
  2375                           
  2376                           ; 2 bytes @ 0x1
  2377  0021                     	ds	1
  2378  0022                     ___fpclassifyf@u:
  2379                           
  2380                           ; 4 bytes @ 0x2
  2381  0022                     	ds	1
  2382  0023                     fputs@s:
  2383                           
  2384                           ; 1 bytes @ 0x3
  2385  0023                     	ds	1
  2386  0024                     ?_pad:
  2387  0024                     ___fldiv@sign:	
  2388                           ; 2 bytes @ 0x4
  2389                           
  2390  0024                     pad@buf:	
  2391                           ; 1 bytes @ 0x4
  2392                           
  2393  0024                     ___flmul@a:	
  2394                           ; 1 bytes @ 0x4
  2395                           
  2396                           
  2397                           ; 4 bytes @ 0x4
  2398  0024                     	ds	1
  2399  0025                     ___fldiv@new_exp:
  2400  0025                     pad@p:	
  2401                           ; 2 bytes @ 0x5
  2402                           
  2403                           
  2404                           ; 2 bytes @ 0x5
  2405  0025                     	ds	2
  2406  0027                     ??_pad:
  2407  0027                     ___fldiv@grs:	
  2408                           ; 1 bytes @ 0x7
  2409                           
  2410                           
  2411                           ; 4 bytes @ 0x7
  2412  0027                     	ds	1
  2413  0028                     ___flmul@sign:
  2414  0028                     pad@i:	
  2415                           ; 1 bytes @ 0x8
  2416                           
  2417                           
  2418                           ; 2 bytes @ 0x8
  2419  0028                     	ds	1
  2420  0029                     ___flmul@grs:
  2421                           
  2422                           ; 4 bytes @ 0x9
  2423  0029                     	ds	1
  2424  002A                     pad@w:
  2425                           
  2426                           ; 2 bytes @ 0xA
  2427  002A                     	ds	1
  2428  002B                     ___fldiv@bexp:
  2429                           
  2430                           ; 1 bytes @ 0xB
  2431  002B                     	ds	1
  2432  002C                     ___fldiv@aexp:
  2433  002C                     pad@fp:	
  2434                           ; 1 bytes @ 0xC
  2435                           
  2436                           
  2437                           ; 1 bytes @ 0xC
  2438  002C                     	ds	1
  2439  002D                     ?_floorf:
  2440  002D                     ___flmul@aexp:	
  2441                           ; 4 bytes @ 0xD
  2442                           
  2443  002D                     floorf@x:	
  2444                           ; 1 bytes @ 0xD
  2445                           
  2446                           
  2447                           ; 4 bytes @ 0xD
  2448  002D                     	ds	1
  2449  002E                     ___flmul@bexp:
  2450                           
  2451                           ; 1 bytes @ 0xE
  2452  002E                     	ds	1
  2453  002F                     ___flmul@prod:
  2454                           
  2455                           ; 4 bytes @ 0xF
  2456  002F                     	ds	2
  2457  0031                     ??_floorf:
  2458                           
  2459                           ; 1 bytes @ 0x11
  2460  0031                     	ds	2
  2461  0033                     ___flmul@temp:
  2462                           
  2463                           ; 2 bytes @ 0x13
  2464  0033                     	ds	2
  2465  0035                     ?___flge:
  2466  0035                     ?___flsub:	
  2467                           ; 1 bit 
  2468                           
  2469  0035                     ___flge@ff1:	
  2470                           ; 4 bytes @ 0x15
  2471                           
  2472  0035                     ___flsub@a:	
  2473                           ; 4 bytes @ 0x15
  2474                           
  2475                           
  2476                           ; 4 bytes @ 0x15
  2477  0035                     	ds	2
  2478  0037                     floorf@m:
  2479                           
  2480                           ; 4 bytes @ 0x17
  2481  0037                     	ds	2
  2482  0039                     ___flge@ff2:
  2483  0039                     ___flsub@b:	
  2484                           ; 4 bytes @ 0x19
  2485                           
  2486                           
  2487                           ; 4 bytes @ 0x19
  2488  0039                     	ds	2
  2489  003B                     floorf@e:
  2490                           
  2491                           ; 2 bytes @ 0x1B
  2492  003B                     	ds	2
  2493  003D                     ??___flge:
  2494  003D                     floorf@u:	
  2495                           ; 1 bytes @ 0x1D
  2496                           
  2497                           
  2498                           ; 4 bytes @ 0x1D
  2499  003D                     	ds	4
  2500  0041                     ?_efgtoa:
  2501  0041                     efgtoa@f:	
  2502                           ; 2 bytes @ 0x21
  2503                           
  2504                           
  2505                           ; 4 bytes @ 0x21
  2506  0041                     	ds	4
  2507  0045                     efgtoa@c:
  2508                           
  2509                           ; 1 bytes @ 0x25
  2510  0045                     	ds	1
  2511  0046                     ??_efgtoa:
  2512                           
  2513                           ; 1 bytes @ 0x26
  2514  0046                     	ds	4
  2515  004A                     ?_vfpfcnvrt:
  2516  004A                     vfpfcnvrt@fmt:	
  2517                           ; 2 bytes @ 0x2A
  2518                           
  2519                           
  2520                           ; 1 bytes @ 0x2A
  2521  004A                     	ds	1
  2522  004B                     vfpfcnvrt@ap:
  2523                           
  2524                           ; 1 bytes @ 0x2B
  2525  004B                     	ds	1
  2526  004C                     ??_vfpfcnvrt:
  2527                           
  2528                           ; 1 bytes @ 0x2C
  2529  004C                     	ds	6
  2530  0052                     _vfpfcnvrt$944:
  2531                           
  2532                           ; 2 bytes @ 0x32
  2533  0052                     	ds	2
  2534  0054                     vfpfcnvrt@f:
  2535                           
  2536                           ; 4 bytes @ 0x34
  2537  0054                     	ds	4
  2538  0058                     vfpfcnvrt@ct:
  2539                           
  2540                           ; 3 bytes @ 0x38
  2541  0058                     	ds	3
  2542  005B                     vfpfcnvrt@c:
  2543                           
  2544                           ; 1 bytes @ 0x3B
  2545  005B                     	ds	1
  2546  005C                     vfpfcnvrt@fp:
  2547                           
  2548                           ; 1 bytes @ 0x3C
  2549  005C                     	ds	1
  2550  005D                     ?_vfprintf:
  2551  005D                     vfprintf@fmt:	
  2552                           ; 2 bytes @ 0x3D
  2553                           
  2554                           
  2555                           ; 2 bytes @ 0x3D
  2556  005D                     	ds	2
  2557  005F                     vfprintf@ap:
  2558                           
  2559                           ; 1 bytes @ 0x3F
  2560  005F                     	ds	1
  2561  0060                     ??_vfprintf:
  2562                           
  2563                           ; 1 bytes @ 0x40
  2564  0060                     	ds	2
  2565  0062                     vfprintf@fp:
  2566                           
  2567                           ; 1 bytes @ 0x42
  2568  0062                     	ds	1
  2569  0063                     vfprintf@cfmt:
  2570                           
  2571                           ; 2 bytes @ 0x43
  2572  0063                     	ds	2
  2573  0065                     ?_printf:
  2574  0065                     printf@fmt:	
  2575                           ; 2 bytes @ 0x45
  2576                           
  2577                           
  2578                           ; 2 bytes @ 0x45
  2579  0065                     	ds	6
  2580  006B                     ??_printf:
  2581                           
  2582                           ; 1 bytes @ 0x4B
  2583  006B                     	ds	3
  2584  006E                     printf@ap:
  2585                           
  2586                           ; 1 bytes @ 0x4E
  2587  006E                     	ds	1
  2588                           
  2589                           	psect	maintext
  2590  0027                     __pmaintext:	
  2591 ;;
  2592 ;;Main: autosize = 0, tempsize = 0, incstack = 0, save=0
  2593 ;;
  2594 ;; *************** function _main *****************
  2595 ;; Defined at:
  2596 ;;		line 55 in file "main.c"
  2597 ;; Parameters:    Size  Location     Type
  2598 ;;		None
  2599 ;; Auto vars:     Size  Location     Type
  2600 ;;  temp_value      4    4[BANK2 ] float 
  2601 ;;  light_value     4    0[BANK2 ] float 
  2602 ;;  led            10    0        struct led
  2603 ;;  lcd_screen      6   20[BANK2 ] struct lcd_screen
  2604 ;;  temp_sensor     6   14[BANK2 ] struct sensor
  2605 ;;  light_sensor    6    8[BANK2 ] struct sensor
  2606 ;; Return value:  Size  Location     Type
  2607 ;;                  1    wreg      void 
  2608 ;; Registers used:
  2609 ;;		wreg, fsr0l, fsr0h, fsr1l, fsr1h, status,2, status,0, pclath, cstack
  2610 ;; Tracked objects:
  2611 ;;		On entry : B1F/0
  2612 ;;		On exit  : 0/0
  2613 ;;		Unchanged: 0/0
  2614 ;; Data sizes:     COMMON   BANK0   BANK1   BANK2   BANK3   BANK4   BANK5   BANK6   BANK7   BANK8   BANK9  BANK10  BANK1
      +1  BANK12
  2615 ;;      Params:         0       0       0       0       0       0       0       0       0       0       0       0       
      +0       0
  2616 ;;      Locals:         0       0       0      26       0       0       0       0       0       0       0       0       
      +0       0
  2617 ;;      Temps:          0       0       0       0       0       0       0       0       0       0       0       0       
      +0       0
  2618 ;;      Totals:         0       0       0      26       0       0       0       0       0       0       0       0       
      +0       0
  2619 ;;Total ram usage:       26 bytes
  2620 ;; Hardware stack levels required when called:   10
  2621 ;; This function calls:
  2622 ;;		_SYSTEM_Initialize
  2623 ;;		_demo1
  2624 ;;		_demo2
  2625 ;;		_demo3
  2626 ;;		_initialize_lcd_screen
  2627 ;;		_initialize_light
  2628 ;;		_initialize_temp
  2629 ;;		_printf
  2630 ;;		_read
  2631 ;;		_read@temp_sensor$F420
  2632 ;; This function is called by:
  2633 ;;		Startup code after reset
  2634 ;; This function uses a non-reentrant model
  2635 ;;
  2636                           
  2637                           
  2638                           ;psect for function _main
  2639  0027                     _main:
  2640  0027                     l3755:	
  2641                           ;incstack = 0
  2642                           ; Regs used in _main: [wreg-fsr1h+status,2+status,0+pclath+cstack]
  2643                           
  2644                           
  2645                           ;main.c: 58:   SYSTEM_Initialize();
  2646  0027  3191  21B5  3180   	fcall	_SYSTEM_Initialize
  2647  002A                     l3757:
  2648                           
  2649                           ;main.c: 60:   sensor light_sensor;;main.c: 61:   sensor temp_sensor;;main.c: 62:   lcd_
      +                          screen lcd_screen;;main.c: 63:   led led;;main.c: 65:   initialize_light(&light_sensor);
  2650  002A  3028               	movlw	(low (main@light_sensor| (0+256)))& (0+255)
  2651  002B  3192  2246  3180   	fcall	_initialize_light
  2652  002E                     l3759:
  2653                           
  2654                           ;main.c: 66:   initialize_temp(&temp_sensor);
  2655  002E  302E               	movlw	(low (main@temp_sensor| (0+256)))& (0+255)
  2656  002F  3192  2262  3180   	fcall	_initialize_temp
  2657  0032                     l3761:
  2658                           
  2659                           ;main.c: 67:   initialize_lcd_screen(&lcd_screen);
  2660  0032  3034               	movlw	(low (main@lcd_screen| (0+256)))& (0+255)
  2661  0033  3192  222A  3180   	fcall	_initialize_lcd_screen
  2662  0036                     l3763:
  2663                           
  2664                           ;main.c: 69:   lcd_screen.demo1();
  2665  0036  0022               	movlb	2	; select bank2
  2666  0037  0835               	movf	(main@lcd_screen+1)^(0+256),w
  2667  0038  008A               	movwf	10
  2668  0039  0834               	movf	main@lcd_screen^(0+256),w
  2669  003A  000A               	callw
  2670  003B  3180               	pagesel	$
  2671  003C                     l3765:
  2672                           
  2673                           ;main.c: 70:   lcd_screen.demo2();
  2674  003C  3002               	movlw	2
  2675  003D  3E34               	addlw	(low (main@lcd_screen| (0+256)))& (0+255)
  2676  003E  0086               	movwf	6
  2677  003F  3001               	movlw	1	; select bank2/3
  2678  0040  0087               	movwf	7
  2679  0041  3F41               	moviw [1]fsr1
  2680  0042  008A               	movwf	10
  2681  0043  3F40               	moviw [0]fsr1
  2682  0044  000A               	callw
  2683  0045  3180               	pagesel	$
  2684  0046                     l3767:
  2685                           
  2686                           ;main.c: 71:   lcd_screen.demo3();
  2687  0046  3004               	movlw	4
  2688  0047  3E34               	addlw	(low (main@lcd_screen| (0+256)))& (0+255)
  2689  0048  0086               	movwf	6
  2690  0049  3001               	movlw	1	; select bank2/3
  2691  004A  0087               	movwf	7
  2692  004B  3F41               	moviw [1]fsr1
  2693  004C  008A               	movwf	10
  2694  004D  3F40               	moviw [0]fsr1
  2695  004E  000A               	callw
  2696  004F  3180               	pagesel	$
  2697  0050                     l3769:
  2698                           
  2699                           ;main.c: 89:   {;main.c: 90:     float light_value = light_sensor.read();
  2700  0050  3002               	movlw	2
  2701  0051  3E28               	addlw	(low (main@light_sensor| (0+256)))& (0+255)
  2702  0052  0086               	movwf	6
  2703  0053  3001               	movlw	1	; select bank2/3
  2704  0054  0087               	movwf	7
  2705  0055  3F41               	moviw [1]fsr1
  2706  0056  008A               	movwf	10
  2707  0057  3F40               	moviw [0]fsr1
  2708  0058  000A               	callw
  2709  0059  3180               	pagesel	$
  2710  005A  0021               	movlb	1	; select bank1
  2711  005B  085C               	movf	(?_read@temp_sensor$F420+3)^(0+128),w
  2712  005C  0022               	movlb	2	; select bank2
  2713  005D  00A3               	movwf	(main@light_value+3)^(0+256)
  2714  005E  0021               	movlb	1	; select bank1
  2715  005F  085B               	movf	(?_read@temp_sensor$F420+2)^(0+128),w
  2716  0060  0022               	movlb	2	; select bank2
  2717  0061  00A2               	movwf	(main@light_value+2)^(0+256)
  2718  0062  0021               	movlb	1	; select bank1
  2719  0063  085A               	movf	(?_read@temp_sensor$F420+1)^(0+128),w
  2720  0064  0022               	movlb	2	; select bank2
  2721  0065  00A1               	movwf	(main@light_value+1)^(0+256)
  2722  0066  0021               	movlb	1	; select bank1
  2723  0067  0859               	movf	?_read@temp_sensor$F420^(0+128),w
  2724  0068  0022               	movlb	2	; select bank2
  2725  0069  00A0               	movwf	main@light_value^(0+256)
  2726  006A                     l3771:
  2727                           
  2728                           ;main.c: 91:     float temp_value = temp_sensor.read();
  2729  006A  3002               	movlw	2
  2730  006B  3E2E               	addlw	(low (main@temp_sensor| (0+256)))& (0+255)
  2731  006C  0086               	movwf	6
  2732  006D  3001               	movlw	1	; select bank2/3
  2733  006E  0087               	movwf	7
  2734  006F  3F41               	moviw [1]fsr1
  2735  0070  008A               	movwf	10
  2736  0071  3F40               	moviw [0]fsr1
  2737  0072  000A               	callw
  2738  0073  3180               	pagesel	$
  2739  0074  0021               	movlb	1	; select bank1
  2740  0075  085C               	movf	(?_read@temp_sensor$F420+3)^(0+128),w
  2741  0076  0022               	movlb	2	; select bank2
  2742  0077  00A7               	movwf	(main@temp_value+3)^(0+256)
  2743  0078  0021               	movlb	1	; select bank1
  2744  0079  085B               	movf	(?_read@temp_sensor$F420+2)^(0+128),w
  2745  007A  0022               	movlb	2	; select bank2
  2746  007B  00A6               	movwf	(main@temp_value+2)^(0+256)
  2747  007C  0021               	movlb	1	; select bank1
  2748  007D  085A               	movf	(?_read@temp_sensor$F420+1)^(0+128),w
  2749  007E  0022               	movlb	2	; select bank2
  2750  007F  00A5               	movwf	(main@temp_value+1)^(0+256)
  2751  0080  0021               	movlb	1	; select bank1
  2752  0081  0859               	movf	?_read@temp_sensor$F420^(0+128),w
  2753  0082  0022               	movlb	2	; select bank2
  2754  0083  00A4               	movwf	main@temp_value^(0+256)
  2755  0084                     l3773:
  2756                           
  2757                           ;main.c: 93:     printf("Light sensor value: %f\n", light_value);
  2758  0084  303B               	movlw	low (STR_1| (0+32768))
  2759  0085  0020               	movlb	0	; select bank0
  2760  0086  00E5               	movwf	printf@fmt
  2761  0087  3098               	movlw	high (STR_1| (0+32768))
  2762  0088  00E6               	movwf	printf@fmt+1
  2763  0089  0022               	movlb	2	; select bank2
  2764  008A  0823               	movf	(main@light_value+3)^(0+256),w
  2765  008B  0020               	movlb	0	; select bank0
  2766  008C  00EA               	movwf	?_printf+5
  2767  008D  0022               	movlb	2	; select bank2
  2768  008E  0822               	movf	(main@light_value+2)^(0+256),w
  2769  008F  0020               	movlb	0	; select bank0
  2770  0090  00E9               	movwf	?_printf+4
  2771  0091  0022               	movlb	2	; select bank2
  2772  0092  0821               	movf	(main@light_value+1)^(0+256),w
  2773  0093  0020               	movlb	0	; select bank0
  2774  0094  00E8               	movwf	?_printf+3
  2775  0095  0022               	movlb	2	; select bank2
  2776  0096  0820               	movf	main@light_value^(0+256),w
  2777  0097  0020               	movlb	0	; select bank0
  2778  0098  00E7               	movwf	?_printf+2
  2779  0099  3191  21C2  3180   	fcall	_printf
  2780  009C                     l3775:
  2781                           
  2782                           ;main.c: 94:     printf("Temperature sensor value: %f\n", temp_value);
  2783  009C  3000               	movlw	low (STR_2| (0+32768))
  2784  009D  0020               	movlb	0	; select bank0
  2785  009E  00E5               	movwf	printf@fmt
  2786  009F  3098               	movlw	high (STR_2| (0+32768))
  2787  00A0  00E6               	movwf	printf@fmt+1
  2788  00A1  0022               	movlb	2	; select bank2
  2789  00A2  0827               	movf	(main@temp_value+3)^(0+256),w
  2790  00A3  0020               	movlb	0	; select bank0
  2791  00A4  00EA               	movwf	?_printf+5
  2792  00A5  0022               	movlb	2	; select bank2
  2793  00A6  0826               	movf	(main@temp_value+2)^(0+256),w
  2794  00A7  0020               	movlb	0	; select bank0
  2795  00A8  00E9               	movwf	?_printf+4
  2796  00A9  0022               	movlb	2	; select bank2
  2797  00AA  0825               	movf	(main@temp_value+1)^(0+256),w
  2798  00AB  0020               	movlb	0	; select bank0
  2799  00AC  00E8               	movwf	?_printf+3
  2800  00AD  0022               	movlb	2	; select bank2
  2801  00AE  0824               	movf	main@temp_value^(0+256),w
  2802  00AF  0020               	movlb	0	; select bank0
  2803  00B0  00E7               	movwf	?_printf+2
  2804  00B1  3191  21C2  3180   	fcall	_printf
  2805  00B4  2850               	goto	l3769
  2806  00B5  3180  2802         	ljmp	start
  2807  00B7                     __end_of_main:
  2808                           
  2809                           	psect	text1
  2810  11E6                     __ptext1:	
  2811 ;; *************** function _read *****************
  2812 ;; Defined at:
  2813 ;;		line 22 in file "light_sensor.c"
  2814 ;; Parameters:    Size  Location     Type
  2815 ;;		None
  2816 ;; Auto vars:     Size  Location     Type
  2817 ;;		None
  2818 ;; Return value:  Size  Location     Type
  2819 ;;                  4   57[BANK1 ] float 
  2820 ;; Registers used:
  2821 ;;		wreg, fsr0l, fsr0h, fsr1l, fsr1h, status,2, status,0, pclath, cstack
  2822 ;; Tracked objects:
  2823 ;;		On entry : 0/0
  2824 ;;		On exit  : 0/0
  2825 ;;		Unchanged: 0/0
  2826 ;; Data sizes:     COMMON   BANK0   BANK1   BANK2   BANK3   BANK4   BANK5   BANK6   BANK7   BANK8   BANK9  BANK10  BANK1
      +1  BANK12
  2827 ;;      Params:         0       0       4       0       0       0       0       0       0       0       0       0       
      +0       0
  2828 ;;      Locals:         0       0       0       0       0       0       0       0       0       0       0       0       
      +0       0
  2829 ;;      Temps:          0       0       0       0       0       0       0       0       0       0       0       0       
      +0       0
  2830 ;;      Totals:         0       0       4       0       0       0       0       0       0       0       0       0       
      +0       0
  2831 ;;Total ram usage:        4 bytes
  2832 ;; Hardware stack levels used:    1
  2833 ;; Hardware stack levels required when called:    9
  2834 ;; This function calls:
  2835 ;;		_printf
  2836 ;; This function is called by:
  2837 ;;		_initialize_light
  2838 ;;		_main
  2839 ;; This function uses a non-reentrant model
  2840 ;;
  2841                           
  2842                           
  2843                           ;psect for function _read
  2844  11E6                     _read:
  2845  11E6                     l3733:	
  2846                           ;incstack = 0
  2847                           ; Regs used in _read: [wreg-fsr1h+status,2+status,0+pclath+cstack]
  2848                           
  2849                           
  2850                           ;light_sensor.c: 24:   printf("Reading light sensor\n");
  2851  11E6  307F               	movlw	low (STR_4| (0+32768))
  2852  11E7  0020               	movlb	0	; select bank0
  2853  11E8  00E5               	movwf	printf@fmt
  2854  11E9  3098               	movlw	high (STR_4| (0+32768))
  2855  11EA  00E6               	movwf	printf@fmt+1
  2856  11EB  3191  21C2  3191   	fcall	_printf
  2857  11EE                     l3735:
  2858                           
  2859                           ;light_sensor.c: 25:   return 2.2;
  2860  11EE  3040               	movlw	64
  2861  11EF  0021               	movlb	1	; select bank1
  2862  11F0  00DC               	movwf	(?_read+3)^(0+128)
  2863  11F1  300C               	movlw	12
  2864  11F2  00DB               	movwf	(?_read+2)^(0+128)
  2865  11F3  30CC               	movlw	204
  2866  11F4  00DA               	movwf	(?_read+1)^(0+128)
  2867  11F5  30CD               	movlw	205
  2868  11F6  00D9               	movwf	?_read^(0+128)
  2869  11F7                     l227:
  2870  11F7  0008               	return
  2871  11F8                     __end_of_read:
  2872                           
  2873                           	psect	text2
  2874  11D4                     __ptext2:	
  2875 ;; *************** function _read@temp_sensor$F420 *****************
  2876 ;; Defined at:
  2877 ;;		line 29 in file "temp_sensor.c"
  2878 ;; Parameters:    Size  Location     Type
  2879 ;;		None
  2880 ;; Auto vars:     Size  Location     Type
  2881 ;;		None
  2882 ;; Return value:  Size  Location     Type
  2883 ;;                  4   57[BANK1 ] float 
  2884 ;; Registers used:
  2885 ;;		wreg, fsr0l, fsr0h, fsr1l, fsr1h, status,2, status,0, pclath, cstack
  2886 ;; Tracked objects:
  2887 ;;		On entry : 0/0
  2888 ;;		On exit  : 0/0
  2889 ;;		Unchanged: 0/0
  2890 ;; Data sizes:     COMMON   BANK0   BANK1   BANK2   BANK3   BANK4   BANK5   BANK6   BANK7   BANK8   BANK9  BANK10  BANK1
      +1  BANK12
  2891 ;;      Params:         0       0       4       0       0       0       0       0       0       0       0       0       
      +0       0
  2892 ;;      Locals:         0       0       0       0       0       0       0       0       0       0       0       0       
      +0       0
  2893 ;;      Temps:          0       0       0       0       0       0       0       0       0       0       0       0       
      +0       0
  2894 ;;      Totals:         0       0       4       0       0       0       0       0       0       0       0       0       
      +0       0
  2895 ;;Total ram usage:        4 bytes
  2896 ;; Hardware stack levels used:    1
  2897 ;; Hardware stack levels required when called:    9
  2898 ;; This function calls:
  2899 ;;		_printf
  2900 ;; This function is called by:
  2901 ;;		_initialize_temp
  2902 ;;		_main
  2903 ;; This function uses a non-reentrant model
  2904 ;;
  2905                           
  2906                           
  2907                           ;psect for function _read@temp_sensor$F420
  2908  11D4                     _read@temp_sensor$F420:
  2909  11D4                     l3739:	
  2910                           ;incstack = 0
  2911                           ; Regs used in _read@temp_sensor$F420: [wreg-fsr1h+status,2+status,0+pclath+cstack]
  2912                           
  2913                           
  2914                           ;temp_sensor.c: 31:   printf("Reading temp sensor\n");
  2915  11D4  30BF               	movlw	low (STR_8| (0+32768))
  2916  11D5  0020               	movlb	0	; select bank0
  2917  11D6  00E5               	movwf	printf@fmt
  2918  11D7  3098               	movlw	high (STR_8| (0+32768))
  2919  11D8  00E6               	movwf	printf@fmt+1
  2920  11D9  3191  21C2  3191   	fcall	_printf
  2921  11DC                     l3741:
  2922                           
  2923                           ;temp_sensor.c: 32:   return 4.4;
  2924  11DC  3040               	movlw	64
  2925  11DD  0021               	movlb	1	; select bank1
  2926  11DE  00DC               	movwf	(?_read@temp_sensor$F420+3)^(0+128)
  2927  11DF  308C               	movlw	140
  2928  11E0  00DB               	movwf	(?_read@temp_sensor$F420+2)^(0+128)
  2929  11E1  30CC               	movlw	204
  2930  11E2  00DA               	movwf	(?_read@temp_sensor$F420+1)^(0+128)
  2931  11E3  30CD               	movlw	205
  2932  11E4  00D9               	movwf	?_read@temp_sensor$F420^(0+128)
  2933  11E5                     l242:
  2934  11E5  0008               	return
  2935  11E6                     __end_of_read@temp_sensor$F420:
  2936                           
  2937                           	psect	text3
  2938  1262                     __ptext3:	
  2939 ;; *************** function _initialize_temp *****************
  2940 ;; Defined at:
  2941 ;;		line 40 in file "temp_sensor.c"
  2942 ;; Parameters:    Size  Location     Type
  2943 ;;  sensor_var      1    wreg     PTR struct sensor
  2944 ;;		 -> main@temp_sensor(6), 
  2945 ;; Auto vars:     Size  Location     Type
  2946 ;;  sensor_var      1    0[COMMON] PTR struct sensor
  2947 ;;		 -> main@temp_sensor(6), 
  2948 ;; Return value:  Size  Location     Type
  2949 ;;                  1    wreg      void 
  2950 ;; Registers used:
  2951 ;;		wreg, fsr1l, fsr1h, status,2, status,0
  2952 ;; Tracked objects:
  2953 ;;		On entry : 0/0
  2954 ;;		On exit  : 0/0
  2955 ;;		Unchanged: 0/0
  2956 ;; Data sizes:     COMMON   BANK0   BANK1   BANK2   BANK3   BANK4   BANK5   BANK6   BANK7   BANK8   BANK9  BANK10  BANK1
      +1  BANK12
  2957 ;;      Params:         0       0       0       0       0       0       0       0       0       0       0       0       
      +0       0
  2958 ;;      Locals:         1       0       0       0       0       0       0       0       0       0       0       0       
      +0       0
  2959 ;;      Temps:          0       0       0       0       0       0       0       0       0       0       0       0       
      +0       0
  2960 ;;      Totals:         1       0       0       0       0       0       0       0       0       0       0       0       
      +0       0
  2961 ;;Total ram usage:        1 bytes
  2962 ;; Hardware stack levels used:    1
  2963 ;; This function calls:
  2964 ;;		Nothing
  2965 ;; This function is called by:
  2966 ;;		_main
  2967 ;; This function uses a non-reentrant model
  2968 ;;
  2969                           
  2970                           
  2971                           ;psect for function _initialize_temp
  2972  1262                     _initialize_temp:
  2973                           
  2974                           ;incstack = 0
  2975                           ; Regs used in _initialize_temp: [wreg+fsr1l+fsr1h+status,2+status,0]
  2976                           ;initialize_temp@sensor_var stored from wreg
  2977  1262  00F0               	movwf	initialize_temp@sensor_var
  2978  1263                     l3729:
  2979                           
  2980                           ;temp_sensor.c: 40: void initialize_temp(sensor *sensor_var);temp_sensor.c: 41: {;temp_s
      +                          ensor.c: 42:   sensor_var->open = open;
  2981  1263  0870               	movf	initialize_temp@sensor_var,w
  2982  1264  0086               	movwf	6
  2983  1265  3001               	movlw	1	; select bank2/3
  2984  1266  0087               	movwf	7
  2985  1267  3000               	movlw	0
  2986  1268  3FC0               	movwi [0]fsr1
  2987  1269  3000               	movlw	0
  2988  126A  3FC1               	movwi [1]fsr1
  2989                           
  2990                           ;temp_sensor.c: 43:   sensor_var->read = read;
  2991  126B  0870               	movf	initialize_temp@sensor_var,w
  2992  126C  3E02               	addlw	2
  2993  126D  0086               	movwf	6
  2994  126E  3001               	movlw	1	; select bank2/3
  2995  126F  0087               	movwf	7
  2996  1270  30D4               	movlw	low _read@temp_sensor$F420
  2997  1271  3FC0               	movwi [0]fsr1
  2998  1272  3011               	movlw	high _read@temp_sensor$F420
  2999  1273  3FC1               	movwi [1]fsr1
  3000                           
  3001                           ;temp_sensor.c: 44:   sensor_var->close = close;
  3002  1274  0870               	movf	initialize_temp@sensor_var,w
  3003  1275  3E04               	addlw	4
  3004  1276  0086               	movwf	6
  3005  1277  3001               	movlw	1	; select bank2/3
  3006  1278  0087               	movwf	7
  3007  1279  3000               	movlw	0
  3008  127A  3FC0               	movwi [0]fsr1
  3009  127B  3000               	movlw	0
  3010  127C  3FC1               	movwi [1]fsr1
  3011  127D                     l248:
  3012  127D  0008               	return
  3013  127E                     __end_of_initialize_temp:
  3014                           
  3015                           	psect	text4
  3016  1246                     __ptext4:	
  3017 ;; *************** function _initialize_light *****************
  3018 ;; Defined at:
  3019 ;;		line 33 in file "light_sensor.c"
  3020 ;; Parameters:    Size  Location     Type
  3021 ;;  sensor_var      1    wreg     PTR struct sensor
  3022 ;;		 -> main@light_sensor(6), 
  3023 ;; Auto vars:     Size  Location     Type
  3024 ;;  sensor_var      1    0[COMMON] PTR struct sensor
  3025 ;;		 -> main@light_sensor(6), 
  3026 ;; Return value:  Size  Location     Type
  3027 ;;                  1    wreg      void 
  3028 ;; Registers used:
  3029 ;;		wreg, fsr1l, fsr1h, status,2, status,0
  3030 ;; Tracked objects:
  3031 ;;		On entry : 0/0
  3032 ;;		On exit  : 0/0
  3033 ;;		Unchanged: 0/0
  3034 ;; Data sizes:     COMMON   BANK0   BANK1   BANK2   BANK3   BANK4   BANK5   BANK6   BANK7   BANK8   BANK9  BANK10  BANK1
      +1  BANK12
  3035 ;;      Params:         0       0       0       0       0       0       0       0       0       0       0       0       
      +0       0
  3036 ;;      Locals:         1       0       0       0       0       0       0       0       0       0       0       0       
      +0       0
  3037 ;;      Temps:          0       0       0       0       0       0       0       0       0       0       0       0       
      +0       0
  3038 ;;      Totals:         1       0       0       0       0       0       0       0       0       0       0       0       
      +0       0
  3039 ;;Total ram usage:        1 bytes
  3040 ;; Hardware stack levels used:    1
  3041 ;; This function calls:
  3042 ;;		Nothing
  3043 ;; This function is called by:
  3044 ;;		_main
  3045 ;; This function uses a non-reentrant model
  3046 ;;
  3047                           
  3048                           
  3049                           ;psect for function _initialize_light
  3050  1246                     _initialize_light:
  3051                           
  3052                           ;incstack = 0
  3053                           ; Regs used in _initialize_light: [wreg+fsr1l+fsr1h+status,2+status,0]
  3054                           ;initialize_light@sensor_var stored from wreg
  3055  1246  00F0               	movwf	initialize_light@sensor_var
  3056  1247                     l3727:
  3057                           
  3058                           ;light_sensor.c: 33: void initialize_light(sensor *sensor_var);light_sensor.c: 34: {;lig
      +                          ht_sensor.c: 35:   sensor_var->open = open;
  3059  1247  0870               	movf	initialize_light@sensor_var,w
  3060  1248  0086               	movwf	6
  3061  1249  3001               	movlw	1	; select bank2/3
  3062  124A  0087               	movwf	7
  3063  124B  3000               	movlw	0
  3064  124C  3FC0               	movwi [0]fsr1
  3065  124D  3000               	movlw	0
  3066  124E  3FC1               	movwi [1]fsr1
  3067                           
  3068                           ;light_sensor.c: 36:   sensor_var->read = read;
  3069  124F  0870               	movf	initialize_light@sensor_var,w
  3070  1250  3E02               	addlw	2
  3071  1251  0086               	movwf	6
  3072  1252  3001               	movlw	1	; select bank2/3
  3073  1253  0087               	movwf	7
  3074  1254  30E6               	movlw	low _read
  3075  1255  3FC0               	movwi [0]fsr1
  3076  1256  3011               	movlw	high _read
  3077  1257  3FC1               	movwi [1]fsr1
  3078                           
  3079                           ;light_sensor.c: 37:   sensor_var->close = close;
  3080  1258  0870               	movf	initialize_light@sensor_var,w
  3081  1259  3E04               	addlw	4
  3082  125A  0086               	movwf	6
  3083  125B  3001               	movlw	1	; select bank2/3
  3084  125C  0087               	movwf	7
  3085  125D  3000               	movlw	0
  3086  125E  3FC0               	movwi [0]fsr1
  3087  125F  3000               	movlw	0
  3088  1260  3FC1               	movwi [1]fsr1
  3089  1261                     l233:
  3090  1261  0008               	return
  3091  1262                     __end_of_initialize_light:
  3092                           
  3093                           	psect	text5
  3094  122A                     __ptext5:	
  3095 ;; *************** function _initialize_lcd_screen *****************
  3096 ;; Defined at:
  3097 ;;		line 31 in file "lcd_screen.c"
  3098 ;; Parameters:    Size  Location     Type
  3099 ;;  lcd_screen_v    1    wreg     PTR struct lcd_screen
  3100 ;;		 -> main@lcd_screen(6), 
  3101 ;; Auto vars:     Size  Location     Type
  3102 ;;  lcd_screen_v    1    0[COMMON] PTR struct lcd_screen
  3103 ;;		 -> main@lcd_screen(6), 
  3104 ;; Return value:  Size  Location     Type
  3105 ;;                  1    wreg      void 
  3106 ;; Registers used:
  3107 ;;		wreg, fsr1l, fsr1h, status,2, status,0
  3108 ;; Tracked objects:
  3109 ;;		On entry : 0/0
  3110 ;;		On exit  : 0/0
  3111 ;;		Unchanged: 0/0
  3112 ;; Data sizes:     COMMON   BANK0   BANK1   BANK2   BANK3   BANK4   BANK5   BANK6   BANK7   BANK8   BANK9  BANK10  BANK1
      +1  BANK12
  3113 ;;      Params:         0       0       0       0       0       0       0       0       0       0       0       0       
      +0       0
  3114 ;;      Locals:         1       0       0       0       0       0       0       0       0       0       0       0       
      +0       0
  3115 ;;      Temps:          0       0       0       0       0       0       0       0       0       0       0       0       
      +0       0
  3116 ;;      Totals:         1       0       0       0       0       0       0       0       0       0       0       0       
      +0       0
  3117 ;;Total ram usage:        1 bytes
  3118 ;; Hardware stack levels used:    1
  3119 ;; This function calls:
  3120 ;;		Nothing
  3121 ;; This function is called by:
  3122 ;;		_main
  3123 ;; This function uses a non-reentrant model
  3124 ;;
  3125                           
  3126                           
  3127                           ;psect for function _initialize_lcd_screen
  3128  122A                     _initialize_lcd_screen:
  3129                           
  3130                           ;incstack = 0
  3131                           ; Regs used in _initialize_lcd_screen: [wreg+fsr1l+fsr1h+status,2+status,0]
  3132                           ;initialize_lcd_screen@lcd_screen_var stored from wreg
  3133  122A  00F0               	movwf	initialize_lcd_screen@lcd_screen_var
  3134  122B                     l3731:
  3135                           
  3136                           ;lcd_screen.c: 31: void initialize_lcd_screen(lcd_screen *lcd_screen_var);lcd_screen.c: 
      +                          32: {;lcd_screen.c: 33:   lcd_screen_var->demo1 = demo1;
  3137  122B  0870               	movf	initialize_lcd_screen@lcd_screen_var,w
  3138  122C  0086               	movwf	6
  3139  122D  3001               	movlw	1	; select bank2/3
  3140  122E  0087               	movwf	7
  3141  122F  308E               	movlw	low _demo1
  3142  1230  3FC0               	movwi [0]fsr1
  3143  1231  3011               	movlw	high _demo1
  3144  1232  3FC1               	movwi [1]fsr1
  3145                           
  3146                           ;lcd_screen.c: 34:   lcd_screen_var->demo2 = demo2;
  3147  1233  0870               	movf	initialize_lcd_screen@lcd_screen_var,w
  3148  1234  3E02               	addlw	2
  3149  1235  0086               	movwf	6
  3150  1236  3001               	movlw	1	; select bank2/3
  3151  1237  0087               	movwf	7
  3152  1238  3097               	movlw	low _demo2
  3153  1239  3FC0               	movwi [0]fsr1
  3154  123A  3011               	movlw	high _demo2
  3155  123B  3FC1               	movwi [1]fsr1
  3156                           
  3157                           ;lcd_screen.c: 35:   lcd_screen_var->demo3 = demo3;
  3158  123C  0870               	movf	initialize_lcd_screen@lcd_screen_var,w
  3159  123D  3E04               	addlw	4
  3160  123E  0086               	movwf	6
  3161  123F  3001               	movlw	1	; select bank2/3
  3162  1240  0087               	movwf	7
  3163  1241  3000               	movlw	low _demo3
  3164  1242  3FC0               	movwi [0]fsr1
  3165  1243  3008               	movlw	high _demo3
  3166  1244  3FC1               	movwi [1]fsr1
  3167  1245                     l262:
  3168  1245  0008               	return
  3169  1246                     __end_of_initialize_lcd_screen:
  3170                           
  3171                           	psect	text6
  3172  0800                     __ptext6:	
  3173 ;; *************** function _demo3 *****************
  3174 ;; Defined at:
  3175 ;;		line 26 in file "lcd_screen.c"
  3176 ;; Parameters:    Size  Location     Type
  3177 ;;		None
  3178 ;; Auto vars:     Size  Location     Type
  3179 ;;		None
  3180 ;; Return value:  Size  Location     Type
  3181 ;;                  1    wreg      void 
  3182 ;; Registers used:
  3183 ;;		wreg, fsr0l, fsr0h, fsr1l, fsr1h, status,2, status,0, pclath, cstack
  3184 ;; Tracked objects:
  3185 ;;		On entry : 0/0
  3186 ;;		On exit  : 0/0
  3187 ;;		Unchanged: 0/0
  3188 ;; Data sizes:     COMMON   BANK0   BANK1   BANK2   BANK3   BANK4   BANK5   BANK6   BANK7   BANK8   BANK9  BANK10  BANK1
      +1  BANK12
  3189 ;;      Params:         0       0       0       0       0       0       0       0       0       0       0       0       
      +0       0
  3190 ;;      Locals:         0       0       0       0       0       0       0       0       0       0       0       0       
      +0       0
  3191 ;;      Temps:          0       0       0       0       0       0       0       0       0       0       0       0       
      +0       0
  3192 ;;      Totals:         0       0       0       0       0       0       0       0       0       0       0       0       
      +0       0
  3193 ;;Total ram usage:        0 bytes
  3194 ;; Hardware stack levels used:    1
  3195 ;; Hardware stack levels required when called:    9
  3196 ;; This function calls:
  3197 ;;		_printf
  3198 ;; This function is called by:
  3199 ;;		_initialize_lcd_screen
  3200 ;;		_main
  3201 ;; This function uses a non-reentrant model
  3202 ;;
  3203                           
  3204                           
  3205                           ;psect for function _demo3
  3206  0800                     _demo3:
  3207  0800                     l3749:	
  3208                           ;incstack = 0
  3209                           ; Regs used in _demo3: [wreg-fsr1h+status,2+status,0+pclath+cstack]
  3210                           
  3211                           
  3212                           ;lcd_screen.c: 28:   printf("Demo 3!\n");
  3213  0800  30E6               	movlw	low (STR_12| (0+32768))
  3214  0801  0020               	movlb	0	; select bank0
  3215  0802  00E5               	movwf	printf@fmt
  3216  0803  3098               	movlw	high (STR_12| (0+32768))
  3217  0804  00E6               	movwf	printf@fmt+1
  3218  0805  3191  21C2  3188   	fcall	_printf
  3219  0808                     l259:
  3220  0808  0008               	return
  3221  0809                     __end_of_demo3:
  3222                           
  3223                           	psect	text7
  3224  1197                     __ptext7:	
  3225 ;; *************** function _demo2 *****************
  3226 ;; Defined at:
  3227 ;;		line 21 in file "lcd_screen.c"
  3228 ;; Parameters:    Size  Location     Type
  3229 ;;		None
  3230 ;; Auto vars:     Size  Location     Type
  3231 ;;		None
  3232 ;; Return value:  Size  Location     Type
  3233 ;;                  1    wreg      void 
  3234 ;; Registers used:
  3235 ;;		wreg, fsr0l, fsr0h, fsr1l, fsr1h, status,2, status,0, pclath, cstack
  3236 ;; Tracked objects:
  3237 ;;		On entry : 0/0
  3238 ;;		On exit  : 0/0
  3239 ;;		Unchanged: 0/0
  3240 ;; Data sizes:     COMMON   BANK0   BANK1   BANK2   BANK3   BANK4   BANK5   BANK6   BANK7   BANK8   BANK9  BANK10  BANK1
      +1  BANK12
  3241 ;;      Params:         0       0       0       0       0       0       0       0       0       0       0       0       
      +0       0
  3242 ;;      Locals:         0       0       0       0       0       0       0       0       0       0       0       0       
      +0       0
  3243 ;;      Temps:          0       0       0       0       0       0       0       0       0       0       0       0       
      +0       0
  3244 ;;      Totals:         0       0       0       0       0       0       0       0       0       0       0       0       
      +0       0
  3245 ;;Total ram usage:        0 bytes
  3246 ;; Hardware stack levels used:    1
  3247 ;; Hardware stack levels required when called:    9
  3248 ;; This function calls:
  3249 ;;		_printf
  3250 ;; This function is called by:
  3251 ;;		_initialize_lcd_screen
  3252 ;;		_main
  3253 ;; This function uses a non-reentrant model
  3254 ;;
  3255                           
  3256                           
  3257                           ;psect for function _demo2
  3258  1197                     _demo2:
  3259  1197                     l3747:	
  3260                           ;incstack = 0
  3261                           ; Regs used in _demo2: [wreg-fsr1h+status,2+status,0+pclath+cstack]
  3262                           
  3263                           
  3264                           ;lcd_screen.c: 23:   printf("Demo 2!\n");
  3265  1197  30DD               	movlw	low (STR_11| (0+32768))
  3266  1198  0020               	movlb	0	; select bank0
  3267  1199  00E5               	movwf	printf@fmt
  3268  119A  3098               	movlw	high (STR_11| (0+32768))
  3269  119B  00E6               	movwf	printf@fmt+1
  3270  119C  3191  21C2  3191   	fcall	_printf
  3271  119F                     l256:
  3272  119F  0008               	return
  3273  11A0                     __end_of_demo2:
  3274                           
  3275                           	psect	text8
  3276  118E                     __ptext8:	
  3277 ;; *************** function _demo1 *****************
  3278 ;; Defined at:
  3279 ;;		line 16 in file "lcd_screen.c"
  3280 ;; Parameters:    Size  Location     Type
  3281 ;;		None
  3282 ;; Auto vars:     Size  Location     Type
  3283 ;;		None
  3284 ;; Return value:  Size  Location     Type
  3285 ;;                  1    wreg      void 
  3286 ;; Registers used:
  3287 ;;		wreg, fsr0l, fsr0h, fsr1l, fsr1h, status,2, status,0, pclath, cstack
  3288 ;; Tracked objects:
  3289 ;;		On entry : 0/0
  3290 ;;		On exit  : 0/0
  3291 ;;		Unchanged: 0/0
  3292 ;; Data sizes:     COMMON   BANK0   BANK1   BANK2   BANK3   BANK4   BANK5   BANK6   BANK7   BANK8   BANK9  BANK10  BANK1
      +1  BANK12
  3293 ;;      Params:         0       0       0       0       0       0       0       0       0       0       0       0       
      +0       0
  3294 ;;      Locals:         0       0       0       0       0       0       0       0       0       0       0       0       
      +0       0
  3295 ;;      Temps:          0       0       0       0       0       0       0       0       0       0       0       0       
      +0       0
  3296 ;;      Totals:         0       0       0       0       0       0       0       0       0       0       0       0       
      +0       0
  3297 ;;Total ram usage:        0 bytes
  3298 ;; Hardware stack levels used:    1
  3299 ;; Hardware stack levels required when called:    9
  3300 ;; This function calls:
  3301 ;;		_printf
  3302 ;; This function is called by:
  3303 ;;		_initialize_lcd_screen
  3304 ;;		_main
  3305 ;; This function uses a non-reentrant model
  3306 ;;
  3307                           
  3308                           
  3309                           ;psect for function _demo1
  3310  118E                     _demo1:
  3311  118E                     l3745:	
  3312                           ;incstack = 0
  3313                           ; Regs used in _demo1: [wreg-fsr1h+status,2+status,0+pclath+cstack]
  3314                           
  3315                           
  3316                           ;lcd_screen.c: 18:   printf("Demo 1!\n");
  3317  118E  30D4               	movlw	low (STR_10| (0+32768))
  3318  118F  0020               	movlb	0	; select bank0
  3319  1190  00E5               	movwf	printf@fmt
  3320  1191  3098               	movlw	high (STR_10| (0+32768))
  3321  1192  00E6               	movwf	printf@fmt+1
  3322  1193  3191  21C2  3191   	fcall	_printf
  3323  1196                     l253:
  3324  1196  0008               	return
  3325  1197                     __end_of_demo1:
  3326                           
  3327                           	psect	text9
  3328  11C2                     __ptext9:	
  3329 ;; *************** function _printf *****************
  3330 ;; Defined at:
  3331 ;;		line 5 in file "C:\Program Files\Microchip\xc8\v2.31\pic\sources\c99\common\printf.c"
  3332 ;; Parameters:    Size  Location     Type
  3333 ;;  fmt             2   69[BANK0 ] PTR const unsigned char 
  3334 ;;		 -> STR_17(9), STR_16(9), STR_15(9), STR_14(9), 
  3335 ;;		 -> STR_13(9), STR_12(9), STR_11(9), STR_10(9), 
  3336 ;;		 -> STR_9(21), STR_8(21), STR_7(29), STR_6(21), 
  3337 ;;		 -> STR_5(22), STR_4(22), STR_3(22), STR_2(30), 
  3338 ;;		 -> STR_1(24), 
  3339 ;; Auto vars:     Size  Location     Type
  3340 ;;  ret             2    0        int 
  3341 ;;  ap              1   78[BANK0 ] PTR void [1]
  3342 ;;		 -> ?_printf(2), 
  3343 ;; Return value:  Size  Location     Type
  3344 ;;                  2   69[BANK0 ] int 
  3345 ;; Registers used:
  3346 ;;		wreg, fsr0l, fsr0h, fsr1l, fsr1h, status,2, status,0, pclath, cstack
  3347 ;; Tracked objects:
  3348 ;;		On entry : 0/0
  3349 ;;		On exit  : 0/0
  3350 ;;		Unchanged: 0/0
  3351 ;; Data sizes:     COMMON   BANK0   BANK1   BANK2   BANK3   BANK4   BANK5   BANK6   BANK7   BANK8   BANK9  BANK10  BANK1
      +1  BANK12
  3352 ;;      Params:         0       6       0       0       0       0       0       0       0       0       0       0       
      +0       0
  3353 ;;      Locals:         0       3       0       0       0       0       0       0       0       0       0       0       
      +0       0
  3354 ;;      Temps:          0       1       0       0       0       0       0       0       0       0       0       0       
      +0       0
  3355 ;;      Totals:         0      10       0       0       0       0       0       0       0       0       0       0       
      +0       0
  3356 ;;Total ram usage:       10 bytes
  3357 ;; Hardware stack levels used:    1
  3358 ;; Hardware stack levels required when called:    8
  3359 ;; This function calls:
  3360 ;;		_vfprintf
  3361 ;; This function is called by:
  3362 ;;		_main
  3363 ;;		_read
  3364 ;;		_read@temp_sensor$F420
  3365 ;;		_demo1
  3366 ;;		_demo2
  3367 ;;		_demo3
  3368 ;;		_open
  3369 ;;		_close
  3370 ;;		_open@temp_sensor$F416
  3371 ;;		_close@temp_sensor$F422
  3372 ;;		_turn_blue
  3373 ;;		_turn_green
  3374 ;;		_turn_red
  3375 ;;		_set_brightness
  3376 ;;		_set_color
  3377 ;; This function uses a non-reentrant model
  3378 ;;
  3379                           
  3380                           
  3381                           ;psect for function _printf
  3382  11C2                     _printf:
  3383  11C2                     l3707:	
  3384                           ;incstack = 0
  3385                           ; Regs used in _printf: [wreg-fsr1h+status,2+status,0+pclath+cstack]
  3386                           
  3387  11C2  3067               	movlw	(low ((?_printf| 0+2)))& (0+255)
  3388  11C3  0020               	movlb	0	; select bank0
  3389  11C4  00EB               	movwf	??_printf
  3390  11C5  086B               	movf	??_printf,w
  3391  11C6  00EE               	movwf	printf@ap
  3392  11C7                     l3709:
  3393  11C7  0866               	movf	printf@fmt+1,w
  3394  11C8  00DE               	movwf	vfprintf@fmt+1
  3395  11C9  0865               	movf	printf@fmt,w
  3396  11CA  00DD               	movwf	vfprintf@fmt
  3397  11CB  306E               	movlw	(low (printf@ap| 0))& (0+255)
  3398  11CC  00EB               	movwf	??_printf
  3399  11CD  086B               	movf	??_printf,w
  3400  11CE  00DF               	movwf	vfprintf@ap
  3401  11CF  3000               	movlw	0
  3402  11D0  3193  232F  3191   	fcall	_vfprintf
  3403  11D3                     l813:
  3404  11D3  0008               	return
  3405  11D4                     __end_of_printf:
  3406                           
  3407                           	psect	text10
  3408  132F                     __ptext10:	
  3409 ;; *************** function _vfprintf *****************
  3410 ;; Defined at:
  3411 ;;		line 1390 in file "C:\Program Files\Microchip\xc8\v2.31\pic\sources\c99\common\doprnt.c"
  3412 ;; Parameters:    Size  Location     Type
  3413 ;;  fp              1    wreg     PTR struct _IO_FILE
  3414 ;;		 -> NULL(0), 
  3415 ;;  fmt             2   61[BANK0 ] PTR const unsigned char 
  3416 ;;		 -> STR_17(9), STR_16(9), STR_15(9), STR_14(9), 
  3417 ;;		 -> STR_13(9), STR_12(9), STR_11(9), STR_10(9), 
  3418 ;;		 -> STR_9(21), STR_8(21), STR_7(29), STR_6(21), 
  3419 ;;		 -> STR_5(22), STR_4(22), STR_3(22), STR_2(30), 
  3420 ;;		 -> STR_1(24), 
  3421 ;;  ap              1   63[BANK0 ] PTR PTR void 
  3422 ;;		 -> printf@ap(1), 
  3423 ;; Auto vars:     Size  Location     Type
  3424 ;;  fp              1   66[BANK0 ] PTR struct _IO_FILE
  3425 ;;		 -> NULL(0), 
  3426 ;;  cfmt            2   67[BANK0 ] PTR unsigned char 
  3427 ;;		 -> STR_17(9), STR_16(9), STR_15(9), STR_14(9), 
  3428 ;;		 -> STR_13(9), STR_12(9), STR_11(9), STR_10(9), 
  3429 ;;		 -> STR_9(21), STR_8(21), STR_7(29), STR_6(21), 
  3430 ;;		 -> STR_5(22), STR_4(22), STR_3(22), STR_2(30), 
  3431 ;;		 -> STR_1(24), 
  3432 ;; Return value:  Size  Location     Type
  3433 ;;                  2   61[BANK0 ] int 
  3434 ;; Registers used:
  3435 ;;		wreg, fsr0l, fsr0h, fsr1l, fsr1h, status,2, status,0, pclath, cstack
  3436 ;; Tracked objects:
  3437 ;;		On entry : 0/0
  3438 ;;		On exit  : 0/0
  3439 ;;		Unchanged: 0/0
  3440 ;; Data sizes:     COMMON   BANK0   BANK1   BANK2   BANK3   BANK4   BANK5   BANK6   BANK7   BANK8   BANK9  BANK10  BANK1
      +1  BANK12
  3441 ;;      Params:         0       3       0       0       0       0       0       0       0       0       0       0       
      +0       0
  3442 ;;      Locals:         0       3       0       0       0       0       0       0       0       0       0       0       
      +0       0
  3443 ;;      Temps:          0       2       0       0       0       0       0       0       0       0       0       0       
      +0       0
  3444 ;;      Totals:         0       8       0       0       0       0       0       0       0       0       0       0       
      +0       0
  3445 ;;Total ram usage:        8 bytes
  3446 ;; Hardware stack levels used:    1
  3447 ;; Hardware stack levels required when called:    7
  3448 ;; This function calls:
  3449 ;;		_vfpfcnvrt
  3450 ;; This function is called by:
  3451 ;;		_printf
  3452 ;; This function uses a non-reentrant model
  3453 ;;
  3454                           
  3455                           
  3456                           ;psect for function _vfprintf
  3457  132F                     _vfprintf:
  3458                           
  3459                           ;incstack = 0
  3460                           ; Regs used in _vfprintf: [wreg-fsr1h+status,2+status,0+pclath+cstack]
  3461                           ;vfprintf@fp stored from wreg
  3462  132F  0020               	movlb	0	; select bank0
  3463  1330  00E2               	movwf	vfprintf@fp
  3464  1331                     l3627:
  3465                           
  3466                           ;C:\Program Files\Microchip\xc8\v2.31\pic\sources\c99\common\doprnt.c: 1390: int vfprint
      +                          f(FILE *fp, const char *fmt, va_list ap);C:\Program Files\Microchip\xc8\v2.31\pic\source
      +                          s\c99\common\doprnt.c: 1391: {;C:\Program Files\Microchip\xc8\v2.31\pic\sources\c99\comm
      +                          on\doprnt.c: 1393:     char *cfmt;;C:\Program Files\Microchip\xc8\v2.31\pic\sources\c99\
      +                          common\doprnt.c: 1395:     cfmt = (char *)fmt;
  3467  1331  085E               	movf	vfprintf@fmt+1,w
  3468  1332  00E4               	movwf	vfprintf@cfmt+1
  3469  1333  085D               	movf	vfprintf@fmt,w
  3470  1334  00E3               	movwf	vfprintf@cfmt
  3471  1335                     l3629:
  3472                           
  3473                           ;C:\Program Files\Microchip\xc8\v2.31\pic\sources\c99\common\doprnt.c: 1396:     nout = 
      +                          0;
  3474  1335  0021               	movlb	1	; select bank1
  3475  1336  01E5               	clrf	_nout^(0+128)
  3476  1337  01E6               	clrf	(_nout+1)^(0+128)
  3477                           
  3478                           ;C:\Program Files\Microchip\xc8\v2.31\pic\sources\c99\common\doprnt.c: 1397:     while (
      +                          *cfmt) {
  3479  1338  2B4D               	goto	l3633
  3480  1339                     l3631:
  3481                           
  3482                           ;C:\Program Files\Microchip\xc8\v2.31\pic\sources\c99\common\doprnt.c: 1398:         nou
      +                          t += vfpfcnvrt(fp, &cfmt, ap);
  3483  1339  3063               	movlw	(low (vfprintf@cfmt| 0))& (0+255)
  3484  133A  00E0               	movwf	??_vfprintf
  3485  133B  0860               	movf	??_vfprintf,w
  3486  133C  00CA               	movwf	vfpfcnvrt@fmt
  3487  133D  085F               	movf	vfprintf@ap,w
  3488  133E  00E1               	movwf	??_vfprintf+1
  3489  133F  0861               	movf	??_vfprintf+1,w
  3490  1340  00CB               	movwf	vfpfcnvrt@ap
  3491  1341  0862               	movf	vfprintf@fp,w
  3492  1342  3188  2009  3193   	fcall	_vfpfcnvrt
  3493  1345  0020               	movlb	0	; select bank0
  3494  1346  084A               	movf	?_vfpfcnvrt,w
  3495  1347  0021               	movlb	1	; select bank1
  3496  1348  07E5               	addwf	_nout^(0+128),f
  3497  1349  0020               	movlb	0	; select bank0
  3498  134A  084B               	movf	?_vfpfcnvrt+1,w
  3499  134B  0021               	movlb	1	; select bank1
  3500  134C  3DE6               	addwfc	(_nout+1)^(0+128),f
  3501  134D                     l3633:
  3502                           
  3503                           ;C:\Program Files\Microchip\xc8\v2.31\pic\sources\c99\common\doprnt.c: 1397:     while (
      +                          *cfmt) {
  3504  134D  0020               	movlb	0	; select bank0
  3505  134E  0863               	movf	vfprintf@cfmt,w
  3506  134F  0084               	movwf	4
  3507  1350  0864               	movf	vfprintf@cfmt+1,w
  3508  1351  0085               	movwf	5
  3509  1352  0012               	moviw fsr0++
  3510  1353  1D03               	btfss	3,2
  3511  1354  2B56               	goto	u4921
  3512  1355  2B57               	goto	u4920
  3513  1356                     u4921:
  3514  1356  2B39               	goto	l3631
  3515  1357                     u4920:
  3516  1357                     l3635:
  3517                           
  3518                           ;C:\Program Files\Microchip\xc8\v2.31\pic\sources\c99\common\doprnt.c: 1400:     return 
      +                          nout;
  3519  1357  0021               	movlb	1	; select bank1
  3520  1358  0866               	movf	(_nout+1)^(0+128),w
  3521  1359  0020               	movlb	0	; select bank0
  3522  135A  00DE               	movwf	?_vfprintf+1
  3523  135B  0021               	movlb	1	; select bank1
  3524  135C  0865               	movf	_nout^(0+128),w
  3525  135D  0020               	movlb	0	; select bank0
  3526  135E  00DD               	movwf	?_vfprintf
  3527  135F                     l969:
  3528  135F  0008               	return
  3529  1360                     __end_of_vfprintf:
  3530                           
  3531                           	psect	text11
  3532  0809                     __ptext11:	
  3533 ;; *************** function _vfpfcnvrt *****************
  3534 ;; Defined at:
  3535 ;;		line 692 in file "C:\Program Files\Microchip\xc8\v2.31\pic\sources\c99\common\doprnt.c"
  3536 ;; Parameters:    Size  Location     Type
  3537 ;;  fp              1    wreg     PTR struct _IO_FILE
  3538 ;;		 -> NULL(0), 
  3539 ;;  fmt             1   42[BANK0 ] PTR PTR unsigned char 
  3540 ;;		 -> vfprintf@cfmt(2), 
  3541 ;;  ap              1   43[BANK0 ] PTR PTR void 
  3542 ;;		 -> printf@ap(1), 
  3543 ;; Auto vars:     Size  Location     Type
  3544 ;;  fp              1   60[BANK0 ] PTR struct _IO_FILE
  3545 ;;		 -> NULL(0), 
  3546 ;;  llu             8    0        unsigned long long 
  3547 ;;  ll              8    0        long long 
  3548 ;;  f               4   52[BANK0 ] long long 
  3549 ;;  ct              3   56[BANK0 ] unsigned char [3]
  3550 ;;  vp              2    0        PTR void 
  3551 ;;  i               2    0        int 
  3552 ;;  done            2    0        int 
  3553 ;;  cp              2    0        PTR unsigned char 
  3554 ;;  c               1   59[BANK0 ] unsigned char 
  3555 ;; Return value:  Size  Location     Type
  3556 ;;                  2   42[BANK0 ] int 
  3557 ;; Registers used:
  3558 ;;		wreg, fsr0l, fsr0h, fsr1l, fsr1h, status,2, status,0, pclath, cstack
  3559 ;; Tracked objects:
  3560 ;;		On entry : 0/0
  3561 ;;		On exit  : 0/0
  3562 ;;		Unchanged: 0/0
  3563 ;; Data sizes:     COMMON   BANK0   BANK1   BANK2   BANK3   BANK4   BANK5   BANK6   BANK7   BANK8   BANK9  BANK10  BANK1
      +1  BANK12
  3564 ;;      Params:         0       2       0       0       0       0       0       0       0       0       0       0       
      +0       0
  3565 ;;      Locals:         0      11       0       0       0       0       0       0       0       0       0       0       
      +0       0
  3566 ;;      Temps:          0       6       0       0       0       0       0       0       0       0       0       0       
      +0       0
  3567 ;;      Totals:         0      19       0       0       0       0       0       0       0       0       0       0       
      +0       0
  3568 ;;Total ram usage:       19 bytes
  3569 ;; Hardware stack levels used:    1
  3570 ;; Hardware stack levels required when called:    6
  3571 ;; This function calls:
  3572 ;;		_efgtoa
  3573 ;;		_fputc
  3574 ;;		_isupper
  3575 ;;		_strncmp
  3576 ;;		_tolower
  3577 ;; This function is called by:
  3578 ;;		_vfprintf
  3579 ;; This function uses a non-reentrant model
  3580 ;;
  3581                           
  3582                           
  3583                           ;psect for function _vfpfcnvrt
  3584  0809                     _vfpfcnvrt:
  3585                           
  3586                           ;incstack = 0
  3587                           ; Regs used in _vfpfcnvrt: [wreg-fsr1h+status,2+status,0+pclath+cstack]
  3588                           ;vfpfcnvrt@fp stored from wreg
  3589  0809  0020               	movlb	0	; select bank0
  3590  080A  00DC               	movwf	vfpfcnvrt@fp
  3591  080B                     l3549:
  3592                           
  3593                           ;C:\Program Files\Microchip\xc8\v2.31\pic\sources\c99\common\doprnt.c: 692: static int v
      +                          fpfcnvrt(FILE *fp, char *fmt[], va_list ap);C:\Program Files\Microchip\xc8\v2.31\pic\sou
      +                          rces\c99\common\doprnt.c: 693: {;C:\Program Files\Microchip\xc8\v2.31\pic\sources\c99\co
      +                          mmon\doprnt.c: 694:     char c, *cp, ct[3];;C:\Program Files\Microchip\xc8\v2.31\pic\sou
      +                          rces\c99\common\doprnt.c: 695:     int done, i;;C:\Program Files\Microchip\xc8\v2.31\pic
      +                          \sources\c99\common\doprnt.c: 696:     long long ll;;C:\Program Files\Microchip\xc8\v2.3
      +                          1\pic\sources\c99\common\doprnt.c: 697:     unsigned long long llu;
  3594  080B  084A               	movf	vfpfcnvrt@fmt,w
  3595  080C  0086               	movwf	6
  3596  080D  0187               	clrf	7
  3597  080E  3F40               	moviw [0]fsr1
  3598  080F  00CC               	movwf	??_vfpfcnvrt
  3599  0810  3F41               	moviw [1]fsr1
  3600  0811  00CD               	movwf	??_vfpfcnvrt+1
  3601  0812  084C               	movf	??_vfpfcnvrt,w
  3602  0813  0084               	movwf	4
  3603  0814  084D               	movf	??_vfpfcnvrt+1,w
  3604  0815  0085               	movwf	5
  3605  0816  0012               	moviw fsr0++
  3606  0817  3A25               	xorlw	37
  3607  0818  1D03               	btfss	3,2
  3608  0819  281B               	goto	u4831
  3609  081A  281C               	goto	u4830
  3610  081B                     u4831:
  3611  081B  2992               	goto	l3613
  3612  081C                     u4830:
  3613  081C                     l3551:
  3614                           
  3615                           ;C:\Program Files\Microchip\xc8\v2.31\pic\sources\c99\common\doprnt.c: 703:         ++*f
      +                          mt;
  3616  081C  084A               	movf	vfpfcnvrt@fmt,w
  3617  081D  0086               	movwf	6
  3618  081E  0187               	clrf	7
  3619  081F  3001               	movlw	1
  3620  0820  0781               	addwf	1,f
  3621  0821  3141               	addfsr 1,1
  3622  0822  1803               	skipnc
  3623  0823  0A81               	incf	1,f
  3624  0824                     l3553:
  3625                           
  3626                           ;C:\Program Files\Microchip\xc8\v2.31\pic\sources\c99\common\doprnt.c: 705:         flag
      +                          s = width = 0;
  3627  0824  0021               	movlb	1	; select bank1
  3628  0825  01E7               	clrf	_width^(0+128)
  3629  0826  01E8               	clrf	(_width+1)^(0+128)
  3630  0827  01EB               	clrf	_flags^(0+128)
  3631  0828  01EC               	clrf	(_flags+1)^(0+128)
  3632  0829                     l3555:
  3633                           
  3634                           ;C:\Program Files\Microchip\xc8\v2.31\pic\sources\c99\common\doprnt.c: 706:         prec
      +                           = -1;
  3635  0829  30FF               	movlw	255
  3636  082A  00E9               	movwf	_prec^(0+128)
  3637  082B  30FF               	movlw	255
  3638  082C  00EA               	movwf	(_prec^(0+128)+1)
  3639  082D                     l3557:
  3640                           
  3641                           ;C:\Program Files\Microchip\xc8\v2.31\pic\sources\c99\common\doprnt.c: 779:         ct[0
      +                          ] = (char)tolower((int)(*fmt)[0]);
  3642  082D  0020               	movlb	0	; select bank0
  3643  082E  084A               	movf	vfpfcnvrt@fmt,w
  3644  082F  0086               	movwf	6
  3645  0830  0187               	clrf	7
  3646  0831  3F40               	moviw [0]fsr1
  3647  0832  00CC               	movwf	??_vfpfcnvrt
  3648  0833  3F41               	moviw [1]fsr1
  3649  0834  00CD               	movwf	??_vfpfcnvrt+1
  3650  0835  084C               	movf	??_vfpfcnvrt,w
  3651  0836  0084               	movwf	4
  3652  0837  084D               	movf	??_vfpfcnvrt+1,w
  3653  0838  0085               	movwf	5
  3654  0839  0800               	movf	0,w	;code access
  3655  083A  00CE               	movwf	??_vfpfcnvrt+2
  3656  083B  01CF               	clrf	??_vfpfcnvrt+3
  3657  083C  084E               	movf	??_vfpfcnvrt+2,w
  3658  083D  00F6               	movwf	tolower@c
  3659  083E  084F               	movf	??_vfpfcnvrt+3,w
  3660  083F  00F7               	movwf	tolower@c+1
  3661  0840  3192  22E1  3188   	fcall	_tolower
  3662  0843  0876               	movf	?_tolower,w
  3663  0844  0020               	movlb	0	; select bank0
  3664  0845  00D0               	movwf	??_vfpfcnvrt+4
  3665  0846  0850               	movf	??_vfpfcnvrt+4,w
  3666  0847  00D8               	movwf	vfpfcnvrt@ct
  3667  0848                     l3559:
  3668                           
  3669                           ;C:\Program Files\Microchip\xc8\v2.31\pic\sources\c99\common\doprnt.c: 780:         if (
      +                          ct[0]) {
  3670  0848  0858               	movf	vfpfcnvrt@ct,w
  3671  0849  1903               	btfsc	3,2
  3672  084A  284C               	goto	u4841
  3673  084B  284D               	goto	u4840
  3674  084C                     u4841:
  3675  084C  288C               	goto	l3567
  3676  084D                     u4840:
  3677  084D                     l3561:
  3678                           
  3679                           ;C:\Program Files\Microchip\xc8\v2.31\pic\sources\c99\common\doprnt.c: 781:             
      +                          ct[1] = (char)tolower((int)(*fmt)[1]);
  3680  084D  084A               	movf	vfpfcnvrt@fmt,w
  3681  084E  0086               	movwf	6
  3682  084F  0187               	clrf	7
  3683  0850  3F40               	moviw [0]fsr1
  3684  0851  00CC               	movwf	??_vfpfcnvrt
  3685  0852  3F41               	moviw [1]fsr1
  3686  0853  00CD               	movwf	??_vfpfcnvrt+1
  3687  0854  3001               	movlw	1
  3688  0855  074C               	addwf	??_vfpfcnvrt,w
  3689  0856  0084               	movwf	4
  3690  0857  084D               	movf	??_vfpfcnvrt+1,w
  3691  0858  1803               	skipnc
  3692  0859  0A4D               	incf	??_vfpfcnvrt+1,w
  3693  085A  0085               	movwf	5
  3694  085B  0800               	movf	0,w	;code access
  3695  085C  00CE               	movwf	??_vfpfcnvrt+2
  3696  085D  01CF               	clrf	??_vfpfcnvrt+3
  3697  085E  084E               	movf	??_vfpfcnvrt+2,w
  3698  085F  00F6               	movwf	tolower@c
  3699  0860  084F               	movf	??_vfpfcnvrt+3,w
  3700  0861  00F7               	movwf	tolower@c+1
  3701  0862  3192  22E1  3188   	fcall	_tolower
  3702  0865  0876               	movf	?_tolower,w
  3703  0866  0020               	movlb	0	; select bank0
  3704  0867  00D0               	movwf	??_vfpfcnvrt+4
  3705  0868  0850               	movf	??_vfpfcnvrt+4,w
  3706  0869  00D9               	movwf	vfpfcnvrt@ct+1
  3707  086A                     l3563:
  3708                           
  3709                           ;C:\Program Files\Microchip\xc8\v2.31\pic\sources\c99\common\doprnt.c: 782:             
      +                          if (ct[1]) {
  3710  086A  0859               	movf	vfpfcnvrt@ct+1,w
  3711  086B  1903               	btfsc	3,2
  3712  086C  286E               	goto	u4851
  3713  086D  286F               	goto	u4850
  3714  086E                     u4851:
  3715  086E  288C               	goto	l3567
  3716  086F                     u4850:
  3717  086F                     l3565:
  3718                           
  3719                           ;C:\Program Files\Microchip\xc8\v2.31\pic\sources\c99\common\doprnt.c: 783:             
      +                              ct[2] = (char)tolower((int)(*fmt)[2]);
  3720  086F  084A               	movf	vfpfcnvrt@fmt,w
  3721  0870  0086               	movwf	6
  3722  0871  0187               	clrf	7
  3723  0872  3F40               	moviw [0]fsr1
  3724  0873  00CC               	movwf	??_vfpfcnvrt
  3725  0874  3F41               	moviw [1]fsr1
  3726  0875  00CD               	movwf	??_vfpfcnvrt+1
  3727  0876  3002               	movlw	2
  3728  0877  074C               	addwf	??_vfpfcnvrt,w
  3729  0878  0084               	movwf	4
  3730  0879  084D               	movf	??_vfpfcnvrt+1,w
  3731  087A  1803               	skipnc
  3732  087B  0A4D               	incf	??_vfpfcnvrt+1,w
  3733  087C  0085               	movwf	5
  3734  087D  0800               	movf	0,w	;code access
  3735  087E  00CE               	movwf	??_vfpfcnvrt+2
  3736  087F  01CF               	clrf	??_vfpfcnvrt+3
  3737  0880  084E               	movf	??_vfpfcnvrt+2,w
  3738  0881  00F6               	movwf	tolower@c
  3739  0882  084F               	movf	??_vfpfcnvrt+3,w
  3740  0883  00F7               	movwf	tolower@c+1
  3741  0884  3192  22E1  3188   	fcall	_tolower
  3742  0887  0876               	movf	?_tolower,w
  3743  0888  0020               	movlb	0	; select bank0
  3744  0889  00D0               	movwf	??_vfpfcnvrt+4
  3745  088A  0850               	movf	??_vfpfcnvrt+4,w
  3746  088B  00DA               	movwf	vfpfcnvrt@ct+2
  3747  088C                     l3567:
  3748                           
  3749                           ;C:\Program Files\Microchip\xc8\v2.31\pic\sources\c99\common\doprnt.c: 942:         if (
      +                          ct[0] == 'f') {
  3750  088C  3066               	movlw	102
  3751  088D  0658               	xorwf	vfpfcnvrt@ct,w
  3752  088E  1D03               	btfss	3,2
  3753  088F  2891               	goto	u4861
  3754  0890  2892               	goto	u4860
  3755  0891                     u4861:
  3756  0891  28CF               	goto	l3579
  3757  0892                     u4860:
  3758  0892                     l3569:
  3759                           
  3760                           ;C:\Program Files\Microchip\xc8\v2.31\pic\sources\c99\common\doprnt.c: 944:             
      +                          c = (*fmt)[0];
  3761  0892  084A               	movf	vfpfcnvrt@fmt,w
  3762  0893  0086               	movwf	6
  3763  0894  0187               	clrf	7
  3764  0895  3F40               	moviw [0]fsr1
  3765  0896  00CC               	movwf	??_vfpfcnvrt
  3766  0897  3F41               	moviw [1]fsr1
  3767  0898  00CD               	movwf	??_vfpfcnvrt+1
  3768  0899  084C               	movf	??_vfpfcnvrt,w
  3769  089A  0084               	movwf	4
  3770  089B  084D               	movf	??_vfpfcnvrt+1,w
  3771  089C  0085               	movwf	5
  3772  089D  0800               	movf	0,w	;code access
  3773  089E  00CE               	movwf	??_vfpfcnvrt+2
  3774  089F  084E               	movf	??_vfpfcnvrt+2,w
  3775  08A0  00DB               	movwf	vfpfcnvrt@c
  3776  08A1                     l3571:
  3777                           
  3778                           ;C:\Program Files\Microchip\xc8\v2.31\pic\sources\c99\common\doprnt.c: 945:             
      +                          ++*fmt;
  3779  08A1  084A               	movf	vfpfcnvrt@fmt,w
  3780  08A2  0086               	movwf	6
  3781  08A3  0187               	clrf	7
  3782  08A4  3001               	movlw	1
  3783  08A5  0781               	addwf	1,f
  3784  08A6  3141               	addfsr 1,1
  3785  08A7  1803               	skipnc
  3786  08A8  0A81               	incf	1,f
  3787  08A9                     l3573:
  3788                           
  3789                           ;C:\Program Files\Microchip\xc8\v2.31\pic\sources\c99\common\doprnt.c: 946:             
      +                          f = (long double)(*(double *)__va_arg(*(double **)ap, (double)0));
  3790  08A9  084B               	movf	vfpfcnvrt@ap,w
  3791  08AA  0086               	movwf	6
  3792  08AB  0187               	clrf	7
  3793  08AC  0801               	movf	1,w
  3794  08AD  0084               	movwf	4
  3795  08AE  0185               	clrf	5
  3796  08AF  3004               	movlw	4
  3797  08B0  0781               	addwf	1,f
  3798  08B1  3F00               	moviw [0]fsr0
  3799  08B2  00D4               	movwf	vfpfcnvrt@f
  3800  08B3  3F01               	moviw [1]fsr0
  3801  08B4  00D5               	movwf	vfpfcnvrt@f+1
  3802  08B5  3F02               	moviw [2]fsr0
  3803  08B6  00D6               	movwf	vfpfcnvrt@f+2
  3804  08B7  3F03               	moviw [3]fsr0
  3805  08B8  00D7               	movwf	vfpfcnvrt@f+3
  3806  08B9                     l3575:
  3807                           
  3808                           ;C:\Program Files\Microchip\xc8\v2.31\pic\sources\c99\common\doprnt.c: 948:             
      +                          return efgtoa(fp, f, c);
  3809  08B9  0857               	movf	vfpfcnvrt@f+3,w
  3810  08BA  00C4               	movwf	efgtoa@f+3
  3811  08BB  0856               	movf	vfpfcnvrt@f+2,w
  3812  08BC  00C3               	movwf	efgtoa@f+2
  3813  08BD  0855               	movf	vfpfcnvrt@f+1,w
  3814  08BE  00C2               	movwf	efgtoa@f+1
  3815  08BF  0854               	movf	vfpfcnvrt@f,w
  3816  08C0  00C1               	movwf	efgtoa@f
  3817  08C1  085B               	movf	vfpfcnvrt@c,w
  3818  08C2  00CC               	movwf	??_vfpfcnvrt
  3819  08C3  084C               	movf	??_vfpfcnvrt,w
  3820  08C4  00C5               	movwf	efgtoa@c
  3821  08C5  085C               	movf	vfpfcnvrt@fp,w
  3822  08C6  3180  20B7  3188   	fcall	_efgtoa
  3823  08C9  0020               	movlb	0	; select bank0
  3824  08CA  0842               	movf	?_efgtoa+1,w
  3825  08CB  00CB               	movwf	?_vfpfcnvrt+1
  3826  08CC  0841               	movf	?_efgtoa,w
  3827  08CD  00CA               	movwf	?_vfpfcnvrt
  3828  08CE  29B5               	goto	l955
  3829  08CF                     l3579:
  3830                           
  3831                           ;C:\Program Files\Microchip\xc8\v2.31\pic\sources\c99\common\doprnt.c: 950:         if (
      +                          !strncmp(ct, "lf", ((sizeof("lf")/sizeof("lf"[0]))-1))) {
  3832  08CF  30FF               	movlw	low (STR_26| (0+32768))
  3833  08D0  00F0               	movwf	strncmp@_r
  3834  08D1  3098               	movlw	high (STR_26| (0+32768))
  3835  08D2  00F1               	movwf	strncmp@_r+1
  3836  08D3  3002               	movlw	2
  3837  08D4  00F2               	movwf	strncmp@n
  3838  08D5  3000               	movlw	0
  3839  08D6  00F3               	movwf	strncmp@n+1
  3840  08D7  3058               	movlw	(low (vfpfcnvrt@ct| 0))& (0+255)
  3841  08D8  3194  2487  3188   	fcall	_strncmp
  3842  08DB  0870               	movf	?_strncmp,w
  3843  08DC  0471               	iorwf	?_strncmp+1,w
  3844  08DD  1D03               	btfss	3,2
  3845  08DE  28E0               	goto	u4871
  3846  08DF  28E1               	goto	u4870
  3847  08E0                     u4871:
  3848  08E0  295C               	goto	l3597
  3849  08E1                     u4870:
  3850  08E1                     l3581:
  3851                           
  3852                           ;C:\Program Files\Microchip\xc8\v2.31\pic\sources\c99\common\doprnt.c: 953:             
      +                          if ((0 ? isupper((int)(*fmt)[0]) : ((unsigned)((int)(*fmt)[0])-'A') < 26)) {
  3853  08E1  0020               	movlb	0	; select bank0
  3854  08E2  084A               	movf	vfpfcnvrt@fmt,w
  3855  08E3  0086               	movwf	6
  3856  08E4  0187               	clrf	7
  3857  08E5  3F40               	moviw [0]fsr1
  3858  08E6  00CC               	movwf	??_vfpfcnvrt
  3859  08E7  3F41               	moviw [1]fsr1
  3860  08E8  00CD               	movwf	??_vfpfcnvrt+1
  3861  08E9  3001               	movlw	1
  3862  08EA  074C               	addwf	??_vfpfcnvrt,w
  3863  08EB  0084               	movwf	4
  3864  08EC  084D               	movf	??_vfpfcnvrt+1,w
  3865  08ED  1803               	skipnc
  3866  08EE  0A4D               	incf	??_vfpfcnvrt+1,w
  3867  08EF  0085               	movwf	5
  3868  08F0  0800               	movf	0,w	;code access
  3869  08F1  00CE               	movwf	??_vfpfcnvrt+2
  3870  08F2  084E               	movf	??_vfpfcnvrt+2,w
  3871  08F3  00DB               	movwf	vfpfcnvrt@c
  3872  08F4  084A               	movf	vfpfcnvrt@fmt,w
  3873  08F5  0086               	movwf	6
  3874  08F6  0187               	clrf	7
  3875  08F7  3F40               	moviw [0]fsr1
  3876  08F8  00CC               	movwf	??_vfpfcnvrt
  3877  08F9  3F41               	moviw [1]fsr1
  3878  08FA  00CD               	movwf	??_vfpfcnvrt+1
  3879  08FB  084C               	movf	??_vfpfcnvrt,w
  3880  08FC  0084               	movwf	4
  3881  08FD  084D               	movf	??_vfpfcnvrt+1,w
  3882  08FE  0085               	movwf	5
  3883  08FF  0800               	movf	0,w	;code access
  3884  0900  3EBF               	addlw	191
  3885  0901  00CE               	movwf	??_vfpfcnvrt+2
  3886  0902  30FF               	movlw	255
  3887  0903  1803               	skipnc
  3888  0904  3000               	movlw	0
  3889  0905  00CF               	movwf	??_vfpfcnvrt+3
  3890  0906  3000               	movlw	0
  3891  0907  024F               	subwf	??_vfpfcnvrt+3,w
  3892  0908  301A               	movlw	26
  3893  0909  1903               	skipnz
  3894  090A  024E               	subwf	??_vfpfcnvrt+2,w
  3895  090B  1C03               	skipc
  3896  090C  290E               	goto	u4881
  3897  090D  2910               	goto	u4880
  3898  090E                     u4881:
  3899  090E  3001               	movlw	1
  3900  090F  2911               	goto	u4890
  3901  0910                     u4880:
  3902  0910  3000               	movlw	0
  3903  0911                     u4890:
  3904  0911  00D0               	movwf	??_vfpfcnvrt+4
  3905  0912  01D1               	clrf	??_vfpfcnvrt+5
  3906  0913  0850               	movf	??_vfpfcnvrt+4,w
  3907  0914  00D2               	movwf	_vfpfcnvrt$944
  3908  0915  0851               	movf	??_vfpfcnvrt+5,w
  3909  0916  00D3               	movwf	_vfpfcnvrt$944+1
  3910  0917                     l3585:
  3911  0917  0852               	movf	_vfpfcnvrt$944,w
  3912  0918  0453               	iorwf	_vfpfcnvrt$944+1,w
  3913  0919  1903               	btfsc	3,2
  3914  091A  291C               	goto	u4901
  3915  091B  291D               	goto	u4900
  3916  091C                     u4901:
  3917  091C  292E               	goto	l3589
  3918  091D                     u4900:
  3919  091D                     l3587:
  3920                           
  3921                           ;C:\Program Files\Microchip\xc8\v2.31\pic\sources\c99\common\doprnt.c: 954:             
      +                              f = (*(long double *)__va_arg(*(long double **)ap, (long double)0));
  3922  091D  084B               	movf	vfpfcnvrt@ap,w
  3923  091E  0086               	movwf	6
  3924  091F  0187               	clrf	7
  3925  0920  0801               	movf	1,w
  3926  0921  0084               	movwf	4
  3927  0922  0185               	clrf	5
  3928  0923  3004               	movlw	4
  3929  0924  0781               	addwf	1,f
  3930  0925  3F00               	moviw [0]fsr0
  3931  0926  00D4               	movwf	vfpfcnvrt@f
  3932  0927  3F01               	moviw [1]fsr0
  3933  0928  00D5               	movwf	vfpfcnvrt@f+1
  3934  0929  3F02               	moviw [2]fsr0
  3935  092A  00D6               	movwf	vfpfcnvrt@f+2
  3936  092B  3F03               	moviw [3]fsr0
  3937  092C  00D7               	movwf	vfpfcnvrt@f+3
  3938                           
  3939                           ;C:\Program Files\Microchip\xc8\v2.31\pic\sources\c99\common\doprnt.c: 955:             
      +                          } else {
  3940  092D  293E               	goto	l3591
  3941  092E                     l3589:
  3942                           
  3943                           ;C:\Program Files\Microchip\xc8\v2.31\pic\sources\c99\common\doprnt.c: 956:             
      +                              f = (long double)(*(double *)__va_arg(*(double **)ap, (double)0));
  3944  092E  084B               	movf	vfpfcnvrt@ap,w
  3945  092F  0086               	movwf	6
  3946  0930  0187               	clrf	7
  3947  0931  0801               	movf	1,w
  3948  0932  0084               	movwf	4
  3949  0933  0185               	clrf	5
  3950  0934  3004               	movlw	4
  3951  0935  0781               	addwf	1,f
  3952  0936  3F00               	moviw [0]fsr0
  3953  0937  00D4               	movwf	vfpfcnvrt@f
  3954  0938  3F01               	moviw [1]fsr0
  3955  0939  00D5               	movwf	vfpfcnvrt@f+1
  3956  093A  3F02               	moviw [2]fsr0
  3957  093B  00D6               	movwf	vfpfcnvrt@f+2
  3958  093C  3F03               	moviw [3]fsr0
  3959  093D  00D7               	movwf	vfpfcnvrt@f+3
  3960  093E                     l3591:
  3961                           
  3962                           ;C:\Program Files\Microchip\xc8\v2.31\pic\sources\c99\common\doprnt.c: 958:             
      +                          *fmt += ((sizeof("lf")/sizeof("lf"[0]))-1);
  3963  093E  084A               	movf	vfpfcnvrt@fmt,w
  3964  093F  0086               	movwf	6
  3965  0940  0187               	clrf	7
  3966  0941  3002               	movlw	2
  3967  0942  0781               	addwf	1,f
  3968  0943  3141               	addfsr 1,1
  3969  0944  1803               	skipnc
  3970  0945  0A81               	incf	1,f
  3971  0946                     l3593:
  3972                           
  3973                           ;C:\Program Files\Microchip\xc8\v2.31\pic\sources\c99\common\doprnt.c: 960:             
      +                          return efgtoa(fp, f, c);
  3974  0946  0857               	movf	vfpfcnvrt@f+3,w
  3975  0947  00C4               	movwf	efgtoa@f+3
  3976  0948  0856               	movf	vfpfcnvrt@f+2,w
  3977  0949  00C3               	movwf	efgtoa@f+2
  3978  094A  0855               	movf	vfpfcnvrt@f+1,w
  3979  094B  00C2               	movwf	efgtoa@f+1
  3980  094C  0854               	movf	vfpfcnvrt@f,w
  3981  094D  00C1               	movwf	efgtoa@f
  3982  094E  085B               	movf	vfpfcnvrt@c,w
  3983  094F  00CC               	movwf	??_vfpfcnvrt
  3984  0950  084C               	movf	??_vfpfcnvrt,w
  3985  0951  00C5               	movwf	efgtoa@c
  3986  0952  085C               	movf	vfpfcnvrt@fp,w
  3987  0953  3180  20B7  3188   	fcall	_efgtoa
  3988  0956  0020               	movlb	0	; select bank0
  3989  0957  0842               	movf	?_efgtoa+1,w
  3990  0958  00CB               	movwf	?_vfpfcnvrt+1
  3991  0959  0841               	movf	?_efgtoa,w
  3992  095A  00CA               	movwf	?_vfpfcnvrt
  3993  095B  29B5               	goto	l955
  3994  095C                     l3597:
  3995                           
  3996                           ;C:\Program Files\Microchip\xc8\v2.31\pic\sources\c99\common\doprnt.c: 1372:         if 
      +                          ((*fmt)[0] == '%') {
  3997  095C  0020               	movlb	0	; select bank0
  3998  095D  084A               	movf	vfpfcnvrt@fmt,w
  3999  095E  0086               	movwf	6
  4000  095F  0187               	clrf	7
  4001  0960  3F40               	moviw [0]fsr1
  4002  0961  00CC               	movwf	??_vfpfcnvrt
  4003  0962  3F41               	moviw [1]fsr1
  4004  0963  00CD               	movwf	??_vfpfcnvrt+1
  4005  0964  084C               	movf	??_vfpfcnvrt,w
  4006  0965  0084               	movwf	4
  4007  0966  084D               	movf	??_vfpfcnvrt+1,w
  4008  0967  0085               	movwf	5
  4009  0968  0012               	moviw fsr0++
  4010  0969  3A25               	xorlw	37
  4011  096A  1D03               	btfss	3,2
  4012  096B  296D               	goto	u4911
  4013  096C  296E               	goto	u4910
  4014  096D                     u4911:
  4015  096D  2987               	goto	l3607
  4016  096E                     u4910:
  4017  096E                     l3599:
  4018                           
  4019                           ;C:\Program Files\Microchip\xc8\v2.31\pic\sources\c99\common\doprnt.c: 1373:            
      +                           ++*fmt;
  4020  096E  084A               	movf	vfpfcnvrt@fmt,w
  4021  096F  0086               	movwf	6
  4022  0970  0187               	clrf	7
  4023  0971  3001               	movlw	1
  4024  0972  0781               	addwf	1,f
  4025  0973  3141               	addfsr 1,1
  4026  0974  1803               	skipnc
  4027  0975  0A81               	incf	1,f
  4028  0976                     l3601:
  4029                           
  4030                           ;C:\Program Files\Microchip\xc8\v2.31\pic\sources\c99\common\doprnt.c: 1374:            
      +                           fputc((int)'%', fp);
  4031  0976  3025               	movlw	37
  4032  0977  00F2               	movwf	fputc@c
  4033  0978  3000               	movlw	0
  4034  0979  00F3               	movwf	fputc@c+1
  4035  097A  085C               	movf	vfpfcnvrt@fp,w
  4036  097B  00CC               	movwf	??_vfpfcnvrt
  4037  097C  084C               	movf	??_vfpfcnvrt,w
  4038  097D  00F4               	movwf	fputc@fp
  4039  097E  3193  2360  3188   	fcall	_fputc
  4040  0981                     l3603:
  4041                           
  4042                           ;C:\Program Files\Microchip\xc8\v2.31\pic\sources\c99\common\doprnt.c: 1375:            
      +                           return 1;
  4043  0981  3001               	movlw	1
  4044  0982  0020               	movlb	0	; select bank0
  4045  0983  00CA               	movwf	?_vfpfcnvrt
  4046  0984  3000               	movlw	0
  4047  0985  00CB               	movwf	?_vfpfcnvrt+1
  4048  0986  29B5               	goto	l955
  4049  0987                     l3607:
  4050                           
  4051                           ;C:\Program Files\Microchip\xc8\v2.31\pic\sources\c99\common\doprnt.c: 1379:         ++*
      +                          fmt;
  4052  0987  084A               	movf	vfpfcnvrt@fmt,w
  4053  0988  0086               	movwf	6
  4054  0989  0187               	clrf	7
  4055  098A  3001               	movlw	1
  4056  098B  0781               	addwf	1,f
  4057  098C  3141               	addfsr 1,1
  4058  098D  1803               	skipnc
  4059  098E  0A81               	incf	1,f
  4060  098F                     l3609:
  4061                           
  4062                           ;C:\Program Files\Microchip\xc8\v2.31\pic\sources\c99\common\doprnt.c: 1380:         ret
      +                          urn 0;
  4063  098F  01CA               	clrf	?_vfpfcnvrt
  4064  0990  01CB               	clrf	?_vfpfcnvrt+1
  4065  0991  29B5               	goto	l955
  4066  0992                     l3613:
  4067                           
  4068                           ;C:\Program Files\Microchip\xc8\v2.31\pic\sources\c99\common\doprnt.c: 1384:     fputc((
      +                          int)(*fmt)[0], fp);
  4069  0992  084A               	movf	vfpfcnvrt@fmt,w
  4070  0993  0086               	movwf	6
  4071  0994  0187               	clrf	7
  4072  0995  3F40               	moviw [0]fsr1
  4073  0996  00CC               	movwf	??_vfpfcnvrt
  4074  0997  3F41               	moviw [1]fsr1
  4075  0998  00CD               	movwf	??_vfpfcnvrt+1
  4076  0999  084C               	movf	??_vfpfcnvrt,w
  4077  099A  0084               	movwf	4
  4078  099B  084D               	movf	??_vfpfcnvrt+1,w
  4079  099C  0085               	movwf	5
  4080  099D  0800               	movf	0,w	;code access
  4081  099E  00CE               	movwf	??_vfpfcnvrt+2
  4082  099F  01CF               	clrf	??_vfpfcnvrt+3
  4083  09A0  084E               	movf	??_vfpfcnvrt+2,w
  4084  09A1  00F2               	movwf	fputc@c
  4085  09A2  084F               	movf	??_vfpfcnvrt+3,w
  4086  09A3  00F3               	movwf	fputc@c+1
  4087  09A4  085C               	movf	vfpfcnvrt@fp,w
  4088  09A5  00D0               	movwf	??_vfpfcnvrt+4
  4089  09A6  0850               	movf	??_vfpfcnvrt+4,w
  4090  09A7  00F4               	movwf	fputc@fp
  4091  09A8  3193  2360  3188   	fcall	_fputc
  4092  09AB                     l3615:
  4093                           
  4094                           ;C:\Program Files\Microchip\xc8\v2.31\pic\sources\c99\common\doprnt.c: 1385:     ++*fmt;
  4095  09AB  0020               	movlb	0	; select bank0
  4096  09AC  084A               	movf	vfpfcnvrt@fmt,w
  4097  09AD  0086               	movwf	6
  4098  09AE  0187               	clrf	7
  4099  09AF  3001               	movlw	1
  4100  09B0  0781               	addwf	1,f
  4101  09B1  3141               	addfsr 1,1
  4102  09B2  1803               	skipnc
  4103  09B3  0A81               	incf	1,f
  4104  09B4  2981               	goto	l3603
  4105  09B5                     l955:
  4106  09B5  0008               	return
  4107  09B6                     __end_of_vfpfcnvrt:
  4108                           
  4109                           	psect	text12
  4110  1487                     __ptext12:	
  4111 ;; *************** function _strncmp *****************
  4112 ;; Defined at:
  4113 ;;		line 3 in file "C:\Program Files\Microchip\xc8\v2.31\pic\sources\c99\common\strncmp.c"
  4114 ;; Parameters:    Size  Location     Type
  4115 ;;  _l              1    wreg     PTR const unsigned char 
  4116 ;;		 -> vfpfcnvrt@ct(3), 
  4117 ;;  _r              2    0[COMMON] PTR const unsigned char 
  4118 ;;		 -> STR_28(3), 
  4119 ;;  n               2    2[COMMON] unsigned int 
  4120 ;; Auto vars:     Size  Location     Type
  4121 ;;  _l              1    5[COMMON] PTR const unsigned char 
  4122 ;;		 -> vfpfcnvrt@ct(3), 
  4123 ;;  r               2    6[COMMON] PTR const unsigned char 
  4124 ;;		 -> STR_28(3), 
  4125 ;;  l               1    8[COMMON] PTR const unsigned char 
  4126 ;;		 -> vfpfcnvrt@ct(3), 
  4127 ;; Return value:  Size  Location     Type
  4128 ;;                  2    0[COMMON] int 
  4129 ;; Registers used:
  4130 ;;		wreg, fsr0l, fsr0h, fsr1l, fsr1h, status,2, status,0, pclath
  4131 ;; Tracked objects:
  4132 ;;		On entry : 0/0
  4133 ;;		On exit  : 0/0
  4134 ;;		Unchanged: 0/0
  4135 ;; Data sizes:     COMMON   BANK0   BANK1   BANK2   BANK3   BANK4   BANK5   BANK6   BANK7   BANK8   BANK9  BANK10  BANK1
      +1  BANK12
  4136 ;;      Params:         4       0       0       0       0       0       0       0       0       0       0       0       
      +0       0
  4137 ;;      Locals:         4       0       0       0       0       0       0       0       0       0       0       0       
      +0       0
  4138 ;;      Temps:          1       0       0       0       0       0       0       0       0       0       0       0       
      +0       0
  4139 ;;      Totals:         9       0       0       0       0       0       0       0       0       0       0       0       
      +0       0
  4140 ;;Total ram usage:        9 bytes
  4141 ;; Hardware stack levels used:    1
  4142 ;; This function calls:
  4143 ;;		Nothing
  4144 ;; This function is called by:
  4145 ;;		_vfpfcnvrt
  4146 ;; This function uses a non-reentrant model
  4147 ;;
  4148                           
  4149                           
  4150                           ;psect for function _strncmp
  4151  1487                     _strncmp:
  4152                           
  4153                           ;incstack = 0
  4154                           ; Regs used in _strncmp: [wreg-fsr1h+status,2+status,0+pclath]
  4155                           ;strncmp@_l stored from wreg
  4156  1487  00F5               	movwf	strncmp@_l
  4157  1488                     l3523:
  4158  1488  0875               	movf	strncmp@_l,w
  4159  1489  00F4               	movwf	??_strncmp
  4160  148A  0874               	movf	??_strncmp,w
  4161  148B  00F8               	movwf	strncmp@l
  4162  148C  0871               	movf	strncmp@_r+1,w
  4163  148D  00F7               	movwf	strncmp@r+1
  4164  148E  0870               	movf	strncmp@_r,w
  4165  148F  00F6               	movwf	strncmp@r
  4166  1490                     l3525:
  4167  1490  3001               	movlw	1
  4168  1491  02F2               	subwf	strncmp@n,f
  4169  1492  3000               	movlw	0
  4170  1493  3BF3               	subwfb	strncmp@n+1,f
  4171  1494  0A72               	incf	strncmp@n,w
  4172  1495  1D03               	skipz
  4173  1496  2C9B               	goto	u4781
  4174  1497  0A73               	incf	strncmp@n+1,w
  4175  1498  1D03               	btfss	3,2
  4176  1499  2C9B               	goto	u4781
  4177  149A  2C9C               	goto	u4780
  4178  149B                     u4781:
  4179  149B  2CAB               	goto	l3537
  4180  149C                     u4780:
  4181  149C                     l3527:
  4182  149C  01F0               	clrf	?_strncmp
  4183  149D  01F1               	clrf	?_strncmp+1
  4184  149E  2CDE               	goto	l1035
  4185  149F                     l3531:
  4186  149F  3001               	movlw	1
  4187  14A0  00F4               	movwf	??_strncmp
  4188  14A1  0874               	movf	??_strncmp,w
  4189  14A2  07F8               	addwf	strncmp@l,f
  4190  14A3                     l3533:
  4191  14A3  3001               	movlw	1
  4192  14A4  07F6               	addwf	strncmp@r,f
  4193  14A5  3000               	movlw	0
  4194  14A6  3DF7               	addwfc	strncmp@r+1,f
  4195  14A7                     l3535:
  4196  14A7  3001               	movlw	1
  4197  14A8  02F2               	subwf	strncmp@n,f
  4198  14A9  3000               	movlw	0
  4199  14AA  3BF3               	subwfb	strncmp@n+1,f
  4200  14AB                     l3537:
  4201  14AB  0878               	movf	strncmp@l,w
  4202  14AC  0086               	movwf	6
  4203  14AD  0187               	clrf	7
  4204  14AE  0801               	movf	1,w
  4205  14AF  1903               	btfsc	3,2
  4206  14B0  2CB2               	goto	u4791
  4207  14B1  2CB3               	goto	u4790
  4208  14B2                     u4791:
  4209  14B2  2CD1               	goto	l3545
  4210  14B3                     u4790:
  4211  14B3                     l3539:
  4212  14B3  0876               	movf	strncmp@r,w
  4213  14B4  0084               	movwf	4
  4214  14B5  0877               	movf	strncmp@r+1,w
  4215  14B6  0085               	movwf	5
  4216  14B7  0012               	moviw fsr0++
  4217  14B8  1903               	btfsc	3,2
  4218  14B9  2CBB               	goto	u4801
  4219  14BA  2CBC               	goto	u4800
  4220  14BB                     u4801:
  4221  14BB  2CD1               	goto	l3545
  4222  14BC                     u4800:
  4223  14BC                     l3541:
  4224  14BC  0872               	movf	strncmp@n,w
  4225  14BD  0473               	iorwf	strncmp@n+1,w
  4226  14BE  1903               	btfsc	3,2
  4227  14BF  2CC1               	goto	u4811
  4228  14C0  2CC2               	goto	u4810
  4229  14C1                     u4811:
  4230  14C1  2CD1               	goto	l3545
  4231  14C2                     u4810:
  4232  14C2                     l3543:
  4233  14C2  0876               	movf	strncmp@r,w
  4234  14C3  0084               	movwf	4
  4235  14C4  0877               	movf	strncmp@r+1,w
  4236  14C5  0085               	movwf	5
  4237  14C6  0800               	movf	0,w	;code access
  4238  14C7  00F4               	movwf	??_strncmp
  4239  14C8  0878               	movf	strncmp@l,w
  4240  14C9  0086               	movwf	6
  4241  14CA  0187               	clrf	7
  4242  14CB  0801               	movf	1,w
  4243  14CC  0674               	xorwf	??_strncmp,w
  4244  14CD  1903               	skipnz
  4245  14CE  2CD0               	goto	u4821
  4246  14CF  2CD1               	goto	u4820
  4247  14D0                     u4821:
  4248  14D0  2C9F               	goto	l3531
  4249  14D1                     u4820:
  4250  14D1                     l3545:
  4251  14D1  0878               	movf	strncmp@l,w
  4252  14D2  0086               	movwf	6
  4253  14D3  0187               	clrf	7
  4254  14D4  0876               	movf	strncmp@r,w
  4255  14D5  0084               	movwf	4
  4256  14D6  0877               	movf	strncmp@r+1,w
  4257  14D7  0085               	movwf	5
  4258  14D8  0800               	movf	0,w	;code access
  4259  14D9  0201               	subwf	1,w
  4260  14DA  00F0               	movwf	?_strncmp
  4261  14DB  01F1               	clrf	?_strncmp+1
  4262  14DC  1C03               	skipc
  4263  14DD  03F1               	decf	?_strncmp+1,f
  4264  14DE                     l1035:
  4265  14DE  0008               	return
  4266  14DF                     __end_of_strncmp:
  4267                           
  4268                           	psect	text13
  4269  00B7                     __ptext13:	
  4270 ;; *************** function _efgtoa *****************
  4271 ;; Defined at:
  4272 ;;		line 332 in file "C:\Program Files\Microchip\xc8\v2.31\pic\sources\c99\common\doprnt.c"
  4273 ;; Parameters:    Size  Location     Type
  4274 ;;  fp              1    wreg     PTR struct _IO_FILE
  4275 ;;		 -> NULL(0), 
  4276 ;;  f               4   33[BANK0 ] PTR struct _IO_FILE
  4277 ;;  c               1   37[BANK0 ] unsigned char 
  4278 ;; Auto vars:     Size  Location     Type
  4279 ;;  fp              1   30[BANK1 ] PTR struct _IO_FILE
  4280 ;;		 -> NULL(0), 
  4281 ;;  u               4   53[BANK1 ] PTR struct _IO_FILE
  4282 ;;  g               4   45[BANK1 ] PTR struct _IO_FILE
  4283 ;;  l               4   39[BANK1 ] PTR struct _IO_FILE
  4284 ;;  h               4   35[BANK1 ] PTR struct _IO_FILE
  4285 ;;  ou              4   20[BANK1 ] PTR struct _IO_FILE
  4286 ;;  n               2   51[BANK1 ] int 
  4287 ;;  e               2   49[BANK1 ] int 
  4288 ;;  i               2   43[BANK1 ] int 
  4289 ;;  w               2   31[BANK1 ] int 
  4290 ;;  p               2   28[BANK1 ] int 
  4291 ;;  sign            2   26[BANK1 ] int 
  4292 ;;  d               2   24[BANK1 ] int 
  4293 ;;  m               2   18[BANK1 ] int 
  4294 ;;  ne              2   16[BANK1 ] int 
  4295 ;;  pp              2   14[BANK1 ] int 
  4296 ;;  t               2   12[BANK1 ] int 
  4297 ;;  mode            1   34[BANK1 ] unsigned char 
  4298 ;;  nmode           1   33[BANK1 ] unsigned char 
  4299 ;; Return value:  Size  Location     Type
  4300 ;;                  2   33[BANK0 ] int 
  4301 ;; Registers used:
  4302 ;;		wreg, fsr0l, fsr0h, fsr1l, fsr1h, status,2, status,0, pclath, cstack
  4303 ;; Tracked objects:
  4304 ;;		On entry : 0/0
  4305 ;;		On exit  : 0/0
  4306 ;;		Unchanged: 0/0
  4307 ;; Data sizes:     COMMON   BANK0   BANK1   BANK2   BANK3   BANK4   BANK5   BANK6   BANK7   BANK8   BANK9  BANK10  BANK1
      +1  BANK12
  4308 ;;      Params:         0       5       0       0       0       0       0       0       0       0       0       0       
      +0       0
  4309 ;;      Locals:         0       0      57       0       0       0       0       0       0       0       0       0       
      +0       0
  4310 ;;      Temps:          0       4       0       0       0       0       0       0       0       0       0       0       
      +0       0
  4311 ;;      Totals:         0       9      57       0       0       0       0       0       0       0       0       0       
      +0       0
  4312 ;;Total ram usage:       66 bytes
  4313 ;; Hardware stack levels used:    1
  4314 ;; Hardware stack levels required when called:    5
  4315 ;; This function calls:
  4316 ;;		___awdiv
  4317 ;;		___awmod
  4318 ;;		___fladd
  4319 ;;		___fldiv
  4320 ;;		___fleq
  4321 ;;		___flge
  4322 ;;		___flmul
  4323 ;;		___flneg
  4324 ;;		___flsub
  4325 ;;		___fltol
  4326 ;;		___fpclassifyf
  4327 ;;		_floorf
  4328 ;;		_isupper
  4329 ;;		_pad
  4330 ;;		_strcpy
  4331 ;;		_tolower
  4332 ;; This function is called by:
  4333 ;;		_vfpfcnvrt
  4334 ;; This function uses a non-reentrant model
  4335 ;;
  4336                           
  4337                           
  4338                           ;psect for function _efgtoa
  4339  00B7                     _efgtoa:
  4340                           
  4341                           ;incstack = 0
  4342                           ; Regs used in _efgtoa: [wreg-fsr1h+status,2+status,0+pclath+cstack]
  4343                           ;efgtoa@fp stored from wreg
  4344  00B7  0021               	movlb	1	; select bank1
  4345  00B8  00BE               	movwf	efgtoa@fp^(0+128)
  4346  00B9                     l3223:
  4347                           
  4348                           ;C:\Program Files\Microchip\xc8\v2.31\pic\sources\c99\common\doprnt.c: 332: static int e
      +                          fgtoa(FILE *fp, long double f, char c);C:\Program Files\Microchip\xc8\v2.31\pic\sources\
      +                          c99\common\doprnt.c: 333: {;C:\Program Files\Microchip\xc8\v2.31\pic\sources\c99\common\
      +                          doprnt.c: 334:     char mode, nmode;;C:\Program Files\Microchip\xc8\v2.31\pic\sources\c9
      +                          9\common\doprnt.c: 335:     int d, e, i, m, n, ne, p, pp, sign, t, w;;C:\Program Files\M
      +                          icrochip\xc8\v2.31\pic\sources\c99\common\doprnt.c: 336:     long double g, h, l, ou, u;
  4349  00B9  01BA               	clrf	efgtoa@sign^(0+128)
  4350  00BA  01BB               	clrf	(efgtoa@sign+1)^(0+128)
  4351  00BB                     l3225:
  4352                           
  4353                           ;C:\Program Files\Microchip\xc8\v2.31\pic\sources\c99\common\doprnt.c: 340:     g = f;
  4354  00BB  0020               	movlb	0	; select bank0
  4355  00BC  0844               	movf	efgtoa@f+3,w
  4356  00BD  0021               	movlb	1	; select bank1
  4357  00BE  00D0               	movwf	(efgtoa@g+3)^(0+128)
  4358  00BF  0020               	movlb	0	; select bank0
  4359  00C0  0843               	movf	efgtoa@f+2,w
  4360  00C1  0021               	movlb	1	; select bank1
  4361  00C2  00CF               	movwf	(efgtoa@g+2)^(0+128)
  4362  00C3  0020               	movlb	0	; select bank0
  4363  00C4  0842               	movf	efgtoa@f+1,w
  4364  00C5  0021               	movlb	1	; select bank1
  4365  00C6  00CE               	movwf	(efgtoa@g+1)^(0+128)
  4366  00C7  0020               	movlb	0	; select bank0
  4367  00C8  0841               	movf	efgtoa@f,w
  4368  00C9  0021               	movlb	1	; select bank1
  4369  00CA  00CD               	movwf	efgtoa@g^(0+128)
  4370  00CB                     l3227:
  4371                           
  4372                           ;C:\Program Files\Microchip\xc8\v2.31\pic\sources\c99\common\doprnt.c: 341:     if (g < 
      +                          0.0) {
  4373  00CB  0850               	movf	(efgtoa@g+3)^(0+128),w
  4374  00CC  0020               	movlb	0	; select bank0
  4375  00CD  00B8               	movwf	___flge@ff1+3
  4376  00CE  0021               	movlb	1	; select bank1
  4377  00CF  084F               	movf	(efgtoa@g+2)^(0+128),w
  4378  00D0  0020               	movlb	0	; select bank0
  4379  00D1  00B7               	movwf	___flge@ff1+2
  4380  00D2  0021               	movlb	1	; select bank1
  4381  00D3  084E               	movf	(efgtoa@g+1)^(0+128),w
  4382  00D4  0020               	movlb	0	; select bank0
  4383  00D5  00B6               	movwf	___flge@ff1+1
  4384  00D6  0021               	movlb	1	; select bank1
  4385  00D7  084D               	movf	efgtoa@g^(0+128),w
  4386  00D8  0020               	movlb	0	; select bank0
  4387  00D9  00B5               	movwf	___flge@ff1
  4388  00DA  3000               	movlw	0
  4389  00DB  00BC               	movwf	___flge@ff2+3
  4390  00DC  3000               	movlw	0
  4391  00DD  00BB               	movwf	___flge@ff2+2
  4392  00DE  3000               	movlw	0
  4393  00DF  00BA               	movwf	___flge@ff2+1
  4394  00E0  3000               	movlw	0
  4395  00E1  00B9               	movwf	___flge@ff2
  4396  00E2  3196  268A  3180   	fcall	___flge
  4397  00E5  1803               	btfsc	3,0
  4398  00E6  28E8               	goto	u4241
  4399  00E7  28E9               	goto	u4240
  4400  00E8                     u4241:
  4401  00E8  2902               	goto	l3233
  4402  00E9                     u4240:
  4403  00E9                     l3229:
  4404                           
  4405                           ;C:\Program Files\Microchip\xc8\v2.31\pic\sources\c99\common\doprnt.c: 342:         sign
      +                           = 1;
  4406  00E9  3001               	movlw	1
  4407  00EA  0021               	movlb	1	; select bank1
  4408  00EB  00BA               	movwf	efgtoa@sign^(0+128)
  4409  00EC  3000               	movlw	0
  4410  00ED  00BB               	movwf	(efgtoa@sign^(0+128)+1)
  4411  00EE                     l3231:
  4412                           
  4413                           ;C:\Program Files\Microchip\xc8\v2.31\pic\sources\c99\common\doprnt.c: 343:         g = 
      +                          -g;
  4414  00EE  0850               	movf	(efgtoa@g+3)^(0+128),w
  4415  00EF  00F3               	movwf	___flneg@f1+3
  4416  00F0  084F               	movf	(efgtoa@g+2)^(0+128),w
  4417  00F1  00F2               	movwf	___flneg@f1+2
  4418  00F2  084E               	movf	(efgtoa@g+1)^(0+128),w
  4419  00F3  00F1               	movwf	___flneg@f1+1
  4420  00F4  084D               	movf	efgtoa@g^(0+128),w
  4421  00F5  00F0               	movwf	___flneg@f1
  4422  00F6  3191  21AA  3180   	fcall	___flneg
  4423  00F9  0873               	movf	?___flneg+3,w
  4424  00FA  0021               	movlb	1	; select bank1
  4425  00FB  00D0               	movwf	(efgtoa@g+3)^(0+128)
  4426  00FC  0872               	movf	?___flneg+2,w
  4427  00FD  00CF               	movwf	(efgtoa@g+2)^(0+128)
  4428  00FE  0871               	movf	?___flneg+1,w
  4429  00FF  00CE               	movwf	(efgtoa@g+1)^(0+128)
  4430  0100  0870               	movf	?___flneg,w
  4431  0101  00CD               	movwf	efgtoa@g^(0+128)
  4432  0102                     l3233:
  4433                           
  4434                           ;C:\Program Files\Microchip\xc8\v2.31\pic\sources\c99\common\doprnt.c: 347:     n = 0;
  4435  0102  0021               	movlb	1	; select bank1
  4436  0103  01D3               	clrf	efgtoa@n^(0+128)
  4437  0104  01D4               	clrf	(efgtoa@n+1)^(0+128)
  4438  0105                     l3235:
  4439                           
  4440                           ;C:\Program Files\Microchip\xc8\v2.31\pic\sources\c99\common\doprnt.c: 348:     w = widt
      +                          h;
  4441  0105  0868               	movf	(_width+1)^(0+128),w
  4442  0106  00C0               	movwf	(efgtoa@w+1)^(0+128)
  4443  0107  0867               	movf	_width^(0+128),w
  4444  0108  00BF               	movwf	efgtoa@w^(0+128)
  4445  0109                     l3237:
  4446                           
  4447                           ;C:\Program Files\Microchip\xc8\v2.31\pic\sources\c99\common\doprnt.c: 349:     if (sign
      +                           || (flags & (1 << 2))) {
  4448  0109  083A               	movf	efgtoa@sign^(0+128),w
  4449  010A  043B               	iorwf	(efgtoa@sign+1)^(0+128),w
  4450  010B  1D03               	btfss	3,2
  4451  010C  290E               	goto	u4251
  4452  010D  290F               	goto	u4250
  4453  010E                     u4251:
  4454  010E  2913               	goto	l3241
  4455  010F                     u4250:
  4456  010F                     l3239:
  4457  010F  1D6B               	btfss	_flags^(0+128),2
  4458  0110  2912               	goto	u4261
  4459  0111  2913               	goto	u4260
  4460  0112                     u4261:
  4461  0112  2931               	goto	l3253
  4462  0113                     u4260:
  4463  0113                     l3241:
  4464                           
  4465                           ;C:\Program Files\Microchip\xc8\v2.31\pic\sources\c99\common\doprnt.c: 350:         dbuf
      +                          [n] = sign ? '-' : '+';
  4466  0113  083A               	movf	efgtoa@sign^(0+128),w
  4467  0114  043B               	iorwf	(efgtoa@sign+1)^(0+128),w
  4468  0115  1D03               	btfss	3,2
  4469  0116  2918               	goto	u4271
  4470  0117  2919               	goto	u4270
  4471  0118                     u4271:
  4472  0118  291E               	goto	l3245
  4473  0119                     u4270:
  4474  0119                     l3243:
  4475  0119  302B               	movlw	43
  4476  011A  00A0               	movwf	_efgtoa$915^(0+128)
  4477  011B  3000               	movlw	0
  4478  011C  00A1               	movwf	(_efgtoa$915^(0+128)+1)
  4479  011D  2922               	goto	l3247
  4480  011E                     l3245:
  4481  011E  302D               	movlw	45
  4482  011F  00A0               	movwf	_efgtoa$915^(0+128)
  4483  0120  3000               	movlw	0
  4484  0121  00A1               	movwf	(_efgtoa$915^(0+128)+1)
  4485  0122                     l3247:
  4486  0122  0820               	movf	_efgtoa$915^(0+128),w
  4487  0123  0020               	movlb	0	; select bank0
  4488  0124  00C6               	movwf	??_efgtoa
  4489  0125  0846               	movf	??_efgtoa,w
  4490  0126  0023               	movlb	3	; select bank3
  4491  0127  00A0               	movwf	_dbuf^(0+384)
  4492  0128                     l3249:
  4493                           
  4494                           ;C:\Program Files\Microchip\xc8\v2.31\pic\sources\c99\common\doprnt.c: 351:         ++n;
  4495  0128  3001               	movlw	1
  4496  0129  0021               	movlb	1	; select bank1
  4497  012A  07D3               	addwf	efgtoa@n^(0+128),f
  4498  012B  3000               	movlw	0
  4499  012C  3DD4               	addwfc	(efgtoa@n+1)^(0+128),f
  4500  012D                     l3251:
  4501                           
  4502                           ;C:\Program Files\Microchip\xc8\v2.31\pic\sources\c99\common\doprnt.c: 352:         --w;
  4503  012D  30FF               	movlw	255
  4504  012E  07BF               	addwf	efgtoa@w^(0+128),f
  4505  012F  30FF               	movlw	255
  4506  0130  3DC0               	addwfc	(efgtoa@w+1)^(0+128),f
  4507  0131                     l3253:
  4508                           
  4509                           ;C:\Program Files\Microchip\xc8\v2.31\pic\sources\c99\common\doprnt.c: 357:         if (
      +                          (0 ? isupper((int)c) : ((unsigned)((int)c)-'A') < 26)) {
  4510  0131  0850               	movf	(efgtoa@g+3)^(0+128),w
  4511  0132  00F3               	movwf	___fpclassifyf@x+3
  4512  0133  084F               	movf	(efgtoa@g+2)^(0+128),w
  4513  0134  00F2               	movwf	___fpclassifyf@x+2
  4514  0135  084E               	movf	(efgtoa@g+1)^(0+128),w
  4515  0136  00F1               	movwf	___fpclassifyf@x+1
  4516  0137  084D               	movf	efgtoa@g^(0+128),w
  4517  0138  00F0               	movwf	___fpclassifyf@x
  4518  0139  3196  260B  3180   	fcall	___fpclassifyf
  4519  013C  0370               	decf	?___fpclassifyf,w
  4520  013D  0471               	iorwf	?___fpclassifyf+1,w
  4521  013E  1D03               	btfss	3,2
  4522  013F  2941               	goto	u4281
  4523  0140  2942               	goto	u4280
  4524  0141                     u4281:
  4525  0141  2994               	goto	l3271
  4526  0142                     u4280:
  4527  0142                     l3255:
  4528  0142  0020               	movlb	0	; select bank0
  4529  0143  0845               	movf	efgtoa@c,w
  4530  0144  3EBF               	addlw	191
  4531  0145  00C6               	movwf	??_efgtoa
  4532  0146  30FF               	movlw	255
  4533  0147  1803               	skipnc
  4534  0148  3000               	movlw	0
  4535  0149  00C7               	movwf	??_efgtoa+1
  4536  014A  3000               	movlw	0
  4537  014B  0247               	subwf	??_efgtoa+1,w
  4538  014C  301A               	movlw	26
  4539  014D  1903               	skipnz
  4540  014E  0246               	subwf	??_efgtoa,w
  4541  014F  1C03               	skipc
  4542  0150  2952               	goto	u4291
  4543  0151  2954               	goto	u4290
  4544  0152                     u4291:
  4545  0152  3001               	movlw	1
  4546  0153  2955               	goto	u4300
  4547  0154                     u4290:
  4548  0154  3000               	movlw	0
  4549  0155                     u4300:
  4550  0155  00C8               	movwf	??_efgtoa+2
  4551  0156  01C9               	clrf	??_efgtoa+3
  4552  0157  0848               	movf	??_efgtoa+2,w
  4553  0158  0021               	movlb	1	; select bank1
  4554  0159  00A2               	movwf	_efgtoa$916^(0+128)
  4555  015A  0020               	movlb	0	; select bank0
  4556  015B  0849               	movf	??_efgtoa+3,w
  4557  015C  0021               	movlb	1	; select bank1
  4558  015D  00A3               	movwf	(_efgtoa$916+1)^(0+128)
  4559  015E                     l3259:
  4560  015E  0822               	movf	_efgtoa$916^(0+128),w
  4561  015F  0423               	iorwf	(_efgtoa$916+1)^(0+128),w
  4562  0160  1903               	btfsc	3,2
  4563  0161  2963               	goto	u4311
  4564  0162  2964               	goto	u4310
  4565  0163                     u4311:
  4566  0163  296E               	goto	l3263
  4567  0164                     u4310:
  4568  0164                     l3261:
  4569                           
  4570                           ;C:\Program Files\Microchip\xc8\v2.31\pic\sources\c99\common\doprnt.c: 358:             
      +                          strcpy(&dbuf[n], "INF");
  4571  0164  30EF               	movlw	low (STR_18| (0+32768))
  4572  0165  00F0               	movwf	strcpy@src
  4573  0166  3098               	movlw	high (STR_18| (0+32768))
  4574  0167  00F1               	movwf	strcpy@src+1
  4575  0168  0853               	movf	efgtoa@n^(0+128),w
  4576  0169  3EA0               	addlw	(low (_dbuf| (0+256)))& (0+255)
  4577  016A  3192  229E  3180   	fcall	_strcpy
  4578                           
  4579                           ;C:\Program Files\Microchip\xc8\v2.31\pic\sources\c99\common\doprnt.c: 359:         } el
      +                          se {
  4580  016D  2977               	goto	l3265
  4581  016E                     l3263:
  4582                           
  4583                           ;C:\Program Files\Microchip\xc8\v2.31\pic\sources\c99\common\doprnt.c: 360:             
      +                          strcpy(&dbuf[n], "inf");
  4584  016E  30F7               	movlw	low (STR_19| (0+32768))
  4585  016F  00F0               	movwf	strcpy@src
  4586  0170  3098               	movlw	high (STR_19| (0+32768))
  4587  0171  00F1               	movwf	strcpy@src+1
  4588  0172  0853               	movf	efgtoa@n^(0+128),w
  4589  0173  3EA0               	addlw	(low (_dbuf| (0+256)))& (0+255)
  4590  0174  3192  229E  3180   	fcall	_strcpy
  4591  0177                     l3265:
  4592                           
  4593                           ;C:\Program Files\Microchip\xc8\v2.31\pic\sources\c99\common\doprnt.c: 362:         w -=
      +                           ((sizeof("inf")/sizeof("inf"[0]))-1);
  4594  0177  30FD               	movlw	253
  4595  0178  0021               	movlb	1	; select bank1
  4596  0179  07BF               	addwf	efgtoa@w^(0+128),f
  4597  017A  30FF               	movlw	255
  4598  017B  3DC0               	addwfc	(efgtoa@w+1)^(0+128),f
  4599  017C                     l3267:
  4600                           
  4601                           ;C:\Program Files\Microchip\xc8\v2.31\pic\sources\c99\common\doprnt.c: 363:         retu
      +                          rn pad(fp, &dbuf[0], w);
  4602  017C  30A0               	movlw	(low (_dbuf| (0+256)))& (0+255)
  4603  017D  0020               	movlb	0	; select bank0
  4604  017E  00C6               	movwf	??_efgtoa
  4605  017F  0846               	movf	??_efgtoa,w
  4606  0180  00A4               	movwf	pad@buf
  4607  0181  0021               	movlb	1	; select bank1
  4608  0182  0840               	movf	(efgtoa@w+1)^(0+128),w
  4609  0183  0020               	movlb	0	; select bank0
  4610  0184  00A6               	movwf	pad@p+1
  4611  0185  0021               	movlb	1	; select bank1
  4612  0186  083F               	movf	efgtoa@w^(0+128),w
  4613  0187  0020               	movlb	0	; select bank0
  4614  0188  00A5               	movwf	pad@p
  4615  0189  0021               	movlb	1	; select bank1
  4616  018A  083E               	movf	efgtoa@fp^(0+128),w
  4617  018B  3194  24DF  3180   	fcall	_pad
  4618  018E  0020               	movlb	0	; select bank0
  4619  018F  0825               	movf	?_pad+1,w
  4620  0190  00C2               	movwf	?_efgtoa+1
  4621  0191  0824               	movf	?_pad,w
  4622  0192  00C1               	movwf	?_efgtoa
  4623  0193  2FEA               	goto	l873
  4624  0194                     l3271:
  4625                           
  4626                           ;C:\Program Files\Microchip\xc8\v2.31\pic\sources\c99\common\doprnt.c: 366:         if (
      +                          (0 ? isupper((int)c) : ((unsigned)((int)c)-'A') < 26)) {
  4627  0194  0021               	movlb	1	; select bank1
  4628  0195  0850               	movf	(efgtoa@g+3)^(0+128),w
  4629  0196  00F3               	movwf	___fpclassifyf@x+3
  4630  0197  084F               	movf	(efgtoa@g+2)^(0+128),w
  4631  0198  00F2               	movwf	___fpclassifyf@x+2
  4632  0199  084E               	movf	(efgtoa@g+1)^(0+128),w
  4633  019A  00F1               	movwf	___fpclassifyf@x+1
  4634  019B  084D               	movf	efgtoa@g^(0+128),w
  4635  019C  00F0               	movwf	___fpclassifyf@x
  4636  019D  3196  260B  3180   	fcall	___fpclassifyf
  4637  01A0  0870               	movf	?___fpclassifyf,w
  4638  01A1  0471               	iorwf	?___fpclassifyf+1,w
  4639  01A2  1D03               	btfss	3,2
  4640  01A3  29A5               	goto	u4321
  4641  01A4  29A6               	goto	u4320
  4642  01A5                     u4321:
  4643  01A5  29F8               	goto	l3289
  4644  01A6                     u4320:
  4645  01A6                     l3273:
  4646  01A6  0020               	movlb	0	; select bank0
  4647  01A7  0845               	movf	efgtoa@c,w
  4648  01A8  3EBF               	addlw	191
  4649  01A9  00C6               	movwf	??_efgtoa
  4650  01AA  30FF               	movlw	255
  4651  01AB  1803               	skipnc
  4652  01AC  3000               	movlw	0
  4653  01AD  00C7               	movwf	??_efgtoa+1
  4654  01AE  3000               	movlw	0
  4655  01AF  0247               	subwf	??_efgtoa+1,w
  4656  01B0  301A               	movlw	26
  4657  01B1  1903               	skipnz
  4658  01B2  0246               	subwf	??_efgtoa,w
  4659  01B3  1C03               	skipc
  4660  01B4  29B6               	goto	u4331
  4661  01B5  29B8               	goto	u4330
  4662  01B6                     u4331:
  4663  01B6  3001               	movlw	1
  4664  01B7  29B9               	goto	u4340
  4665  01B8                     u4330:
  4666  01B8  3000               	movlw	0
  4667  01B9                     u4340:
  4668  01B9  00C8               	movwf	??_efgtoa+2
  4669  01BA  01C9               	clrf	??_efgtoa+3
  4670  01BB  0848               	movf	??_efgtoa+2,w
  4671  01BC  0021               	movlb	1	; select bank1
  4672  01BD  00A4               	movwf	_efgtoa$921^(0+128)
  4673  01BE  0020               	movlb	0	; select bank0
  4674  01BF  0849               	movf	??_efgtoa+3,w
  4675  01C0  0021               	movlb	1	; select bank1
  4676  01C1  00A5               	movwf	(_efgtoa$921+1)^(0+128)
  4677  01C2                     l3277:
  4678  01C2  0824               	movf	_efgtoa$921^(0+128),w
  4679  01C3  0425               	iorwf	(_efgtoa$921+1)^(0+128),w
  4680  01C4  1903               	btfsc	3,2
  4681  01C5  29C7               	goto	u4351
  4682  01C6  29C8               	goto	u4350
  4683  01C7                     u4351:
  4684  01C7  29D2               	goto	l3281
  4685  01C8                     u4350:
  4686  01C8                     l3279:
  4687                           
  4688                           ;C:\Program Files\Microchip\xc8\v2.31\pic\sources\c99\common\doprnt.c: 367:             
      +                          strcpy(&dbuf[n], "NAN");
  4689  01C8  30F3               	movlw	low (STR_22| (0+32768))
  4690  01C9  00F0               	movwf	strcpy@src
  4691  01CA  3098               	movlw	high (STR_22| (0+32768))
  4692  01CB  00F1               	movwf	strcpy@src+1
  4693  01CC  0853               	movf	efgtoa@n^(0+128),w
  4694  01CD  3EA0               	addlw	(low (_dbuf| (0+256)))& (0+255)
  4695  01CE  3192  229E  3180   	fcall	_strcpy
  4696                           
  4697                           ;C:\Program Files\Microchip\xc8\v2.31\pic\sources\c99\common\doprnt.c: 368:         } el
      +                          se {
  4698  01D1  29DB               	goto	l3283
  4699  01D2                     l3281:
  4700                           
  4701                           ;C:\Program Files\Microchip\xc8\v2.31\pic\sources\c99\common\doprnt.c: 369:             
      +                          strcpy(&dbuf[n], "nan");
  4702  01D2  30FB               	movlw	low (STR_23| (0+32768))
  4703  01D3  00F0               	movwf	strcpy@src
  4704  01D4  3098               	movlw	high (STR_23| (0+32768))
  4705  01D5  00F1               	movwf	strcpy@src+1
  4706  01D6  0853               	movf	efgtoa@n^(0+128),w
  4707  01D7  3EA0               	addlw	(low (_dbuf| (0+256)))& (0+255)
  4708  01D8  3192  229E  3180   	fcall	_strcpy
  4709  01DB                     l3283:
  4710                           
  4711                           ;C:\Program Files\Microchip\xc8\v2.31\pic\sources\c99\common\doprnt.c: 371:         w -=
      +                           ((sizeof("inf")/sizeof("inf"[0]))-1);
  4712  01DB  30FD               	movlw	253
  4713  01DC  0021               	movlb	1	; select bank1
  4714  01DD  07BF               	addwf	efgtoa@w^(0+128),f
  4715  01DE  30FF               	movlw	255
  4716  01DF  3DC0               	addwfc	(efgtoa@w+1)^(0+128),f
  4717  01E0                     l3285:
  4718                           
  4719                           ;C:\Program Files\Microchip\xc8\v2.31\pic\sources\c99\common\doprnt.c: 372:         retu
      +                          rn pad(fp, &dbuf[0], w);
  4720  01E0  30A0               	movlw	(low (_dbuf| (0+256)))& (0+255)
  4721  01E1  0020               	movlb	0	; select bank0
  4722  01E2  00C6               	movwf	??_efgtoa
  4723  01E3  0846               	movf	??_efgtoa,w
  4724  01E4  00A4               	movwf	pad@buf
  4725  01E5  0021               	movlb	1	; select bank1
  4726  01E6  0840               	movf	(efgtoa@w+1)^(0+128),w
  4727  01E7  0020               	movlb	0	; select bank0
  4728  01E8  00A6               	movwf	pad@p+1
  4729  01E9  0021               	movlb	1	; select bank1
  4730  01EA  083F               	movf	efgtoa@w^(0+128),w
  4731  01EB  0020               	movlb	0	; select bank0
  4732  01EC  00A5               	movwf	pad@p
  4733  01ED  0021               	movlb	1	; select bank1
  4734  01EE  083E               	movf	efgtoa@fp^(0+128),w
  4735  01EF  3194  24DF  3180   	fcall	_pad
  4736  01F2  0020               	movlb	0	; select bank0
  4737  01F3  0825               	movf	?_pad+1,w
  4738  01F4  00C2               	movwf	?_efgtoa+1
  4739  01F5  0824               	movf	?_pad,w
  4740  01F6  00C1               	movwf	?_efgtoa
  4741  01F7  2FEA               	goto	l873
  4742  01F8                     l3289:
  4743                           
  4744                           ;C:\Program Files\Microchip\xc8\v2.31\pic\sources\c99\common\doprnt.c: 376:     u = 1.0;
  4745  01F8  303F               	movlw	63
  4746  01F9  0021               	movlb	1	; select bank1
  4747  01FA  00D8               	movwf	(efgtoa@u+3)^(0+128)
  4748  01FB  3080               	movlw	128
  4749  01FC  00D7               	movwf	(efgtoa@u+2)^(0+128)
  4750  01FD  3000               	movlw	0
  4751  01FE  00D6               	movwf	(efgtoa@u+1)^(0+128)
  4752  01FF  3000               	movlw	0
  4753  0200  00D5               	movwf	efgtoa@u^(0+128)
  4754  0201                     l3291:
  4755                           
  4756                           ;C:\Program Files\Microchip\xc8\v2.31\pic\sources\c99\common\doprnt.c: 377:     e = 0;
  4757  0201  01D1               	clrf	efgtoa@e^(0+128)
  4758  0202  01D2               	clrf	(efgtoa@e+1)^(0+128)
  4759  0203                     l3293:
  4760                           
  4761                           ;C:\Program Files\Microchip\xc8\v2.31\pic\sources\c99\common\doprnt.c: 378:     if (!(g 
      +                          == 0.0)) {
  4762  0203  0850               	movf	(efgtoa@g+3)^(0+128),w
  4763  0204  00F3               	movwf	___fleq@ff1+3
  4764  0205  084F               	movf	(efgtoa@g+2)^(0+128),w
  4765  0206  00F2               	movwf	___fleq@ff1+2
  4766  0207  084E               	movf	(efgtoa@g+1)^(0+128),w
  4767  0208  00F1               	movwf	___fleq@ff1+1
  4768  0209  084D               	movf	efgtoa@g^(0+128),w
  4769  020A  00F0               	movwf	___fleq@ff1
  4770  020B  3000               	movlw	0
  4771  020C  00F7               	movwf	___fleq@ff2+3
  4772  020D  3000               	movlw	0
  4773  020E  00F6               	movwf	___fleq@ff2+2
  4774  020F  3000               	movlw	0
  4775  0210  00F5               	movwf	___fleq@ff2+1
  4776  0211  3000               	movlw	0
  4777  0212  00F4               	movwf	___fleq@ff2
  4778  0213  3193  23E6  3180   	fcall	___fleq
  4779  0216  1803               	btfsc	3,0
  4780  0217  2A19               	goto	u4361
  4781  0218  2A1A               	goto	u4360
  4782  0219                     u4361:
  4783  0219  2ACF               	goto	l3309
  4784  021A                     u4360:
  4785  021A  2A4B               	goto	l3301
  4786  021B                     l3297:
  4787                           
  4788                           ;C:\Program Files\Microchip\xc8\v2.31\pic\sources\c99\common\doprnt.c: 380:             
      +                          u = u*10.0;
  4789  021B  3041               	movlw	65
  4790  021C  0020               	movlb	0	; select bank0
  4791  021D  00A3               	movwf	___flmul@b+3
  4792  021E  3020               	movlw	32
  4793  021F  00A2               	movwf	___flmul@b+2
  4794  0220  3000               	movlw	0
  4795  0221  00A1               	movwf	___flmul@b+1
  4796  0222  3000               	movlw	0
  4797  0223  00A0               	movwf	___flmul@b
  4798  0224  0021               	movlb	1	; select bank1
  4799  0225  0858               	movf	(efgtoa@u+3)^(0+128),w
  4800  0226  0020               	movlb	0	; select bank0
  4801  0227  00A7               	movwf	___flmul@a+3
  4802  0228  0021               	movlb	1	; select bank1
  4803  0229  0857               	movf	(efgtoa@u+2)^(0+128),w
  4804  022A  0020               	movlb	0	; select bank0
  4805  022B  00A6               	movwf	___flmul@a+2
  4806  022C  0021               	movlb	1	; select bank1
  4807  022D  0856               	movf	(efgtoa@u+1)^(0+128),w
  4808  022E  0020               	movlb	0	; select bank0
  4809  022F  00A5               	movwf	___flmul@a+1
  4810  0230  0021               	movlb	1	; select bank1
  4811  0231  0855               	movf	efgtoa@u^(0+128),w
  4812  0232  0020               	movlb	0	; select bank0
  4813  0233  00A4               	movwf	___flmul@a
  4814  0234  318D  25A9  3180   	fcall	___flmul
  4815  0237  0020               	movlb	0	; select bank0
  4816  0238  0823               	movf	?___flmul+3,w
  4817  0239  0021               	movlb	1	; select bank1
  4818  023A  00D8               	movwf	(efgtoa@u+3)^(0+128)
  4819  023B  0020               	movlb	0	; select bank0
  4820  023C  0822               	movf	?___flmul+2,w
  4821  023D  0021               	movlb	1	; select bank1
  4822  023E  00D7               	movwf	(efgtoa@u+2)^(0+128)
  4823  023F  0020               	movlb	0	; select bank0
  4824  0240  0821               	movf	?___flmul+1,w
  4825  0241  0021               	movlb	1	; select bank1
  4826  0242  00D6               	movwf	(efgtoa@u+1)^(0+128)
  4827  0243  0020               	movlb	0	; select bank0
  4828  0244  0820               	movf	?___flmul,w
  4829  0245  0021               	movlb	1	; select bank1
  4830  0246  00D5               	movwf	efgtoa@u^(0+128)
  4831  0247                     l3299:
  4832                           
  4833                           ;C:\Program Files\Microchip\xc8\v2.31\pic\sources\c99\common\doprnt.c: 381:             
      +                          ++e;
  4834  0247  3001               	movlw	1
  4835  0248  07D1               	addwf	efgtoa@e^(0+128),f
  4836  0249  3000               	movlw	0
  4837  024A  3DD2               	addwfc	(efgtoa@e+1)^(0+128),f
  4838  024B                     l3301:
  4839                           
  4840                           ;C:\Program Files\Microchip\xc8\v2.31\pic\sources\c99\common\doprnt.c: 379:         whil
      +                          e (!(g < (u*10.0))) {
  4841  024B  0021               	movlb	1	; select bank1
  4842  024C  0850               	movf	(efgtoa@g+3)^(0+128),w
  4843  024D  0020               	movlb	0	; select bank0
  4844  024E  00B8               	movwf	___flge@ff1+3
  4845  024F  0021               	movlb	1	; select bank1
  4846  0250  084F               	movf	(efgtoa@g+2)^(0+128),w
  4847  0251  0020               	movlb	0	; select bank0
  4848  0252  00B7               	movwf	___flge@ff1+2
  4849  0253  0021               	movlb	1	; select bank1
  4850  0254  084E               	movf	(efgtoa@g+1)^(0+128),w
  4851  0255  0020               	movlb	0	; select bank0
  4852  0256  00B6               	movwf	___flge@ff1+1
  4853  0257  0021               	movlb	1	; select bank1
  4854  0258  084D               	movf	efgtoa@g^(0+128),w
  4855  0259  0020               	movlb	0	; select bank0
  4856  025A  00B5               	movwf	___flge@ff1
  4857  025B  3041               	movlw	65
  4858  025C  00A3               	movwf	___flmul@b+3
  4859  025D  3020               	movlw	32
  4860  025E  00A2               	movwf	___flmul@b+2
  4861  025F  3000               	movlw	0
  4862  0260  00A1               	movwf	___flmul@b+1
  4863  0261  3000               	movlw	0
  4864  0262  00A0               	movwf	___flmul@b
  4865  0263  0021               	movlb	1	; select bank1
  4866  0264  0858               	movf	(efgtoa@u+3)^(0+128),w
  4867  0265  0020               	movlb	0	; select bank0
  4868  0266  00A7               	movwf	___flmul@a+3
  4869  0267  0021               	movlb	1	; select bank1
  4870  0268  0857               	movf	(efgtoa@u+2)^(0+128),w
  4871  0269  0020               	movlb	0	; select bank0
  4872  026A  00A6               	movwf	___flmul@a+2
  4873  026B  0021               	movlb	1	; select bank1
  4874  026C  0856               	movf	(efgtoa@u+1)^(0+128),w
  4875  026D  0020               	movlb	0	; select bank0
  4876  026E  00A5               	movwf	___flmul@a+1
  4877  026F  0021               	movlb	1	; select bank1
  4878  0270  0855               	movf	efgtoa@u^(0+128),w
  4879  0271  0020               	movlb	0	; select bank0
  4880  0272  00A4               	movwf	___flmul@a
  4881  0273  318D  25A9  3180   	fcall	___flmul
  4882  0276  0020               	movlb	0	; select bank0
  4883  0277  0823               	movf	?___flmul+3,w
  4884  0278  00BC               	movwf	___flge@ff2+3
  4885  0279  0822               	movf	?___flmul+2,w
  4886  027A  00BB               	movwf	___flge@ff2+2
  4887  027B  0821               	movf	?___flmul+1,w
  4888  027C  00BA               	movwf	___flge@ff2+1
  4889  027D  0820               	movf	?___flmul,w
  4890  027E  00B9               	movwf	___flge@ff2
  4891  027F  3196  268A  3180   	fcall	___flge
  4892  0282  1803               	btfsc	3,0
  4893  0283  2A85               	goto	u4371
  4894  0284  2A86               	goto	u4370
  4895  0285                     u4371:
  4896  0285  2A1B               	goto	l3297
  4897  0286                     u4370:
  4898  0286  2AA8               	goto	l3307
  4899  0287                     l3303:
  4900                           
  4901                           ;C:\Program Files\Microchip\xc8\v2.31\pic\sources\c99\common\doprnt.c: 384:             
      +                          u = u/10.0;
  4902  0287  3041               	movlw	65
  4903  0288  00F3               	movwf	___fldiv@a+3
  4904  0289  3020               	movlw	32
  4905  028A  00F2               	movwf	___fldiv@a+2
  4906  028B  3000               	movlw	0
  4907  028C  00F1               	movwf	___fldiv@a+1
  4908  028D  3000               	movlw	0
  4909  028E  00F0               	movwf	___fldiv@a
  4910  028F  0021               	movlb	1	; select bank1
  4911  0290  0858               	movf	(efgtoa@u+3)^(0+128),w
  4912  0291  00F7               	movwf	___fldiv@b+3
  4913  0292  0857               	movf	(efgtoa@u+2)^(0+128),w
  4914  0293  00F6               	movwf	___fldiv@b+2
  4915  0294  0856               	movf	(efgtoa@u+1)^(0+128),w
  4916  0295  00F5               	movwf	___fldiv@b+1
  4917  0296  0855               	movf	efgtoa@u^(0+128),w
  4918  0297  00F4               	movwf	___fldiv@b
  4919  0298  3189  21B6  3180   	fcall	___fldiv
  4920  029B  0873               	movf	?___fldiv+3,w
  4921  029C  0021               	movlb	1	; select bank1
  4922  029D  00D8               	movwf	(efgtoa@u+3)^(0+128)
  4923  029E  0872               	movf	?___fldiv+2,w
  4924  029F  00D7               	movwf	(efgtoa@u+2)^(0+128)
  4925  02A0  0871               	movf	?___fldiv+1,w
  4926  02A1  00D6               	movwf	(efgtoa@u+1)^(0+128)
  4927  02A2  0870               	movf	?___fldiv,w
  4928  02A3  00D5               	movwf	efgtoa@u^(0+128)
  4929  02A4                     l3305:
  4930                           
  4931                           ;C:\Program Files\Microchip\xc8\v2.31\pic\sources\c99\common\doprnt.c: 385:             
      +                          --e;
  4932  02A4  30FF               	movlw	255
  4933  02A5  07D1               	addwf	efgtoa@e^(0+128),f
  4934  02A6  30FF               	movlw	255
  4935  02A7  3DD2               	addwfc	(efgtoa@e+1)^(0+128),f
  4936  02A8                     l3307:
  4937                           
  4938                           ;C:\Program Files\Microchip\xc8\v2.31\pic\sources\c99\common\doprnt.c: 383:         whil
      +                          e (g < u) {
  4939  02A8  0021               	movlb	1	; select bank1
  4940  02A9  0850               	movf	(efgtoa@g+3)^(0+128),w
  4941  02AA  0020               	movlb	0	; select bank0
  4942  02AB  00B8               	movwf	___flge@ff1+3
  4943  02AC  0021               	movlb	1	; select bank1
  4944  02AD  084F               	movf	(efgtoa@g+2)^(0+128),w
  4945  02AE  0020               	movlb	0	; select bank0
  4946  02AF  00B7               	movwf	___flge@ff1+2
  4947  02B0  0021               	movlb	1	; select bank1
  4948  02B1  084E               	movf	(efgtoa@g+1)^(0+128),w
  4949  02B2  0020               	movlb	0	; select bank0
  4950  02B3  00B6               	movwf	___flge@ff1+1
  4951  02B4  0021               	movlb	1	; select bank1
  4952  02B5  084D               	movf	efgtoa@g^(0+128),w
  4953  02B6  0020               	movlb	0	; select bank0
  4954  02B7  00B5               	movwf	___flge@ff1
  4955  02B8  0021               	movlb	1	; select bank1
  4956  02B9  0858               	movf	(efgtoa@u+3)^(0+128),w
  4957  02BA  0020               	movlb	0	; select bank0
  4958  02BB  00BC               	movwf	___flge@ff2+3
  4959  02BC  0021               	movlb	1	; select bank1
  4960  02BD  0857               	movf	(efgtoa@u+2)^(0+128),w
  4961  02BE  0020               	movlb	0	; select bank0
  4962  02BF  00BB               	movwf	___flge@ff2+2
  4963  02C0  0021               	movlb	1	; select bank1
  4964  02C1  0856               	movf	(efgtoa@u+1)^(0+128),w
  4965  02C2  0020               	movlb	0	; select bank0
  4966  02C3  00BA               	movwf	___flge@ff2+1
  4967  02C4  0021               	movlb	1	; select bank1
  4968  02C5  0855               	movf	efgtoa@u^(0+128),w
  4969  02C6  0020               	movlb	0	; select bank0
  4970  02C7  00B9               	movwf	___flge@ff2
  4971  02C8  3196  268A  3180   	fcall	___flge
  4972  02CB  1C03               	btfss	3,0
  4973  02CC  2ACE               	goto	u4381
  4974  02CD  2ACF               	goto	u4380
  4975  02CE                     u4381:
  4976  02CE  2A87               	goto	l3303
  4977  02CF                     u4380:
  4978  02CF                     l3309:
  4979                           
  4980                           ;C:\Program Files\Microchip\xc8\v2.31\pic\sources\c99\common\doprnt.c: 390:     mode = (
      +                          char)tolower((int)c);
  4981  02CF  0020               	movlb	0	; select bank0
  4982  02D0  0845               	movf	efgtoa@c,w
  4983  02D1  00C6               	movwf	??_efgtoa
  4984  02D2  01C7               	clrf	??_efgtoa+1
  4985  02D3  0846               	movf	??_efgtoa,w
  4986  02D4  00F6               	movwf	tolower@c
  4987  02D5  0847               	movf	??_efgtoa+1,w
  4988  02D6  00F7               	movwf	tolower@c+1
  4989  02D7  3192  22E1  3180   	fcall	_tolower
  4990  02DA  0876               	movf	?_tolower,w
  4991  02DB  0020               	movlb	0	; select bank0
  4992  02DC  00C8               	movwf	??_efgtoa+2
  4993  02DD  0848               	movf	??_efgtoa+2,w
  4994  02DE  0021               	movlb	1	; select bank1
  4995  02DF  00C2               	movwf	efgtoa@mode^(0+128)
  4996  02E0                     l3311:
  4997                           
  4998                           ;C:\Program Files\Microchip\xc8\v2.31\pic\sources\c99\common\doprnt.c: 391:     nmode = 
      +                          mode;
  4999  02E0  0842               	movf	efgtoa@mode^(0+128),w
  5000  02E1  0020               	movlb	0	; select bank0
  5001  02E2  00C6               	movwf	??_efgtoa
  5002  02E3  0846               	movf	??_efgtoa,w
  5003  02E4  0021               	movlb	1	; select bank1
  5004  02E5  00C1               	movwf	efgtoa@nmode^(0+128)
  5005  02E6                     l3313:
  5006                           
  5007                           ;C:\Program Files\Microchip\xc8\v2.31\pic\sources\c99\common\doprnt.c: 392:     if (mode
      +                           == 'g') {
  5008  02E6  3067               	movlw	103
  5009  02E7  0642               	xorwf	efgtoa@mode^(0+128),w
  5010  02E8  1D03               	btfss	3,2
  5011  02E9  2AEB               	goto	u4391
  5012  02EA  2AEC               	goto	u4390
  5013  02EB                     u4391:
  5014  02EB  2B11               	goto	l888
  5015  02EC                     u4390:
  5016  02EC                     l3315:
  5017                           
  5018                           ;C:\Program Files\Microchip\xc8\v2.31\pic\sources\c99\common\doprnt.c: 393:   if (prec =
      +                          = 0) {
  5019  02EC  0869               	movf	_prec^(0+128),w
  5020  02ED  046A               	iorwf	(_prec+1)^(0+128),w
  5021  02EE  1D03               	btfss	3,2
  5022  02EF  2AF1               	goto	u4401
  5023  02F0  2AF2               	goto	u4400
  5024  02F1                     u4401:
  5025  02F1  2AF6               	goto	l889
  5026  02F2                     u4400:
  5027  02F2                     l3317:
  5028                           
  5029                           ;C:\Program Files\Microchip\xc8\v2.31\pic\sources\c99\common\doprnt.c: 394:    prec = 1;
  5030  02F2  3001               	movlw	1
  5031  02F3  00E9               	movwf	_prec^(0+128)
  5032  02F4  3000               	movlw	0
  5033  02F5  00EA               	movwf	(_prec^(0+128)+1)
  5034  02F6                     l889:	
  5035                           ;C:\Program Files\Microchip\xc8\v2.31\pic\sources\c99\common\doprnt.c: 395:   }
  5036                           
  5037                           
  5038                           ;C:\Program Files\Microchip\xc8\v2.31\pic\sources\c99\common\doprnt.c: 396:         p = 
      +                          (0 < prec) ? prec : 6;
  5039  02F6  086A               	movf	(_prec+1)^(0+128),w
  5040  02F7  3A80               	xorlw	128
  5041  02F8  0020               	movlb	0	; select bank0
  5042  02F9  00C6               	movwf	??_efgtoa
  5043  02FA  3080               	movlw	128
  5044  02FB  0246               	subwf	??_efgtoa,w
  5045  02FC  1D03               	skipz
  5046  02FD  2B01               	goto	u4415
  5047  02FE  3001               	movlw	1
  5048  02FF  0021               	movlb	1	; select bank1
  5049  0300  0269               	subwf	_prec^(0+128),w
  5050  0301                     u4415:
  5051  0301  1803               	skipnc
  5052  0302  2B04               	goto	u4411
  5053  0303  2B05               	goto	u4410
  5054  0304                     u4411:
  5055  0304  2B0B               	goto	l3321
  5056  0305                     u4410:
  5057  0305                     l3319:
  5058  0305  3006               	movlw	6
  5059  0306  0021               	movlb	1	; select bank1
  5060  0307  00BC               	movwf	efgtoa@p^(0+128)
  5061  0308  3000               	movlw	0
  5062  0309  00BD               	movwf	(efgtoa@p^(0+128)+1)
  5063  030A  2B16               	goto	l3327
  5064  030B                     l3321:
  5065  030B  0021               	movlb	1	; select bank1
  5066  030C  086A               	movf	(_prec+1)^(0+128),w
  5067  030D  00BD               	movwf	(efgtoa@p+1)^(0+128)
  5068  030E  0869               	movf	_prec^(0+128),w
  5069  030F  00BC               	movwf	efgtoa@p^(0+128)
  5070  0310  2B16               	goto	l3327
  5071  0311                     l888:
  5072                           
  5073                           ;C:\Program Files\Microchip\xc8\v2.31\pic\sources\c99\common\doprnt.c: 398:         p = 
      +                          (prec < 0) ? 6 : prec;
  5074  0311  1BEA               	btfsc	(_prec+1)^(0+128),7
  5075  0312  2B14               	goto	u4421
  5076  0313  2B15               	goto	u4420
  5077  0314                     u4421:
  5078  0314  2B05               	goto	l3319
  5079  0315                     u4420:
  5080  0315  2B0B               	goto	l3321
  5081  0316                     l3327:
  5082                           
  5083                           ;C:\Program Files\Microchip\xc8\v2.31\pic\sources\c99\common\doprnt.c: 402:     if (mode
      +                           == 'g') {
  5084  0316  3067               	movlw	103
  5085  0317  0642               	xorwf	efgtoa@mode^(0+128),w
  5086  0318  1D03               	btfss	3,2
  5087  0319  2B1B               	goto	u4431
  5088  031A  2B1C               	goto	u4430
  5089  031B                     u4431:
  5090  031B  2B54               	goto	l899
  5091  031C                     u4430:
  5092  031C                     l3329:
  5093                           
  5094                           ;C:\Program Files\Microchip\xc8\v2.31\pic\sources\c99\common\doprnt.c: 403:         if (
      +                          !(e < -4) && !((p - 1) < e)) {
  5095  031C  0852               	movf	(efgtoa@e+1)^(0+128),w
  5096  031D  3A80               	xorlw	128
  5097  031E  0020               	movlb	0	; select bank0
  5098  031F  00C6               	movwf	??_efgtoa
  5099  0320  307F               	movlw	127
  5100  0321  0246               	subwf	??_efgtoa,w
  5101  0322  1D03               	skipz
  5102  0323  2B27               	goto	u4445
  5103  0324  30FC               	movlw	252
  5104  0325  0021               	movlb	1	; select bank1
  5105  0326  0251               	subwf	efgtoa@e^(0+128),w
  5106  0327                     u4445:
  5107  0327  1C03               	skipc
  5108  0328  2B2A               	goto	u4441
  5109  0329  2B2B               	goto	u4440
  5110  032A                     u4441:
  5111  032A  2B4E               	goto	l3335
  5112  032B                     u4440:
  5113  032B                     l3331:
  5114  032B  0021               	movlb	1	; select bank1
  5115  032C  083C               	movf	efgtoa@p^(0+128),w
  5116  032D  3EFF               	addlw	255
  5117  032E  0020               	movlb	0	; select bank0
  5118  032F  00C6               	movwf	??_efgtoa
  5119  0330  30FF               	movlw	255
  5120  0331  0021               	movlb	1	; select bank1
  5121  0332  3D3D               	addwfc	(efgtoa@p+1)^(0+128),w
  5122  0333  0020               	movlb	0	; select bank0
  5123  0334  00C7               	movwf	??_efgtoa+1
  5124  0335  0847               	movf	??_efgtoa+1,w
  5125  0336  3A80               	xorlw	128
  5126  0337  00C8               	movwf	??_efgtoa+2
  5127  0338  0021               	movlb	1	; select bank1
  5128  0339  0852               	movf	(efgtoa@e+1)^(0+128),w
  5129  033A  3A80               	xorlw	128
  5130  033B  0020               	movlb	0	; select bank0
  5131  033C  0248               	subwf	??_efgtoa+2,w
  5132  033D  1D03               	skipz
  5133  033E  2B43               	goto	u4455
  5134  033F  0021               	movlb	1	; select bank1
  5135  0340  0851               	movf	efgtoa@e^(0+128),w
  5136  0341  0020               	movlb	0	; select bank0
  5137  0342  0246               	subwf	??_efgtoa,w
  5138  0343                     u4455:
  5139  0343  1C03               	skipc
  5140  0344  2B46               	goto	u4451
  5141  0345  2B47               	goto	u4450
  5142  0346                     u4451:
  5143  0346  2B4E               	goto	l3335
  5144  0347                     u4450:
  5145  0347                     l3333:
  5146                           
  5147                           ;C:\Program Files\Microchip\xc8\v2.31\pic\sources\c99\common\doprnt.c: 404:             
      +                          nmode = 'f';
  5148  0347  3066               	movlw	102
  5149  0348  0020               	movlb	0	; select bank0
  5150  0349  00C6               	movwf	??_efgtoa
  5151  034A  0846               	movf	??_efgtoa,w
  5152  034B  0021               	movlb	1	; select bank1
  5153  034C  00C1               	movwf	efgtoa@nmode^(0+128)
  5154                           
  5155                           ;C:\Program Files\Microchip\xc8\v2.31\pic\sources\c99\common\doprnt.c: 405:         } el
      +                          se {
  5156  034D  2B54               	goto	l899
  5157  034E                     l3335:
  5158                           
  5159                           ;C:\Program Files\Microchip\xc8\v2.31\pic\sources\c99\common\doprnt.c: 406:             
      +                          nmode = 'e';
  5160  034E  3065               	movlw	101
  5161  034F  0020               	movlb	0	; select bank0
  5162  0350  00C6               	movwf	??_efgtoa
  5163  0351  0846               	movf	??_efgtoa,w
  5164  0352  0021               	movlb	1	; select bank1
  5165  0353  00C1               	movwf	efgtoa@nmode^(0+128)
  5166  0354                     l899:	
  5167                           ;C:\Program Files\Microchip\xc8\v2.31\pic\sources\c99\common\doprnt.c: 408:     }
  5168                           
  5169                           
  5170                           ;C:\Program Files\Microchip\xc8\v2.31\pic\sources\c99\common\doprnt.c: 411:     m = p;
  5171  0354  083D               	movf	(efgtoa@p+1)^(0+128),w
  5172  0355  00B3               	movwf	(efgtoa@m+1)^(0+128)
  5173  0356  083C               	movf	efgtoa@p^(0+128),w
  5174  0357  00B2               	movwf	efgtoa@m^(0+128)
  5175  0358                     l3337:
  5176                           
  5177                           ;C:\Program Files\Microchip\xc8\v2.31\pic\sources\c99\common\doprnt.c: 412:     if (!(mo
      +                          de == 'g') || ((nmode == 'f') && (e < 0))) {
  5178  0358  3067               	movlw	103
  5179  0359  0642               	xorwf	efgtoa@mode^(0+128),w
  5180  035A  1D03               	btfss	3,2
  5181  035B  2B5D               	goto	u4461
  5182  035C  2B5E               	goto	u4460
  5183  035D                     u4461:
  5184  035D  2B68               	goto	l3343
  5185  035E                     u4460:
  5186  035E                     l3339:
  5187  035E  3066               	movlw	102
  5188  035F  0641               	xorwf	efgtoa@nmode^(0+128),w
  5189  0360  1D03               	btfss	3,2
  5190  0361  2B63               	goto	u4471
  5191  0362  2B64               	goto	u4470
  5192  0363                     u4471:
  5193  0363  2B6C               	goto	l3345
  5194  0364                     u4470:
  5195  0364                     l3341:
  5196  0364  1FD2               	btfss	(efgtoa@e+1)^(0+128),7
  5197  0365  2B67               	goto	u4481
  5198  0366  2B68               	goto	u4480
  5199  0367                     u4481:
  5200  0367  2B6C               	goto	l3345
  5201  0368                     u4480:
  5202  0368                     l3343:
  5203                           
  5204                           ;C:\Program Files\Microchip\xc8\v2.31\pic\sources\c99\common\doprnt.c: 413:         ++m;
  5205  0368  3001               	movlw	1
  5206  0369  07B2               	addwf	efgtoa@m^(0+128),f
  5207  036A  3000               	movlw	0
  5208  036B  3DB3               	addwfc	(efgtoa@m+1)^(0+128),f
  5209  036C                     l3345:
  5210                           
  5211                           ;C:\Program Files\Microchip\xc8\v2.31\pic\sources\c99\common\doprnt.c: 417:     if (nmod
      +                          e == 'f') {
  5212  036C  3066               	movlw	102
  5213  036D  0641               	xorwf	efgtoa@nmode^(0+128),w
  5214  036E  1D03               	btfss	3,2
  5215  036F  2B71               	goto	u4491
  5216  0370  2B72               	goto	u4490
  5217  0371                     u4491:
  5218  0371  2B8A               	goto	l3357
  5219  0372                     u4490:
  5220  0372                     l3347:
  5221                           
  5222                           ;C:\Program Files\Microchip\xc8\v2.31\pic\sources\c99\common\doprnt.c: 418:         if (
      +                          e < 0) {
  5223  0372  1FD2               	btfss	(efgtoa@e+1)^(0+128),7
  5224  0373  2B75               	goto	u4501
  5225  0374  2B76               	goto	u4500
  5226  0375                     u4501:
  5227  0375  2B80               	goto	l3353
  5228  0376                     u4500:
  5229  0376                     l3349:
  5230                           
  5231                           ;C:\Program Files\Microchip\xc8\v2.31\pic\sources\c99\common\doprnt.c: 419:             
      +                          u = 1.0;
  5232  0376  303F               	movlw	63
  5233  0377  00D8               	movwf	(efgtoa@u+3)^(0+128)
  5234  0378  3080               	movlw	128
  5235  0379  00D7               	movwf	(efgtoa@u+2)^(0+128)
  5236  037A  3000               	movlw	0
  5237  037B  00D6               	movwf	(efgtoa@u+1)^(0+128)
  5238  037C  3000               	movlw	0
  5239  037D  00D5               	movwf	efgtoa@u^(0+128)
  5240  037E                     l3351:
  5241                           
  5242                           ;C:\Program Files\Microchip\xc8\v2.31\pic\sources\c99\common\doprnt.c: 420:             
      +                          e = 0;
  5243  037E  01D1               	clrf	efgtoa@e^(0+128)
  5244  037F  01D2               	clrf	(efgtoa@e+1)^(0+128)
  5245  0380                     l3353:
  5246                           
  5247                           ;C:\Program Files\Microchip\xc8\v2.31\pic\sources\c99\common\doprnt.c: 422:         if (
      +                          !(mode == 'g')) {
  5248  0380  3067               	movlw	103
  5249  0381  0642               	xorwf	efgtoa@mode^(0+128),w
  5250  0382  1903               	btfsc	3,2
  5251  0383  2B85               	goto	u4511
  5252  0384  2B86               	goto	u4510
  5253  0385                     u4511:
  5254  0385  2B8A               	goto	l3357
  5255  0386                     u4510:
  5256  0386                     l3355:
  5257                           
  5258                           ;C:\Program Files\Microchip\xc8\v2.31\pic\sources\c99\common\doprnt.c: 423:             
      +                          m += e;
  5259  0386  0851               	movf	efgtoa@e^(0+128),w
  5260  0387  07B2               	addwf	efgtoa@m^(0+128),f
  5261  0388  0852               	movf	(efgtoa@e+1)^(0+128),w
  5262  0389  3DB3               	addwfc	(efgtoa@m+1)^(0+128),f
  5263  038A                     l3357:
  5264                           
  5265                           ;C:\Program Files\Microchip\xc8\v2.31\pic\sources\c99\common\doprnt.c: 428:     i = 0;
  5266  038A  01CB               	clrf	efgtoa@i^(0+128)
  5267  038B  01CC               	clrf	(efgtoa@i+1)^(0+128)
  5268  038C                     l3359:
  5269                           
  5270                           ;C:\Program Files\Microchip\xc8\v2.31\pic\sources\c99\common\doprnt.c: 429:     h = g;
  5271  038C  0850               	movf	(efgtoa@g+3)^(0+128),w
  5272  038D  00C6               	movwf	(efgtoa@h+3)^(0+128)
  5273  038E  084F               	movf	(efgtoa@g+2)^(0+128),w
  5274  038F  00C5               	movwf	(efgtoa@h+2)^(0+128)
  5275  0390  084E               	movf	(efgtoa@g+1)^(0+128),w
  5276  0391  00C4               	movwf	(efgtoa@h+1)^(0+128)
  5277  0392  084D               	movf	efgtoa@g^(0+128),w
  5278  0393  00C3               	movwf	efgtoa@h^(0+128)
  5279  0394                     l3361:
  5280                           
  5281                           ;C:\Program Files\Microchip\xc8\v2.31\pic\sources\c99\common\doprnt.c: 430:     ou = u;
  5282  0394  0858               	movf	(efgtoa@u+3)^(0+128),w
  5283  0395  00B7               	movwf	(efgtoa@ou+3)^(0+128)
  5284  0396  0857               	movf	(efgtoa@u+2)^(0+128),w
  5285  0397  00B6               	movwf	(efgtoa@ou+2)^(0+128)
  5286  0398  0856               	movf	(efgtoa@u+1)^(0+128),w
  5287  0399  00B5               	movwf	(efgtoa@ou+1)^(0+128)
  5288  039A  0855               	movf	efgtoa@u^(0+128),w
  5289  039B  00B4               	movwf	efgtoa@ou^(0+128)
  5290                           
  5291                           ;C:\Program Files\Microchip\xc8\v2.31\pic\sources\c99\common\doprnt.c: 431:     while (i
      +                           < m) {
  5292  039C  2C4B               	goto	l3367
  5293  039D                     l3363:
  5294                           
  5295                           ;C:\Program Files\Microchip\xc8\v2.31\pic\sources\c99\common\doprnt.c: 432:         l = 
      +                          floorf(h/u);
  5296  039D  0021               	movlb	1	; select bank1
  5297  039E  0858               	movf	(efgtoa@u+3)^(0+128),w
  5298  039F  00F3               	movwf	___fldiv@a+3
  5299  03A0  0857               	movf	(efgtoa@u+2)^(0+128),w
  5300  03A1  00F2               	movwf	___fldiv@a+2
  5301  03A2  0856               	movf	(efgtoa@u+1)^(0+128),w
  5302  03A3  00F1               	movwf	___fldiv@a+1
  5303  03A4  0855               	movf	efgtoa@u^(0+128),w
  5304  03A5  00F0               	movwf	___fldiv@a
  5305  03A6  0846               	movf	(efgtoa@h+3)^(0+128),w
  5306  03A7  00F7               	movwf	___fldiv@b+3
  5307  03A8  0845               	movf	(efgtoa@h+2)^(0+128),w
  5308  03A9  00F6               	movwf	___fldiv@b+2
  5309  03AA  0844               	movf	(efgtoa@h+1)^(0+128),w
  5310  03AB  00F5               	movwf	___fldiv@b+1
  5311  03AC  0843               	movf	efgtoa@h^(0+128),w
  5312  03AD  00F4               	movwf	___fldiv@b
  5313  03AE  3189  21B6  3180   	fcall	___fldiv
  5314  03B1  0873               	movf	?___fldiv+3,w
  5315  03B2  0020               	movlb	0	; select bank0
  5316  03B3  00B0               	movwf	floorf@x+3
  5317  03B4  0872               	movf	?___fldiv+2,w
  5318  03B5  00AF               	movwf	floorf@x+2
  5319  03B6  0871               	movf	?___fldiv+1,w
  5320  03B7  00AE               	movwf	floorf@x+1
  5321  03B8  0870               	movf	?___fldiv,w
  5322  03B9  00AD               	movwf	floorf@x
  5323  03BA  3197  2715  3180   	fcall	_floorf
  5324  03BD  0020               	movlb	0	; select bank0
  5325  03BE  0830               	movf	?_floorf+3,w
  5326  03BF  0021               	movlb	1	; select bank1
  5327  03C0  00CA               	movwf	(efgtoa@l+3)^(0+128)
  5328  03C1  0020               	movlb	0	; select bank0
  5329  03C2  082F               	movf	?_floorf+2,w
  5330  03C3  0021               	movlb	1	; select bank1
  5331  03C4  00C9               	movwf	(efgtoa@l+2)^(0+128)
  5332  03C5  0020               	movlb	0	; select bank0
  5333  03C6  082E               	movf	?_floorf+1,w
  5334  03C7  0021               	movlb	1	; select bank1
  5335  03C8  00C8               	movwf	(efgtoa@l+1)^(0+128)
  5336  03C9  0020               	movlb	0	; select bank0
  5337  03CA  082D               	movf	?_floorf,w
  5338  03CB  0021               	movlb	1	; select bank1
  5339  03CC  00C7               	movwf	efgtoa@l^(0+128)
  5340                           
  5341                           ;C:\Program Files\Microchip\xc8\v2.31\pic\sources\c99\common\doprnt.c: 433:         d = 
      +                          (int)l;
  5342  03CD  084A               	movf	(efgtoa@l+3)^(0+128),w
  5343  03CE  00F3               	movwf	___fltol@f1+3
  5344  03CF  0849               	movf	(efgtoa@l+2)^(0+128),w
  5345  03D0  00F2               	movwf	___fltol@f1+2
  5346  03D1  0848               	movf	(efgtoa@l+1)^(0+128),w
  5347  03D2  00F1               	movwf	___fltol@f1+1
  5348  03D3  0847               	movf	efgtoa@l^(0+128),w
  5349  03D4  00F0               	movwf	___fltol@f1
  5350  03D5  3195  2597  3180   	fcall	___fltol
  5351  03D8  0871               	movf	?___fltol+1,w
  5352  03D9  0021               	movlb	1	; select bank1
  5353  03DA  00B9               	movwf	(efgtoa@d+1)^(0+128)
  5354  03DB  0870               	movf	?___fltol,w
  5355  03DC  00B8               	movwf	efgtoa@d^(0+128)
  5356                           
  5357                           ;C:\Program Files\Microchip\xc8\v2.31\pic\sources\c99\common\doprnt.c: 434:         h -=
      +                           l*u;
  5358  03DD  084A               	movf	(efgtoa@l+3)^(0+128),w
  5359  03DE  0020               	movlb	0	; select bank0
  5360  03DF  00A7               	movwf	___flmul@a+3
  5361  03E0  0021               	movlb	1	; select bank1
  5362  03E1  0849               	movf	(efgtoa@l+2)^(0+128),w
  5363  03E2  0020               	movlb	0	; select bank0
  5364  03E3  00A6               	movwf	___flmul@a+2
  5365  03E4  0021               	movlb	1	; select bank1
  5366  03E5  0848               	movf	(efgtoa@l+1)^(0+128),w
  5367  03E6  0020               	movlb	0	; select bank0
  5368  03E7  00A5               	movwf	___flmul@a+1
  5369  03E8  0021               	movlb	1	; select bank1
  5370  03E9  0847               	movf	efgtoa@l^(0+128),w
  5371  03EA  0020               	movlb	0	; select bank0
  5372  03EB  00A4               	movwf	___flmul@a
  5373  03EC  0021               	movlb	1	; select bank1
  5374  03ED  0858               	movf	(efgtoa@u+3)^(0+128),w
  5375  03EE  0020               	movlb	0	; select bank0
  5376  03EF  00A3               	movwf	___flmul@b+3
  5377  03F0  0021               	movlb	1	; select bank1
  5378  03F1  0857               	movf	(efgtoa@u+2)^(0+128),w
  5379  03F2  0020               	movlb	0	; select bank0
  5380  03F3  00A2               	movwf	___flmul@b+2
  5381  03F4  0021               	movlb	1	; select bank1
  5382  03F5  0856               	movf	(efgtoa@u+1)^(0+128),w
  5383  03F6  0020               	movlb	0	; select bank0
  5384  03F7  00A1               	movwf	___flmul@b+1
  5385  03F8  0021               	movlb	1	; select bank1
  5386  03F9  0855               	movf	efgtoa@u^(0+128),w
  5387  03FA  0020               	movlb	0	; select bank0
  5388  03FB  00A0               	movwf	___flmul@b
  5389  03FC  318D  25A9  3180   	fcall	___flmul
  5390  03FF  0020               	movlb	0	; select bank0
  5391  0400  0823               	movf	?___flmul+3,w
  5392  0401  00B8               	movwf	___flsub@a+3
  5393  0402  0822               	movf	?___flmul+2,w
  5394  0403  00B7               	movwf	___flsub@a+2
  5395  0404  0821               	movf	?___flmul+1,w
  5396  0405  00B6               	movwf	___flsub@a+1
  5397  0406  0820               	movf	?___flmul,w
  5398  0407  00B5               	movwf	___flsub@a
  5399  0408  0021               	movlb	1	; select bank1
  5400  0409  0846               	movf	(efgtoa@h+3)^(0+128),w
  5401  040A  0020               	movlb	0	; select bank0
  5402  040B  00BC               	movwf	___flsub@b+3
  5403  040C  0021               	movlb	1	; select bank1
  5404  040D  0845               	movf	(efgtoa@h+2)^(0+128),w
  5405  040E  0020               	movlb	0	; select bank0
  5406  040F  00BB               	movwf	___flsub@b+2
  5407  0410  0021               	movlb	1	; select bank1
  5408  0411  0844               	movf	(efgtoa@h+1)^(0+128),w
  5409  0412  0020               	movlb	0	; select bank0
  5410  0413  00BA               	movwf	___flsub@b+1
  5411  0414  0021               	movlb	1	; select bank1
  5412  0415  0843               	movf	efgtoa@h^(0+128),w
  5413  0416  0020               	movlb	0	; select bank0
  5414  0417  00B9               	movwf	___flsub@b
  5415  0418  3192  227E  3180   	fcall	___flsub
  5416  041B  0020               	movlb	0	; select bank0
  5417  041C  0838               	movf	?___flsub+3,w
  5418  041D  0021               	movlb	1	; select bank1
  5419  041E  00C6               	movwf	(efgtoa@h+3)^(0+128)
  5420  041F  0020               	movlb	0	; select bank0
  5421  0420  0837               	movf	?___flsub+2,w
  5422  0421  0021               	movlb	1	; select bank1
  5423  0422  00C5               	movwf	(efgtoa@h+2)^(0+128)
  5424  0423  0020               	movlb	0	; select bank0
  5425  0424  0836               	movf	?___flsub+1,w
  5426  0425  0021               	movlb	1	; select bank1
  5427  0426  00C4               	movwf	(efgtoa@h+1)^(0+128)
  5428  0427  0020               	movlb	0	; select bank0
  5429  0428  0835               	movf	?___flsub,w
  5430  0429  0021               	movlb	1	; select bank1
  5431  042A  00C3               	movwf	efgtoa@h^(0+128)
  5432                           
  5433                           ;C:\Program Files\Microchip\xc8\v2.31\pic\sources\c99\common\doprnt.c: 435:         u = 
      +                          u/10.0;
  5434  042B  3041               	movlw	65
  5435  042C  00F3               	movwf	___fldiv@a+3
  5436  042D  3020               	movlw	32
  5437  042E  00F2               	movwf	___fldiv@a+2
  5438  042F  3000               	movlw	0
  5439  0430  00F1               	movwf	___fldiv@a+1
  5440  0431  3000               	movlw	0
  5441  0432  00F0               	movwf	___fldiv@a
  5442  0433  0858               	movf	(efgtoa@u+3)^(0+128),w
  5443  0434  00F7               	movwf	___fldiv@b+3
  5444  0435  0857               	movf	(efgtoa@u+2)^(0+128),w
  5445  0436  00F6               	movwf	___fldiv@b+2
  5446  0437  0856               	movf	(efgtoa@u+1)^(0+128),w
  5447  0438  00F5               	movwf	___fldiv@b+1
  5448  0439  0855               	movf	efgtoa@u^(0+128),w
  5449  043A  00F4               	movwf	___fldiv@b
  5450  043B  3189  21B6  3180   	fcall	___fldiv
  5451  043E  0873               	movf	?___fldiv+3,w
  5452  043F  0021               	movlb	1	; select bank1
  5453  0440  00D8               	movwf	(efgtoa@u+3)^(0+128)
  5454  0441  0872               	movf	?___fldiv+2,w
  5455  0442  00D7               	movwf	(efgtoa@u+2)^(0+128)
  5456  0443  0871               	movf	?___fldiv+1,w
  5457  0444  00D6               	movwf	(efgtoa@u+1)^(0+128)
  5458  0445  0870               	movf	?___fldiv,w
  5459  0446  00D5               	movwf	efgtoa@u^(0+128)
  5460  0447                     l3365:
  5461                           
  5462                           ;C:\Program Files\Microchip\xc8\v2.31\pic\sources\c99\common\doprnt.c: 436:         ++i;
  5463  0447  3001               	movlw	1
  5464  0448  07CB               	addwf	efgtoa@i^(0+128),f
  5465  0449  3000               	movlw	0
  5466  044A  3DCC               	addwfc	(efgtoa@i+1)^(0+128),f
  5467  044B                     l3367:
  5468                           
  5469                           ;C:\Program Files\Microchip\xc8\v2.31\pic\sources\c99\common\doprnt.c: 431:     while (i
      +                           < m) {
  5470  044B  084C               	movf	(efgtoa@i+1)^(0+128),w
  5471  044C  3A80               	xorlw	128
  5472  044D  0020               	movlb	0	; select bank0
  5473  044E  00C6               	movwf	??_efgtoa
  5474  044F  0021               	movlb	1	; select bank1
  5475  0450  0833               	movf	(efgtoa@m+1)^(0+128),w
  5476  0451  3A80               	xorlw	128
  5477  0452  0020               	movlb	0	; select bank0
  5478  0453  0246               	subwf	??_efgtoa,w
  5479  0454  1D03               	skipz
  5480  0455  2C59               	goto	u4525
  5481  0456  0021               	movlb	1	; select bank1
  5482  0457  0832               	movf	efgtoa@m^(0+128),w
  5483  0458  024B               	subwf	efgtoa@i^(0+128),w
  5484  0459                     u4525:
  5485  0459  1C03               	skipc
  5486  045A  2C5C               	goto	u4521
  5487  045B  2C5D               	goto	u4520
  5488  045C                     u4521:
  5489  045C  2B9D               	goto	l3363
  5490  045D                     u4520:
  5491  045D                     l3369:
  5492                           
  5493                           ;C:\Program Files\Microchip\xc8\v2.31\pic\sources\c99\common\doprnt.c: 440:     l = u*5.
      +                          0;
  5494  045D  3040               	movlw	64
  5495  045E  0020               	movlb	0	; select bank0
  5496  045F  00A3               	movwf	___flmul@b+3
  5497  0460  30A0               	movlw	160
  5498  0461  00A2               	movwf	___flmul@b+2
  5499  0462  3000               	movlw	0
  5500  0463  00A1               	movwf	___flmul@b+1
  5501  0464  3000               	movlw	0
  5502  0465  00A0               	movwf	___flmul@b
  5503  0466  0021               	movlb	1	; select bank1
  5504  0467  0858               	movf	(efgtoa@u+3)^(0+128),w
  5505  0468  0020               	movlb	0	; select bank0
  5506  0469  00A7               	movwf	___flmul@a+3
  5507  046A  0021               	movlb	1	; select bank1
  5508  046B  0857               	movf	(efgtoa@u+2)^(0+128),w
  5509  046C  0020               	movlb	0	; select bank0
  5510  046D  00A6               	movwf	___flmul@a+2
  5511  046E  0021               	movlb	1	; select bank1
  5512  046F  0856               	movf	(efgtoa@u+1)^(0+128),w
  5513  0470  0020               	movlb	0	; select bank0
  5514  0471  00A5               	movwf	___flmul@a+1
  5515  0472  0021               	movlb	1	; select bank1
  5516  0473  0855               	movf	efgtoa@u^(0+128),w
  5517  0474  0020               	movlb	0	; select bank0
  5518  0475  00A4               	movwf	___flmul@a
  5519  0476  318D  25A9  3180   	fcall	___flmul
  5520  0479  0020               	movlb	0	; select bank0
  5521  047A  0823               	movf	?___flmul+3,w
  5522  047B  0021               	movlb	1	; select bank1
  5523  047C  00CA               	movwf	(efgtoa@l+3)^(0+128)
  5524  047D  0020               	movlb	0	; select bank0
  5525  047E  0822               	movf	?___flmul+2,w
  5526  047F  0021               	movlb	1	; select bank1
  5527  0480  00C9               	movwf	(efgtoa@l+2)^(0+128)
  5528  0481  0020               	movlb	0	; select bank0
  5529  0482  0821               	movf	?___flmul+1,w
  5530  0483  0021               	movlb	1	; select bank1
  5531  0484  00C8               	movwf	(efgtoa@l+1)^(0+128)
  5532  0485  0020               	movlb	0	; select bank0
  5533  0486  0820               	movf	?___flmul,w
  5534  0487  0021               	movlb	1	; select bank1
  5535  0488  00C7               	movwf	efgtoa@l^(0+128)
  5536                           
  5537                           ;C:\Program Files\Microchip\xc8\v2.31\pic\sources\c99\common\doprnt.c: 441:     if (h < 
      +                          l) {
  5538  0489  0846               	movf	(efgtoa@h+3)^(0+128),w
  5539  048A  0020               	movlb	0	; select bank0
  5540  048B  00B8               	movwf	___flge@ff1+3
  5541  048C  0021               	movlb	1	; select bank1
  5542  048D  0845               	movf	(efgtoa@h+2)^(0+128),w
  5543  048E  0020               	movlb	0	; select bank0
  5544  048F  00B7               	movwf	___flge@ff1+2
  5545  0490  0021               	movlb	1	; select bank1
  5546  0491  0844               	movf	(efgtoa@h+1)^(0+128),w
  5547  0492  0020               	movlb	0	; select bank0
  5548  0493  00B6               	movwf	___flge@ff1+1
  5549  0494  0021               	movlb	1	; select bank1
  5550  0495  0843               	movf	efgtoa@h^(0+128),w
  5551  0496  0020               	movlb	0	; select bank0
  5552  0497  00B5               	movwf	___flge@ff1
  5553  0498  0021               	movlb	1	; select bank1
  5554  0499  084A               	movf	(efgtoa@l+3)^(0+128),w
  5555  049A  0020               	movlb	0	; select bank0
  5556  049B  00BC               	movwf	___flge@ff2+3
  5557  049C  0021               	movlb	1	; select bank1
  5558  049D  0849               	movf	(efgtoa@l+2)^(0+128),w
  5559  049E  0020               	movlb	0	; select bank0
  5560  049F  00BB               	movwf	___flge@ff2+2
  5561  04A0  0021               	movlb	1	; select bank1
  5562  04A1  0848               	movf	(efgtoa@l+1)^(0+128),w
  5563  04A2  0020               	movlb	0	; select bank0
  5564  04A3  00BA               	movwf	___flge@ff2+1
  5565  04A4  0021               	movlb	1	; select bank1
  5566  04A5  0847               	movf	efgtoa@l^(0+128),w
  5567  04A6  0020               	movlb	0	; select bank0
  5568  04A7  00B9               	movwf	___flge@ff2
  5569  04A8  3196  268A  3180   	fcall	___flge
  5570  04AB  1803               	btfsc	3,0
  5571  04AC  2CAE               	goto	u4531
  5572  04AD  2CAF               	goto	u4530
  5573  04AE                     u4531:
  5574  04AE  2CB9               	goto	l3373
  5575  04AF                     u4530:
  5576  04AF                     l3371:
  5577                           
  5578                           ;C:\Program Files\Microchip\xc8\v2.31\pic\sources\c99\common\doprnt.c: 442:         l = 
      +                          0.0;
  5579  04AF  3000               	movlw	0
  5580  04B0  0021               	movlb	1	; select bank1
  5581  04B1  00CA               	movwf	(efgtoa@l+3)^(0+128)
  5582  04B2  3000               	movlw	0
  5583  04B3  00C9               	movwf	(efgtoa@l+2)^(0+128)
  5584  04B4  3000               	movlw	0
  5585  04B5  00C8               	movwf	(efgtoa@l+1)^(0+128)
  5586  04B6  3000               	movlw	0
  5587  04B7  00C7               	movwf	efgtoa@l^(0+128)
  5588                           
  5589                           ;C:\Program Files\Microchip\xc8\v2.31\pic\sources\c99\common\doprnt.c: 443:     } else {
  5590  04B8  2CDE               	goto	l3379
  5591  04B9                     l3373:
  5592                           
  5593                           ;C:\Program Files\Microchip\xc8\v2.31\pic\sources\c99\common\doprnt.c: 445:         if (
      +                          (h == l) && !(d % 2)) {
  5594  04B9  0021               	movlb	1	; select bank1
  5595  04BA  0846               	movf	(efgtoa@h+3)^(0+128),w
  5596  04BB  00F3               	movwf	___fleq@ff1+3
  5597  04BC  0845               	movf	(efgtoa@h+2)^(0+128),w
  5598  04BD  00F2               	movwf	___fleq@ff1+2
  5599  04BE  0844               	movf	(efgtoa@h+1)^(0+128),w
  5600  04BF  00F1               	movwf	___fleq@ff1+1
  5601  04C0  0843               	movf	efgtoa@h^(0+128),w
  5602  04C1  00F0               	movwf	___fleq@ff1
  5603  04C2  084A               	movf	(efgtoa@l+3)^(0+128),w
  5604  04C3  00F7               	movwf	___fleq@ff2+3
  5605  04C4  0849               	movf	(efgtoa@l+2)^(0+128),w
  5606  04C5  00F6               	movwf	___fleq@ff2+2
  5607  04C6  0848               	movf	(efgtoa@l+1)^(0+128),w
  5608  04C7  00F5               	movwf	___fleq@ff2+1
  5609  04C8  0847               	movf	efgtoa@l^(0+128),w
  5610  04C9  00F4               	movwf	___fleq@ff2
  5611  04CA  3193  23E6  3180   	fcall	___fleq
  5612  04CD  1C03               	btfss	3,0
  5613  04CE  2CD0               	goto	u4541
  5614  04CF  2CD1               	goto	u4540
  5615  04D0                     u4541:
  5616  04D0  2CDE               	goto	l3379
  5617  04D1                     u4540:
  5618  04D1                     l3375:
  5619  04D1  0021               	movlb	1	; select bank1
  5620  04D2  1838               	btfsc	efgtoa@d^(0+128),0
  5621  04D3  2CD5               	goto	u4551
  5622  04D4  2CD6               	goto	u4550
  5623  04D5                     u4551:
  5624  04D5  2CDE               	goto	l3379
  5625  04D6                     u4550:
  5626  04D6                     l3377:
  5627                           
  5628                           ;C:\Program Files\Microchip\xc8\v2.31\pic\sources\c99\common\doprnt.c: 446:             
      +                          l = 0.0;
  5629  04D6  3000               	movlw	0
  5630  04D7  00CA               	movwf	(efgtoa@l+3)^(0+128)
  5631  04D8  3000               	movlw	0
  5632  04D9  00C9               	movwf	(efgtoa@l+2)^(0+128)
  5633  04DA  3000               	movlw	0
  5634  04DB  00C8               	movwf	(efgtoa@l+1)^(0+128)
  5635  04DC  3000               	movlw	0
  5636  04DD  00C7               	movwf	efgtoa@l^(0+128)
  5637  04DE                     l3379:
  5638                           
  5639                           ;C:\Program Files\Microchip\xc8\v2.31\pic\sources\c99\common\doprnt.c: 451:     h = g + 
      +                          l;
  5640  04DE  0021               	movlb	1	; select bank1
  5641  04DF  084A               	movf	(efgtoa@l+3)^(0+128),w
  5642  04E0  00F3               	movwf	___fladd@b+3
  5643  04E1  0849               	movf	(efgtoa@l+2)^(0+128),w
  5644  04E2  00F2               	movwf	___fladd@b+2
  5645  04E3  0848               	movf	(efgtoa@l+1)^(0+128),w
  5646  04E4  00F1               	movwf	___fladd@b+1
  5647  04E5  0847               	movf	efgtoa@l^(0+128),w
  5648  04E6  00F0               	movwf	___fladd@b
  5649  04E7  0850               	movf	(efgtoa@g+3)^(0+128),w
  5650  04E8  00F7               	movwf	___fladd@a+3
  5651  04E9  084F               	movf	(efgtoa@g+2)^(0+128),w
  5652  04EA  00F6               	movwf	___fladd@a+2
  5653  04EB  084E               	movf	(efgtoa@g+1)^(0+128),w
  5654  04EC  00F5               	movwf	___fladd@a+1
  5655  04ED  084D               	movf	efgtoa@g^(0+128),w
  5656  04EE  00F4               	movwf	___fladd@a
  5657  04EF  318B  236A  3180   	fcall	___fladd
  5658  04F2  0873               	movf	?___fladd+3,w
  5659  04F3  0021               	movlb	1	; select bank1
  5660  04F4  00C6               	movwf	(efgtoa@h+3)^(0+128)
  5661  04F5  0872               	movf	?___fladd+2,w
  5662  04F6  00C5               	movwf	(efgtoa@h+2)^(0+128)
  5663  04F7  0871               	movf	?___fladd+1,w
  5664  04F8  00C4               	movwf	(efgtoa@h+1)^(0+128)
  5665  04F9  0870               	movf	?___fladd,w
  5666  04FA  00C3               	movwf	efgtoa@h^(0+128)
  5667  04FB                     l3381:
  5668                           
  5669                           ;C:\Program Files\Microchip\xc8\v2.31\pic\sources\c99\common\doprnt.c: 453:  if (h >= (o
      +                          u*10.0)) {
  5670  04FB  0846               	movf	(efgtoa@h+3)^(0+128),w
  5671  04FC  0020               	movlb	0	; select bank0
  5672  04FD  00B8               	movwf	___flge@ff1+3
  5673  04FE  0021               	movlb	1	; select bank1
  5674  04FF  0845               	movf	(efgtoa@h+2)^(0+128),w
  5675  0500  0020               	movlb	0	; select bank0
  5676  0501  00B7               	movwf	___flge@ff1+2
  5677  0502  0021               	movlb	1	; select bank1
  5678  0503  0844               	movf	(efgtoa@h+1)^(0+128),w
  5679  0504  0020               	movlb	0	; select bank0
  5680  0505  00B6               	movwf	___flge@ff1+1
  5681  0506  0021               	movlb	1	; select bank1
  5682  0507  0843               	movf	efgtoa@h^(0+128),w
  5683  0508  0020               	movlb	0	; select bank0
  5684  0509  00B5               	movwf	___flge@ff1
  5685  050A  3041               	movlw	65
  5686  050B  00A3               	movwf	___flmul@b+3
  5687  050C  3020               	movlw	32
  5688  050D  00A2               	movwf	___flmul@b+2
  5689  050E  3000               	movlw	0
  5690  050F  00A1               	movwf	___flmul@b+1
  5691  0510  3000               	movlw	0
  5692  0511  00A0               	movwf	___flmul@b
  5693  0512  0021               	movlb	1	; select bank1
  5694  0513  0837               	movf	(efgtoa@ou+3)^(0+128),w
  5695  0514  0020               	movlb	0	; select bank0
  5696  0515  00A7               	movwf	___flmul@a+3
  5697  0516  0021               	movlb	1	; select bank1
  5698  0517  0836               	movf	(efgtoa@ou+2)^(0+128),w
  5699  0518  0020               	movlb	0	; select bank0
  5700  0519  00A6               	movwf	___flmul@a+2
  5701  051A  0021               	movlb	1	; select bank1
  5702  051B  0835               	movf	(efgtoa@ou+1)^(0+128),w
  5703  051C  0020               	movlb	0	; select bank0
  5704  051D  00A5               	movwf	___flmul@a+1
  5705  051E  0021               	movlb	1	; select bank1
  5706  051F  0834               	movf	efgtoa@ou^(0+128),w
  5707  0520  0020               	movlb	0	; select bank0
  5708  0521  00A4               	movwf	___flmul@a
  5709  0522  318D  25A9  3180   	fcall	___flmul
  5710  0525  0020               	movlb	0	; select bank0
  5711  0526  0823               	movf	?___flmul+3,w
  5712  0527  00BC               	movwf	___flge@ff2+3
  5713  0528  0822               	movf	?___flmul+2,w
  5714  0529  00BB               	movwf	___flge@ff2+2
  5715  052A  0821               	movf	?___flmul+1,w
  5716  052B  00BA               	movwf	___flge@ff2+1
  5717  052C  0820               	movf	?___flmul,w
  5718  052D  00B9               	movwf	___flge@ff2
  5719  052E  3196  268A  3180   	fcall	___flge
  5720  0531  1C03               	btfss	3,0
  5721  0532  2D34               	goto	u4561
  5722  0533  2D35               	goto	u4560
  5723  0534                     u4561:
  5724  0534  2D70               	goto	l914
  5725  0535                     u4560:
  5726  0535                     l3383:
  5727                           
  5728                           ;C:\Program Files\Microchip\xc8\v2.31\pic\sources\c99\common\doprnt.c: 454:   e++;
  5729  0535  3001               	movlw	1
  5730  0536  0021               	movlb	1	; select bank1
  5731  0537  07D1               	addwf	efgtoa@e^(0+128),f
  5732  0538  3000               	movlw	0
  5733  0539  3DD2               	addwfc	(efgtoa@e+1)^(0+128),f
  5734  053A                     l3385:
  5735                           
  5736                           ;C:\Program Files\Microchip\xc8\v2.31\pic\sources\c99\common\doprnt.c: 455:   ou *= 10.0
      +                          ;
  5737  053A  3041               	movlw	65
  5738  053B  0020               	movlb	0	; select bank0
  5739  053C  00A3               	movwf	___flmul@b+3
  5740  053D  3020               	movlw	32
  5741  053E  00A2               	movwf	___flmul@b+2
  5742  053F  3000               	movlw	0
  5743  0540  00A1               	movwf	___flmul@b+1
  5744  0541  3000               	movlw	0
  5745  0542  00A0               	movwf	___flmul@b
  5746  0543  0021               	movlb	1	; select bank1
  5747  0544  0837               	movf	(efgtoa@ou+3)^(0+128),w
  5748  0545  0020               	movlb	0	; select bank0
  5749  0546  00A7               	movwf	___flmul@a+3
  5750  0547  0021               	movlb	1	; select bank1
  5751  0548  0836               	movf	(efgtoa@ou+2)^(0+128),w
  5752  0549  0020               	movlb	0	; select bank0
  5753  054A  00A6               	movwf	___flmul@a+2
  5754  054B  0021               	movlb	1	; select bank1
  5755  054C  0835               	movf	(efgtoa@ou+1)^(0+128),w
  5756  054D  0020               	movlb	0	; select bank0
  5757  054E  00A5               	movwf	___flmul@a+1
  5758  054F  0021               	movlb	1	; select bank1
  5759  0550  0834               	movf	efgtoa@ou^(0+128),w
  5760  0551  0020               	movlb	0	; select bank0
  5761  0552  00A4               	movwf	___flmul@a
  5762  0553  318D  25A9  3180   	fcall	___flmul
  5763  0556  0020               	movlb	0	; select bank0
  5764  0557  0823               	movf	?___flmul+3,w
  5765  0558  0021               	movlb	1	; select bank1
  5766  0559  00B7               	movwf	(efgtoa@ou+3)^(0+128)
  5767  055A  0020               	movlb	0	; select bank0
  5768  055B  0822               	movf	?___flmul+2,w
  5769  055C  0021               	movlb	1	; select bank1
  5770  055D  00B6               	movwf	(efgtoa@ou+2)^(0+128)
  5771  055E  0020               	movlb	0	; select bank0
  5772  055F  0821               	movf	?___flmul+1,w
  5773  0560  0021               	movlb	1	; select bank1
  5774  0561  00B5               	movwf	(efgtoa@ou+1)^(0+128)
  5775  0562  0020               	movlb	0	; select bank0
  5776  0563  0820               	movf	?___flmul,w
  5777  0564  0021               	movlb	1	; select bank1
  5778  0565  00B4               	movwf	efgtoa@ou^(0+128)
  5779  0566                     l3387:
  5780                           
  5781                           ;C:\Program Files\Microchip\xc8\v2.31\pic\sources\c99\common\doprnt.c: 456:   if (nmode 
      +                          == 'f') {
  5782  0566  3066               	movlw	102
  5783  0567  0641               	xorwf	efgtoa@nmode^(0+128),w
  5784  0568  1D03               	btfss	3,2
  5785  0569  2D6B               	goto	u4571
  5786  056A  2D6C               	goto	u4570
  5787  056B                     u4571:
  5788  056B  2D70               	goto	l914
  5789  056C                     u4570:
  5790  056C                     l3389:
  5791                           
  5792                           ;C:\Program Files\Microchip\xc8\v2.31\pic\sources\c99\common\doprnt.c: 458:    m++;
  5793  056C  3001               	movlw	1
  5794  056D  07B2               	addwf	efgtoa@m^(0+128),f
  5795  056E  3000               	movlw	0
  5796  056F  3DB3               	addwfc	(efgtoa@m+1)^(0+128),f
  5797  0570                     l914:	
  5798                           ;C:\Program Files\Microchip\xc8\v2.31\pic\sources\c99\common\doprnt.c: 460:  }
  5799                           
  5800                           
  5801                           ;C:\Program Files\Microchip\xc8\v2.31\pic\sources\c99\common\doprnt.c: 463:     u = ou;
  5802  0570  0021               	movlb	1	; select bank1
  5803  0571  0837               	movf	(efgtoa@ou+3)^(0+128),w
  5804  0572  00D8               	movwf	(efgtoa@u+3)^(0+128)
  5805  0573  0836               	movf	(efgtoa@ou+2)^(0+128),w
  5806  0574  00D7               	movwf	(efgtoa@u+2)^(0+128)
  5807  0575  0835               	movf	(efgtoa@ou+1)^(0+128),w
  5808  0576  00D6               	movwf	(efgtoa@u+1)^(0+128)
  5809  0577  0834               	movf	efgtoa@ou^(0+128),w
  5810  0578  00D5               	movwf	efgtoa@u^(0+128)
  5811  0579                     l3391:
  5812                           
  5813                           ;C:\Program Files\Microchip\xc8\v2.31\pic\sources\c99\common\doprnt.c: 464:     ne = (nm
      +                          ode == 'e') ? 0 : e;
  5814  0579  3065               	movlw	101
  5815  057A  0641               	xorwf	efgtoa@nmode^(0+128),w
  5816  057B  1903               	btfsc	3,2
  5817  057C  2D7E               	goto	u4581
  5818  057D  2D7F               	goto	u4580
  5819  057E                     u4581:
  5820  057E  2D84               	goto	l3395
  5821  057F                     u4580:
  5822  057F                     l3393:
  5823  057F  0852               	movf	(efgtoa@e+1)^(0+128),w
  5824  0580  00B1               	movwf	(efgtoa@ne+1)^(0+128)
  5825  0581  0851               	movf	efgtoa@e^(0+128),w
  5826  0582  00B0               	movwf	efgtoa@ne^(0+128)
  5827  0583  2D86               	goto	l919
  5828  0584                     l3395:
  5829  0584  01B0               	clrf	efgtoa@ne^(0+128)
  5830  0585  01B1               	clrf	(efgtoa@ne+1)^(0+128)
  5831  0586                     l919:
  5832                           
  5833                           ;C:\Program Files\Microchip\xc8\v2.31\pic\sources\c99\common\doprnt.c: 465:     pp = 0;
  5834  0586  01AE               	clrf	efgtoa@pp^(0+128)
  5835  0587  01AF               	clrf	(efgtoa@pp+1)^(0+128)
  5836                           
  5837                           ;C:\Program Files\Microchip\xc8\v2.31\pic\sources\c99\common\doprnt.c: 466:     t = 0;
  5838  0588  01AC               	clrf	efgtoa@t^(0+128)
  5839  0589  01AD               	clrf	(efgtoa@t+1)^(0+128)
  5840                           
  5841                           ;C:\Program Files\Microchip\xc8\v2.31\pic\sources\c99\common\doprnt.c: 467:     i = 0;
  5842  058A  01CB               	clrf	efgtoa@i^(0+128)
  5843  058B  01CC               	clrf	(efgtoa@i+1)^(0+128)
  5844                           
  5845                           ;C:\Program Files\Microchip\xc8\v2.31\pic\sources\c99\common\doprnt.c: 468:     while ((
      +                          i < m) && (n < (80 - 5))) {
  5846  058C  2EB1               	goto	l3445
  5847  058D                     l3397:
  5848                           
  5849                           ;C:\Program Files\Microchip\xc8\v2.31\pic\sources\c99\common\doprnt.c: 469:         l = 
      +                          floorf(h/u);
  5850  058D  0021               	movlb	1	; select bank1
  5851  058E  0858               	movf	(efgtoa@u+3)^(0+128),w
  5852  058F  00F3               	movwf	___fldiv@a+3
  5853  0590  0857               	movf	(efgtoa@u+2)^(0+128),w
  5854  0591  00F2               	movwf	___fldiv@a+2
  5855  0592  0856               	movf	(efgtoa@u+1)^(0+128),w
  5856  0593  00F1               	movwf	___fldiv@a+1
  5857  0594  0855               	movf	efgtoa@u^(0+128),w
  5858  0595  00F0               	movwf	___fldiv@a
  5859  0596  0846               	movf	(efgtoa@h+3)^(0+128),w
  5860  0597  00F7               	movwf	___fldiv@b+3
  5861  0598  0845               	movf	(efgtoa@h+2)^(0+128),w
  5862  0599  00F6               	movwf	___fldiv@b+2
  5863  059A  0844               	movf	(efgtoa@h+1)^(0+128),w
  5864  059B  00F5               	movwf	___fldiv@b+1
  5865  059C  0843               	movf	efgtoa@h^(0+128),w
  5866  059D  00F4               	movwf	___fldiv@b
  5867  059E  3189  21B6  3180   	fcall	___fldiv
  5868  05A1  0873               	movf	?___fldiv+3,w
  5869  05A2  0020               	movlb	0	; select bank0
  5870  05A3  00B0               	movwf	floorf@x+3
  5871  05A4  0872               	movf	?___fldiv+2,w
  5872  05A5  00AF               	movwf	floorf@x+2
  5873  05A6  0871               	movf	?___fldiv+1,w
  5874  05A7  00AE               	movwf	floorf@x+1
  5875  05A8  0870               	movf	?___fldiv,w
  5876  05A9  00AD               	movwf	floorf@x
  5877  05AA  3197  2715  3180   	fcall	_floorf
  5878  05AD  0020               	movlb	0	; select bank0
  5879  05AE  0830               	movf	?_floorf+3,w
  5880  05AF  0021               	movlb	1	; select bank1
  5881  05B0  00CA               	movwf	(efgtoa@l+3)^(0+128)
  5882  05B1  0020               	movlb	0	; select bank0
  5883  05B2  082F               	movf	?_floorf+2,w
  5884  05B3  0021               	movlb	1	; select bank1
  5885  05B4  00C9               	movwf	(efgtoa@l+2)^(0+128)
  5886  05B5  0020               	movlb	0	; select bank0
  5887  05B6  082E               	movf	?_floorf+1,w
  5888  05B7  0021               	movlb	1	; select bank1
  5889  05B8  00C8               	movwf	(efgtoa@l+1)^(0+128)
  5890  05B9  0020               	movlb	0	; select bank0
  5891  05BA  082D               	movf	?_floorf,w
  5892  05BB  0021               	movlb	1	; select bank1
  5893  05BC  00C7               	movwf	efgtoa@l^(0+128)
  5894                           
  5895                           ;C:\Program Files\Microchip\xc8\v2.31\pic\sources\c99\common\doprnt.c: 470:         d = 
      +                          (int)l;
  5896  05BD  084A               	movf	(efgtoa@l+3)^(0+128),w
  5897  05BE  00F3               	movwf	___fltol@f1+3
  5898  05BF  0849               	movf	(efgtoa@l+2)^(0+128),w
  5899  05C0  00F2               	movwf	___fltol@f1+2
  5900  05C1  0848               	movf	(efgtoa@l+1)^(0+128),w
  5901  05C2  00F1               	movwf	___fltol@f1+1
  5902  05C3  0847               	movf	efgtoa@l^(0+128),w
  5903  05C4  00F0               	movwf	___fltol@f1
  5904  05C5  3195  2597  3180   	fcall	___fltol
  5905  05C8  0871               	movf	?___fltol+1,w
  5906  05C9  0021               	movlb	1	; select bank1
  5907  05CA  00B9               	movwf	(efgtoa@d+1)^(0+128)
  5908  05CB  0870               	movf	?___fltol,w
  5909  05CC  00B8               	movwf	efgtoa@d^(0+128)
  5910  05CD                     l3399:
  5911                           
  5912                           ;C:\Program Files\Microchip\xc8\v2.31\pic\sources\c99\common\doprnt.c: 471:         if (
      +                          !(flags & (1 << 4)) && !d && (mode == 'g') && (ne < 0)) {
  5913  05CD  1A6B               	btfsc	_flags^(0+128),4
  5914  05CE  2DD0               	goto	u4591
  5915  05CF  2DD1               	goto	u4590
  5916  05D0                     u4591:
  5917  05D0  2DE6               	goto	l3409
  5918  05D1                     u4590:
  5919  05D1                     l3401:
  5920  05D1  0838               	movf	efgtoa@d^(0+128),w
  5921  05D2  0439               	iorwf	(efgtoa@d+1)^(0+128),w
  5922  05D3  1D03               	btfss	3,2
  5923  05D4  2DD6               	goto	u4601
  5924  05D5  2DD7               	goto	u4600
  5925  05D6                     u4601:
  5926  05D6  2DE6               	goto	l3409
  5927  05D7                     u4600:
  5928  05D7                     l3403:
  5929  05D7  3067               	movlw	103
  5930  05D8  0642               	xorwf	efgtoa@mode^(0+128),w
  5931  05D9  1D03               	btfss	3,2
  5932  05DA  2DDC               	goto	u4611
  5933  05DB  2DDD               	goto	u4610
  5934  05DC                     u4611:
  5935  05DC  2DE6               	goto	l3409
  5936  05DD                     u4610:
  5937  05DD                     l3405:
  5938  05DD  1FB1               	btfss	(efgtoa@ne+1)^(0+128),7
  5939  05DE  2DE0               	goto	u4621
  5940  05DF  2DE1               	goto	u4620
  5941  05E0                     u4621:
  5942  05E0  2DE6               	goto	l3409
  5943  05E1                     u4620:
  5944  05E1                     l3407:
  5945                           
  5946                           ;C:\Program Files\Microchip\xc8\v2.31\pic\sources\c99\common\doprnt.c: 472:             
      +                          ++t;
  5947  05E1  3001               	movlw	1
  5948  05E2  07AC               	addwf	efgtoa@t^(0+128),f
  5949  05E3  3000               	movlw	0
  5950  05E4  3DAD               	addwfc	(efgtoa@t+1)^(0+128),f
  5951                           
  5952                           ;C:\Program Files\Microchip\xc8\v2.31\pic\sources\c99\common\doprnt.c: 473:         } el
      +                          se {
  5953  05E5  2E3F               	goto	l3437
  5954  05E6                     l3409:
  5955                           
  5956                           ;C:\Program Files\Microchip\xc8\v2.31\pic\sources\c99\common\doprnt.c: 474:             
      +                          if (!pp && (ne < 0)) {
  5957  05E6  082E               	movf	efgtoa@pp^(0+128),w
  5958  05E7  042F               	iorwf	(efgtoa@pp+1)^(0+128),w
  5959  05E8  1D03               	btfss	3,2
  5960  05E9  2DEB               	goto	u4631
  5961  05EA  2DEC               	goto	u4630
  5962  05EB                     u4631:
  5963  05EB  2E23               	goto	l3429
  5964  05EC                     u4630:
  5965  05EC                     l3411:
  5966  05EC  1FB1               	btfss	(efgtoa@ne+1)^(0+128),7
  5967  05ED  2DEF               	goto	u4641
  5968  05EE  2DF0               	goto	u4640
  5969  05EF                     u4641:
  5970  05EF  2E23               	goto	l3429
  5971  05F0                     u4640:
  5972  05F0                     l3413:
  5973                           
  5974                           ;C:\Program Files\Microchip\xc8\v2.31\pic\sources\c99\common\doprnt.c: 475:             
      +                              dbuf[n++] = '.';
  5975  05F0  302E               	movlw	46
  5976  05F1  0020               	movlb	0	; select bank0
  5977  05F2  00C6               	movwf	??_efgtoa
  5978  05F3  0021               	movlb	1	; select bank1
  5979  05F4  0853               	movf	efgtoa@n^(0+128),w
  5980  05F5  3EA0               	addlw	(low (_dbuf| (0+256)))& (0+255)
  5981  05F6  0086               	movwf	6
  5982  05F7  3001               	movlw	1	; select bank3/4
  5983  05F8  0087               	movwf	7
  5984  05F9  0020               	movlb	0	; select bank0
  5985  05FA  0846               	movf	??_efgtoa,w
  5986  05FB  0081               	movwf	1
  5987  05FC                     l3415:
  5988  05FC  3001               	movlw	1
  5989  05FD  0021               	movlb	1	; select bank1
  5990  05FE  07D3               	addwf	efgtoa@n^(0+128),f
  5991  05FF  3000               	movlw	0
  5992  0600  3DD4               	addwfc	(efgtoa@n+1)^(0+128),f
  5993  0601                     l3417:
  5994                           
  5995                           ;C:\Program Files\Microchip\xc8\v2.31\pic\sources\c99\common\doprnt.c: 476:             
      +                              --w;
  5996  0601  30FF               	movlw	255
  5997  0602  07BF               	addwf	efgtoa@w^(0+128),f
  5998  0603  30FF               	movlw	255
  5999  0604  3DC0               	addwfc	(efgtoa@w+1)^(0+128),f
  6000  0605                     l3419:
  6001                           
  6002                           ;C:\Program Files\Microchip\xc8\v2.31\pic\sources\c99\common\doprnt.c: 477:             
      +                              pp = 1;
  6003  0605  3001               	movlw	1
  6004  0606  00AE               	movwf	efgtoa@pp^(0+128)
  6005  0607  3000               	movlw	0
  6006  0608  00AF               	movwf	(efgtoa@pp^(0+128)+1)
  6007  0609  2E23               	goto	l3429
  6008  060A                     l3421:
  6009                           
  6010                           ;C:\Program Files\Microchip\xc8\v2.31\pic\sources\c99\common\doprnt.c: 480:             
      +                              dbuf[n++] = '0';
  6011  060A  3030               	movlw	48
  6012  060B  0020               	movlb	0	; select bank0
  6013  060C  00C6               	movwf	??_efgtoa
  6014  060D  0021               	movlb	1	; select bank1
  6015  060E  0853               	movf	efgtoa@n^(0+128),w
  6016  060F  3EA0               	addlw	(low (_dbuf| (0+256)))& (0+255)
  6017  0610  0086               	movwf	6
  6018  0611  3001               	movlw	1	; select bank3/4
  6019  0612  0087               	movwf	7
  6020  0613  0020               	movlb	0	; select bank0
  6021  0614  0846               	movf	??_efgtoa,w
  6022  0615  0081               	movwf	1
  6023  0616                     l3423:
  6024  0616  3001               	movlw	1
  6025  0617  0021               	movlb	1	; select bank1
  6026  0618  07D3               	addwf	efgtoa@n^(0+128),f
  6027  0619  3000               	movlw	0
  6028  061A  3DD4               	addwfc	(efgtoa@n+1)^(0+128),f
  6029  061B                     l3425:
  6030                           
  6031                           ;C:\Program Files\Microchip\xc8\v2.31\pic\sources\c99\common\doprnt.c: 481:             
      +                              --w;
  6032  061B  30FF               	movlw	255
  6033  061C  07BF               	addwf	efgtoa@w^(0+128),f
  6034  061D  30FF               	movlw	255
  6035  061E  3DC0               	addwfc	(efgtoa@w+1)^(0+128),f
  6036  061F                     l3427:
  6037                           
  6038                           ;C:\Program Files\Microchip\xc8\v2.31\pic\sources\c99\common\doprnt.c: 482:             
      +                              --t;
  6039  061F  30FF               	movlw	255
  6040  0620  07AC               	addwf	efgtoa@t^(0+128),f
  6041  0621  30FF               	movlw	255
  6042  0622  3DAD               	addwfc	(efgtoa@t+1)^(0+128),f
  6043  0623                     l3429:
  6044                           
  6045                           ;C:\Program Files\Microchip\xc8\v2.31\pic\sources\c99\common\doprnt.c: 479:             
      +                          while (t) {
  6046  0623  082C               	movf	efgtoa@t^(0+128),w
  6047  0624  042D               	iorwf	(efgtoa@t+1)^(0+128),w
  6048  0625  1D03               	btfss	3,2
  6049  0626  2E28               	goto	u4651
  6050  0627  2E29               	goto	u4650
  6051  0628                     u4651:
  6052  0628  2E0A               	goto	l3421
  6053  0629                     u4650:
  6054  0629                     l3431:
  6055                           
  6056                           ;C:\Program Files\Microchip\xc8\v2.31\pic\sources\c99\common\doprnt.c: 484:             
      +                          dbuf[n++] = (char)((int)'0' + d);
  6057  0629  0838               	movf	efgtoa@d^(0+128),w
  6058  062A  3E30               	addlw	48
  6059  062B  0020               	movlb	0	; select bank0
  6060  062C  00C6               	movwf	??_efgtoa
  6061  062D  0021               	movlb	1	; select bank1
  6062  062E  0853               	movf	efgtoa@n^(0+128),w
  6063  062F  3EA0               	addlw	(low (_dbuf| (0+256)))& (0+255)
  6064  0630  0086               	movwf	6
  6065  0631  3001               	movlw	1	; select bank3/4
  6066  0632  0087               	movwf	7
  6067  0633  0020               	movlb	0	; select bank0
  6068  0634  0846               	movf	??_efgtoa,w
  6069  0635  0081               	movwf	1
  6070  0636                     l3433:
  6071  0636  3001               	movlw	1
  6072  0637  0021               	movlb	1	; select bank1
  6073  0638  07D3               	addwf	efgtoa@n^(0+128),f
  6074  0639  3000               	movlw	0
  6075  063A  3DD4               	addwfc	(efgtoa@n+1)^(0+128),f
  6076  063B                     l3435:
  6077                           
  6078                           ;C:\Program Files\Microchip\xc8\v2.31\pic\sources\c99\common\doprnt.c: 485:             
      +                          --w;
  6079  063B  30FF               	movlw	255
  6080  063C  07BF               	addwf	efgtoa@w^(0+128),f
  6081  063D  30FF               	movlw	255
  6082  063E  3DC0               	addwfc	(efgtoa@w+1)^(0+128),f
  6083  063F                     l3437:
  6084                           
  6085                           ;C:\Program Files\Microchip\xc8\v2.31\pic\sources\c99\common\doprnt.c: 487:         h -=
      +                           l*u;
  6086  063F  084A               	movf	(efgtoa@l+3)^(0+128),w
  6087  0640  0020               	movlb	0	; select bank0
  6088  0641  00A7               	movwf	___flmul@a+3
  6089  0642  0021               	movlb	1	; select bank1
  6090  0643  0849               	movf	(efgtoa@l+2)^(0+128),w
  6091  0644  0020               	movlb	0	; select bank0
  6092  0645  00A6               	movwf	___flmul@a+2
  6093  0646  0021               	movlb	1	; select bank1
  6094  0647  0848               	movf	(efgtoa@l+1)^(0+128),w
  6095  0648  0020               	movlb	0	; select bank0
  6096  0649  00A5               	movwf	___flmul@a+1
  6097  064A  0021               	movlb	1	; select bank1
  6098  064B  0847               	movf	efgtoa@l^(0+128),w
  6099  064C  0020               	movlb	0	; select bank0
  6100  064D  00A4               	movwf	___flmul@a
  6101  064E  0021               	movlb	1	; select bank1
  6102  064F  0858               	movf	(efgtoa@u+3)^(0+128),w
  6103  0650  0020               	movlb	0	; select bank0
  6104  0651  00A3               	movwf	___flmul@b+3
  6105  0652  0021               	movlb	1	; select bank1
  6106  0653  0857               	movf	(efgtoa@u+2)^(0+128),w
  6107  0654  0020               	movlb	0	; select bank0
  6108  0655  00A2               	movwf	___flmul@b+2
  6109  0656  0021               	movlb	1	; select bank1
  6110  0657  0856               	movf	(efgtoa@u+1)^(0+128),w
  6111  0658  0020               	movlb	0	; select bank0
  6112  0659  00A1               	movwf	___flmul@b+1
  6113  065A  0021               	movlb	1	; select bank1
  6114  065B  0855               	movf	efgtoa@u^(0+128),w
  6115  065C  0020               	movlb	0	; select bank0
  6116  065D  00A0               	movwf	___flmul@b
  6117  065E  318D  25A9  3180   	fcall	___flmul
  6118  0661  0020               	movlb	0	; select bank0
  6119  0662  0823               	movf	?___flmul+3,w
  6120  0663  00B8               	movwf	___flsub@a+3
  6121  0664  0822               	movf	?___flmul+2,w
  6122  0665  00B7               	movwf	___flsub@a+2
  6123  0666  0821               	movf	?___flmul+1,w
  6124  0667  00B6               	movwf	___flsub@a+1
  6125  0668  0820               	movf	?___flmul,w
  6126  0669  00B5               	movwf	___flsub@a
  6127  066A  0021               	movlb	1	; select bank1
  6128  066B  0846               	movf	(efgtoa@h+3)^(0+128),w
  6129  066C  0020               	movlb	0	; select bank0
  6130  066D  00BC               	movwf	___flsub@b+3
  6131  066E  0021               	movlb	1	; select bank1
  6132  066F  0845               	movf	(efgtoa@h+2)^(0+128),w
  6133  0670  0020               	movlb	0	; select bank0
  6134  0671  00BB               	movwf	___flsub@b+2
  6135  0672  0021               	movlb	1	; select bank1
  6136  0673  0844               	movf	(efgtoa@h+1)^(0+128),w
  6137  0674  0020               	movlb	0	; select bank0
  6138  0675  00BA               	movwf	___flsub@b+1
  6139  0676  0021               	movlb	1	; select bank1
  6140  0677  0843               	movf	efgtoa@h^(0+128),w
  6141  0678  0020               	movlb	0	; select bank0
  6142  0679  00B9               	movwf	___flsub@b
  6143  067A  3192  227E  3180   	fcall	___flsub
  6144  067D  0020               	movlb	0	; select bank0
  6145  067E  0838               	movf	?___flsub+3,w
  6146  067F  0021               	movlb	1	; select bank1
  6147  0680  00C6               	movwf	(efgtoa@h+3)^(0+128)
  6148  0681  0020               	movlb	0	; select bank0
  6149  0682  0837               	movf	?___flsub+2,w
  6150  0683  0021               	movlb	1	; select bank1
  6151  0684  00C5               	movwf	(efgtoa@h+2)^(0+128)
  6152  0685  0020               	movlb	0	; select bank0
  6153  0686  0836               	movf	?___flsub+1,w
  6154  0687  0021               	movlb	1	; select bank1
  6155  0688  00C4               	movwf	(efgtoa@h+1)^(0+128)
  6156  0689  0020               	movlb	0	; select bank0
  6157  068A  0835               	movf	?___flsub,w
  6158  068B  0021               	movlb	1	; select bank1
  6159  068C  00C3               	movwf	efgtoa@h^(0+128)
  6160  068D                     l3439:
  6161                           
  6162                           ;C:\Program Files\Microchip\xc8\v2.31\pic\sources\c99\common\doprnt.c: 488:         u = 
      +                          u/10.0;
  6163  068D  3041               	movlw	65
  6164  068E  00F3               	movwf	___fldiv@a+3
  6165  068F  3020               	movlw	32
  6166  0690  00F2               	movwf	___fldiv@a+2
  6167  0691  3000               	movlw	0
  6168  0692  00F1               	movwf	___fldiv@a+1
  6169  0693  3000               	movlw	0
  6170  0694  00F0               	movwf	___fldiv@a
  6171  0695  0858               	movf	(efgtoa@u+3)^(0+128),w
  6172  0696  00F7               	movwf	___fldiv@b+3
  6173  0697  0857               	movf	(efgtoa@u+2)^(0+128),w
  6174  0698  00F6               	movwf	___fldiv@b+2
  6175  0699  0856               	movf	(efgtoa@u+1)^(0+128),w
  6176  069A  00F5               	movwf	___fldiv@b+1
  6177  069B  0855               	movf	efgtoa@u^(0+128),w
  6178  069C  00F4               	movwf	___fldiv@b
  6179  069D  3189  21B6  3180   	fcall	___fldiv
  6180  06A0  0873               	movf	?___fldiv+3,w
  6181  06A1  0021               	movlb	1	; select bank1
  6182  06A2  00D8               	movwf	(efgtoa@u+3)^(0+128)
  6183  06A3  0872               	movf	?___fldiv+2,w
  6184  06A4  00D7               	movwf	(efgtoa@u+2)^(0+128)
  6185  06A5  0871               	movf	?___fldiv+1,w
  6186  06A6  00D6               	movwf	(efgtoa@u+1)^(0+128)
  6187  06A7  0870               	movf	?___fldiv,w
  6188  06A8  00D5               	movwf	efgtoa@u^(0+128)
  6189  06A9                     l3441:
  6190                           
  6191                           ;C:\Program Files\Microchip\xc8\v2.31\pic\sources\c99\common\doprnt.c: 489:         --ne
      +                          ;
  6192  06A9  30FF               	movlw	255
  6193  06AA  07B0               	addwf	efgtoa@ne^(0+128),f
  6194  06AB  30FF               	movlw	255
  6195  06AC  3DB1               	addwfc	(efgtoa@ne+1)^(0+128),f
  6196  06AD                     l3443:
  6197                           
  6198                           ;C:\Program Files\Microchip\xc8\v2.31\pic\sources\c99\common\doprnt.c: 490:         ++i;
  6199  06AD  3001               	movlw	1
  6200  06AE  07CB               	addwf	efgtoa@i^(0+128),f
  6201  06AF  3000               	movlw	0
  6202  06B0  3DCC               	addwfc	(efgtoa@i+1)^(0+128),f
  6203  06B1                     l3445:
  6204                           
  6205                           ;C:\Program Files\Microchip\xc8\v2.31\pic\sources\c99\common\doprnt.c: 468:     while ((
      +                          i < m) && (n < (80 - 5))) {
  6206  06B1  084C               	movf	(efgtoa@i+1)^(0+128),w
  6207  06B2  3A80               	xorlw	128
  6208  06B3  0020               	movlb	0	; select bank0
  6209  06B4  00C6               	movwf	??_efgtoa
  6210  06B5  0021               	movlb	1	; select bank1
  6211  06B6  0833               	movf	(efgtoa@m+1)^(0+128),w
  6212  06B7  3A80               	xorlw	128
  6213  06B8  0020               	movlb	0	; select bank0
  6214  06B9  0246               	subwf	??_efgtoa,w
  6215  06BA  1D03               	skipz
  6216  06BB  2EBF               	goto	u4665
  6217  06BC  0021               	movlb	1	; select bank1
  6218  06BD  0832               	movf	efgtoa@m^(0+128),w
  6219  06BE  024B               	subwf	efgtoa@i^(0+128),w
  6220  06BF                     u4665:
  6221  06BF  1803               	skipnc
  6222  06C0  2EC2               	goto	u4661
  6223  06C1  2EC3               	goto	u4660
  6224  06C2                     u4661:
  6225  06C2  2ED3               	goto	l3449
  6226  06C3                     u4660:
  6227  06C3                     l3447:
  6228  06C3  0021               	movlb	1	; select bank1
  6229  06C4  0854               	movf	(efgtoa@n+1)^(0+128),w
  6230  06C5  3A80               	xorlw	128
  6231  06C6  0020               	movlb	0	; select bank0
  6232  06C7  00C6               	movwf	??_efgtoa
  6233  06C8  3080               	movlw	128
  6234  06C9  0246               	subwf	??_efgtoa,w
  6235  06CA  1D03               	skipz
  6236  06CB  2ECF               	goto	u4675
  6237  06CC  304B               	movlw	75
  6238  06CD  0021               	movlb	1	; select bank1
  6239  06CE  0253               	subwf	efgtoa@n^(0+128),w
  6240  06CF                     u4675:
  6241  06CF  1C03               	skipc
  6242  06D0  2ED2               	goto	u4671
  6243  06D1  2ED3               	goto	u4670
  6244  06D2                     u4671:
  6245  06D2  2D8D               	goto	l3397
  6246  06D3                     u4670:
  6247  06D3                     l3449:
  6248                           
  6249                           ;C:\Program Files\Microchip\xc8\v2.31\pic\sources\c99\common\doprnt.c: 492:     if (!pp 
      +                          && (flags & (1 << 4))) {
  6250  06D3  0021               	movlb	1	; select bank1
  6251  06D4  082E               	movf	efgtoa@pp^(0+128),w
  6252  06D5  042F               	iorwf	(efgtoa@pp+1)^(0+128),w
  6253  06D6  1D03               	btfss	3,2
  6254  06D7  2ED9               	goto	u4681
  6255  06D8  2EDA               	goto	u4680
  6256  06D9                     u4681:
  6257  06D9  2EEF               	goto	l3457
  6258  06DA                     u4680:
  6259  06DA                     l3451:
  6260  06DA  1E6B               	btfss	_flags^(0+128),4
  6261  06DB  2EDD               	goto	u4691
  6262  06DC  2EDE               	goto	u4690
  6263  06DD                     u4691:
  6264  06DD  2EEF               	goto	l3457
  6265  06DE                     u4690:
  6266  06DE                     l3453:
  6267                           
  6268                           ;C:\Program Files\Microchip\xc8\v2.31\pic\sources\c99\common\doprnt.c: 493:         dbuf
      +                          [n++] = '.';
  6269  06DE  302E               	movlw	46
  6270  06DF  0020               	movlb	0	; select bank0
  6271  06E0  00C6               	movwf	??_efgtoa
  6272  06E1  0021               	movlb	1	; select bank1
  6273  06E2  0853               	movf	efgtoa@n^(0+128),w
  6274  06E3  3EA0               	addlw	(low (_dbuf| (0+256)))& (0+255)
  6275  06E4  0086               	movwf	6
  6276  06E5  3001               	movlw	1	; select bank3/4
  6277  06E6  0087               	movwf	7
  6278  06E7  0020               	movlb	0	; select bank0
  6279  06E8  0846               	movf	??_efgtoa,w
  6280  06E9  0081               	movwf	1
  6281  06EA                     l3455:
  6282  06EA  3001               	movlw	1
  6283  06EB  0021               	movlb	1	; select bank1
  6284  06EC  07D3               	addwf	efgtoa@n^(0+128),f
  6285  06ED  3000               	movlw	0
  6286  06EE  3DD4               	addwfc	(efgtoa@n+1)^(0+128),f
  6287  06EF                     l3457:
  6288                           
  6289                           ;C:\Program Files\Microchip\xc8\v2.31\pic\sources\c99\common\doprnt.c: 495:     dbuf[n] 
      +                          = '\0';
  6290  06EF  0853               	movf	efgtoa@n^(0+128),w
  6291  06F0  3EA0               	addlw	(low (_dbuf| (0+256)))& (0+255)
  6292  06F1  0086               	movwf	6
  6293  06F2  3001               	movlw	1	; select bank3/4
  6294  06F3  0087               	movwf	7
  6295  06F4  0181               	clrf	1
  6296  06F5                     l3459:
  6297                           
  6298                           ;C:\Program Files\Microchip\xc8\v2.31\pic\sources\c99\common\doprnt.c: 498:     if (nmod
      +                          e == 'e') {
  6299  06F5  3065               	movlw	101
  6300  06F6  0641               	xorwf	efgtoa@nmode^(0+128),w
  6301  06F7  1D03               	btfss	3,2
  6302  06F8  2EFA               	goto	u4701
  6303  06F9  2EFB               	goto	u4700
  6304  06FA                     u4701:
  6305  06FA  2FD3               	goto	l3519
  6306  06FB                     u4700:
  6307  06FB                     l3461:
  6308                           
  6309                           ;C:\Program Files\Microchip\xc8\v2.31\pic\sources\c99\common\doprnt.c: 499:         i = 
      +                          sizeof(dbuf) - 1;
  6310  06FB  304F               	movlw	79
  6311  06FC  00CB               	movwf	efgtoa@i^(0+128)
  6312  06FD  3000               	movlw	0
  6313  06FE  00CC               	movwf	(efgtoa@i^(0+128)+1)
  6314  06FF                     l3463:
  6315                           
  6316                           ;C:\Program Files\Microchip\xc8\v2.31\pic\sources\c99\common\doprnt.c: 500:         dbuf
      +                          [i] = '\0';
  6317  06FF  084B               	movf	efgtoa@i^(0+128),w
  6318  0700  3EA0               	addlw	(low (_dbuf| (0+256)))& (0+255)
  6319  0701  0086               	movwf	6
  6320  0702  3001               	movlw	1	; select bank3/4
  6321  0703  0087               	movwf	7
  6322  0704  0181               	clrf	1
  6323  0705                     l3465:
  6324                           
  6325                           ;C:\Program Files\Microchip\xc8\v2.31\pic\sources\c99\common\doprnt.c: 501:         sign
      +                           = 0;
  6326  0705  01BA               	clrf	efgtoa@sign^(0+128)
  6327  0706  01BB               	clrf	(efgtoa@sign+1)^(0+128)
  6328  0707                     l3467:
  6329                           
  6330                           ;C:\Program Files\Microchip\xc8\v2.31\pic\sources\c99\common\doprnt.c: 502:         if (
      +                          e < 0) {
  6331  0707  1FD2               	btfss	(efgtoa@e+1)^(0+128),7
  6332  0708  2F0A               	goto	u4711
  6333  0709  2F0B               	goto	u4710
  6334  070A                     u4711:
  6335  070A  2F14               	goto	l3473
  6336  070B                     u4710:
  6337  070B                     l3469:
  6338                           
  6339                           ;C:\Program Files\Microchip\xc8\v2.31\pic\sources\c99\common\doprnt.c: 503:             
      +                          sign = 1;
  6340  070B  3001               	movlw	1
  6341  070C  00BA               	movwf	efgtoa@sign^(0+128)
  6342  070D  3000               	movlw	0
  6343  070E  00BB               	movwf	(efgtoa@sign^(0+128)+1)
  6344  070F                     l3471:
  6345                           
  6346                           ;C:\Program Files\Microchip\xc8\v2.31\pic\sources\c99\common\doprnt.c: 504:             
      +                          e = -e;
  6347  070F  09D1               	comf	efgtoa@e^(0+128),f
  6348  0710  09D2               	comf	(efgtoa@e+1)^(0+128),f
  6349  0711  0AD1               	incf	efgtoa@e^(0+128),f
  6350  0712  1903               	skipnz
  6351  0713  0AD2               	incf	(efgtoa@e+1)^(0+128),f
  6352  0714                     l3473:
  6353                           
  6354                           ;C:\Program Files\Microchip\xc8\v2.31\pic\sources\c99\common\doprnt.c: 506:         p = 
      +                          2;
  6355  0714  3002               	movlw	2
  6356  0715  00BC               	movwf	efgtoa@p^(0+128)
  6357  0716  3000               	movlw	0
  6358  0717  00BD               	movwf	(efgtoa@p^(0+128)+1)
  6359                           
  6360                           ;C:\Program Files\Microchip\xc8\v2.31\pic\sources\c99\common\doprnt.c: 507:         whil
      +                          e (e || (0 < p)) {
  6361  0718  2F4F               	goto	l3485
  6362  0719                     l3475:
  6363                           
  6364                           ;C:\Program Files\Microchip\xc8\v2.31\pic\sources\c99\common\doprnt.c: 508:             
      +                          --i;
  6365  0719  30FF               	movlw	255
  6366  071A  0021               	movlb	1	; select bank1
  6367  071B  07CB               	addwf	efgtoa@i^(0+128),f
  6368  071C  30FF               	movlw	255
  6369  071D  3DCC               	addwfc	(efgtoa@i+1)^(0+128),f
  6370  071E                     l3477:
  6371                           
  6372                           ;C:\Program Files\Microchip\xc8\v2.31\pic\sources\c99\common\doprnt.c: 509:             
      +                          dbuf[i] = '0' + (e % 10);
  6373  071E  300A               	movlw	10
  6374  071F  00F0               	movwf	___awmod@divisor
  6375  0720  3000               	movlw	0
  6376  0721  00F1               	movwf	___awmod@divisor+1
  6377  0722  0852               	movf	(efgtoa@e+1)^(0+128),w
  6378  0723  00F3               	movwf	___awmod@dividend+1
  6379  0724  0851               	movf	efgtoa@e^(0+128),w
  6380  0725  00F2               	movwf	___awmod@dividend
  6381  0726  3194  2434  3180   	fcall	___awmod
  6382  0729  0870               	movf	?___awmod,w
  6383  072A  3E30               	addlw	48
  6384  072B  0020               	movlb	0	; select bank0
  6385  072C  00C6               	movwf	??_efgtoa
  6386  072D  0021               	movlb	1	; select bank1
  6387  072E  084B               	movf	efgtoa@i^(0+128),w
  6388  072F  3EA0               	addlw	(low (_dbuf| (0+256)))& (0+255)
  6389  0730  0086               	movwf	6
  6390  0731  3001               	movlw	1	; select bank3/4
  6391  0732  0087               	movwf	7
  6392  0733  0020               	movlb	0	; select bank0
  6393  0734  0846               	movf	??_efgtoa,w
  6394  0735  0081               	movwf	1
  6395  0736                     l3479:
  6396                           
  6397                           ;C:\Program Files\Microchip\xc8\v2.31\pic\sources\c99\common\doprnt.c: 510:             
      +                          e = e / 10;
  6398  0736  300A               	movlw	10
  6399  0737  00F0               	movwf	___awdiv@divisor
  6400  0738  3000               	movlw	0
  6401  0739  00F1               	movwf	___awdiv@divisor+1
  6402  073A  0021               	movlb	1	; select bank1
  6403  073B  0852               	movf	(efgtoa@e+1)^(0+128),w
  6404  073C  00F3               	movwf	___awdiv@dividend+1
  6405  073D  0851               	movf	efgtoa@e^(0+128),w
  6406  073E  00F2               	movwf	___awdiv@dividend
  6407  073F  3195  2538  3180   	fcall	___awdiv
  6408  0742  0871               	movf	?___awdiv+1,w
  6409  0743  0021               	movlb	1	; select bank1
  6410  0744  00D2               	movwf	(efgtoa@e+1)^(0+128)
  6411  0745  0870               	movf	?___awdiv,w
  6412  0746  00D1               	movwf	efgtoa@e^(0+128)
  6413  0747                     l3481:
  6414                           
  6415                           ;C:\Program Files\Microchip\xc8\v2.31\pic\sources\c99\common\doprnt.c: 511:             
      +                          --p;
  6416  0747  30FF               	movlw	255
  6417  0748  07BC               	addwf	efgtoa@p^(0+128),f
  6418  0749  30FF               	movlw	255
  6419  074A  3DBD               	addwfc	(efgtoa@p+1)^(0+128),f
  6420  074B                     l3483:
  6421                           
  6422                           ;C:\Program Files\Microchip\xc8\v2.31\pic\sources\c99\common\doprnt.c: 512:             
      +                          --w;
  6423  074B  30FF               	movlw	255
  6424  074C  07BF               	addwf	efgtoa@w^(0+128),f
  6425  074D  30FF               	movlw	255
  6426  074E  3DC0               	addwfc	(efgtoa@w+1)^(0+128),f
  6427  074F                     l3485:
  6428                           
  6429                           ;C:\Program Files\Microchip\xc8\v2.31\pic\sources\c99\common\doprnt.c: 507:         whil
      +                          e (e || (0 < p)) {
  6430  074F  0851               	movf	efgtoa@e^(0+128),w
  6431  0750  0452               	iorwf	(efgtoa@e+1)^(0+128),w
  6432  0751  1D03               	btfss	3,2
  6433  0752  2F54               	goto	u4721
  6434  0753  2F55               	goto	u4720
  6435  0754                     u4721:
  6436  0754  2F19               	goto	l3475
  6437  0755                     u4720:
  6438  0755                     l3487:
  6439  0755  083D               	movf	(efgtoa@p+1)^(0+128),w
  6440  0756  3A80               	xorlw	128
  6441  0757  0020               	movlb	0	; select bank0
  6442  0758  00C6               	movwf	??_efgtoa
  6443  0759  3080               	movlw	128
  6444  075A  0246               	subwf	??_efgtoa,w
  6445  075B  1D03               	skipz
  6446  075C  2F60               	goto	u4735
  6447  075D  3001               	movlw	1
  6448  075E  0021               	movlb	1	; select bank1
  6449  075F  023C               	subwf	efgtoa@p^(0+128),w
  6450  0760                     u4735:
  6451  0760  1803               	skipnc
  6452  0761  2F63               	goto	u4731
  6453  0762  2F64               	goto	u4730
  6454  0763                     u4731:
  6455  0763  2F19               	goto	l3475
  6456  0764                     u4730:
  6457  0764                     l3489:
  6458                           
  6459                           ;C:\Program Files\Microchip\xc8\v2.31\pic\sources\c99\common\doprnt.c: 514:         --i;
  6460  0764  30FF               	movlw	255
  6461  0765  0021               	movlb	1	; select bank1
  6462  0766  07CB               	addwf	efgtoa@i^(0+128),f
  6463  0767  30FF               	movlw	255
  6464  0768  3DCC               	addwfc	(efgtoa@i+1)^(0+128),f
  6465  0769                     l3491:
  6466                           
  6467                           ;C:\Program Files\Microchip\xc8\v2.31\pic\sources\c99\common\doprnt.c: 515:         dbuf
      +                          [i] = sign ? '-' : '+';
  6468  0769  083A               	movf	efgtoa@sign^(0+128),w
  6469  076A  043B               	iorwf	(efgtoa@sign+1)^(0+128),w
  6470  076B  1D03               	btfss	3,2
  6471  076C  2F6E               	goto	u4741
  6472  076D  2F6F               	goto	u4740
  6473  076E                     u4741:
  6474  076E  2F74               	goto	l3495
  6475  076F                     u4740:
  6476  076F                     l3493:
  6477  076F  302B               	movlw	43
  6478  0770  00A6               	movwf	_efgtoa$925^(0+128)
  6479  0771  3000               	movlw	0
  6480  0772  00A7               	movwf	(_efgtoa$925^(0+128)+1)
  6481  0773  2F78               	goto	l3497
  6482  0774                     l3495:
  6483  0774  302D               	movlw	45
  6484  0775  00A6               	movwf	_efgtoa$925^(0+128)
  6485  0776  3000               	movlw	0
  6486  0777  00A7               	movwf	(_efgtoa$925^(0+128)+1)
  6487  0778                     l3497:
  6488  0778  0826               	movf	_efgtoa$925^(0+128),w
  6489  0779  0020               	movlb	0	; select bank0
  6490  077A  00C6               	movwf	??_efgtoa
  6491  077B  0021               	movlb	1	; select bank1
  6492  077C  084B               	movf	efgtoa@i^(0+128),w
  6493  077D  3EA0               	addlw	(low (_dbuf| (0+256)))& (0+255)
  6494  077E  0086               	movwf	6
  6495  077F  3001               	movlw	1	; select bank3/4
  6496  0780  0087               	movwf	7
  6497  0781  0020               	movlb	0	; select bank0
  6498  0782  0846               	movf	??_efgtoa,w
  6499  0783  0081               	movwf	1
  6500  0784                     l3499:
  6501                           
  6502                           ;C:\Program Files\Microchip\xc8\v2.31\pic\sources\c99\common\doprnt.c: 516:         --w;
  6503  0784  30FF               	movlw	255
  6504  0785  0021               	movlb	1	; select bank1
  6505  0786  07BF               	addwf	efgtoa@w^(0+128),f
  6506  0787  30FF               	movlw	255
  6507  0788  3DC0               	addwfc	(efgtoa@w+1)^(0+128),f
  6508  0789                     l3501:
  6509                           
  6510                           ;C:\Program Files\Microchip\xc8\v2.31\pic\sources\c99\common\doprnt.c: 518:         dbuf
      +                          [i] = (0 ? isupper((int)c) : ((unsigned)((int)c)-'A') < 26) ? 'E' : 'e';
  6511  0789  30FF               	movlw	255
  6512  078A  07CB               	addwf	efgtoa@i^(0+128),f
  6513  078B  30FF               	movlw	255
  6514  078C  3DCC               	addwfc	(efgtoa@i+1)^(0+128),f
  6515  078D                     l3503:
  6516  078D  0020               	movlb	0	; select bank0
  6517  078E  0845               	movf	efgtoa@c,w
  6518  078F  3EBF               	addlw	191
  6519  0790  00C6               	movwf	??_efgtoa
  6520  0791  30FF               	movlw	255
  6521  0792  1803               	skipnc
  6522  0793  3000               	movlw	0
  6523  0794  00C7               	movwf	??_efgtoa+1
  6524  0795  3000               	movlw	0
  6525  0796  0247               	subwf	??_efgtoa+1,w
  6526  0797  301A               	movlw	26
  6527  0798  1903               	skipnz
  6528  0799  0246               	subwf	??_efgtoa,w
  6529  079A  1C03               	skipc
  6530  079B  2F9D               	goto	u4751
  6531  079C  2F9F               	goto	u4750
  6532  079D                     u4751:
  6533  079D  3001               	movlw	1
  6534  079E  2FA0               	goto	u4760
  6535  079F                     u4750:
  6536  079F  3000               	movlw	0
  6537  07A0                     u4760:
  6538  07A0  00C8               	movwf	??_efgtoa+2
  6539  07A1  01C9               	clrf	??_efgtoa+3
  6540  07A2  0848               	movf	??_efgtoa+2,w
  6541  07A3  0021               	movlb	1	; select bank1
  6542  07A4  00AA               	movwf	_efgtoa$927^(0+128)
  6543  07A5  0020               	movlb	0	; select bank0
  6544  07A6  0849               	movf	??_efgtoa+3,w
  6545  07A7  0021               	movlb	1	; select bank1
  6546  07A8  00AB               	movwf	(_efgtoa$927+1)^(0+128)
  6547  07A9                     l3507:
  6548  07A9  082A               	movf	_efgtoa$927^(0+128),w
  6549  07AA  042B               	iorwf	(_efgtoa$927+1)^(0+128),w
  6550  07AB  1D03               	btfss	3,2
  6551  07AC  2FAE               	goto	u4771
  6552  07AD  2FAF               	goto	u4770
  6553  07AE                     u4771:
  6554  07AE  2FB4               	goto	l3511
  6555  07AF                     u4770:
  6556  07AF                     l3509:
  6557  07AF  3065               	movlw	101
  6558  07B0  00A8               	movwf	_efgtoa$926^(0+128)
  6559  07B1  3000               	movlw	0
  6560  07B2  00A9               	movwf	(_efgtoa$926^(0+128)+1)
  6561  07B3  2FB8               	goto	l3513
  6562  07B4                     l3511:
  6563  07B4  3045               	movlw	69
  6564  07B5  00A8               	movwf	_efgtoa$926^(0+128)
  6565  07B6  3000               	movlw	0
  6566  07B7  00A9               	movwf	(_efgtoa$926^(0+128)+1)
  6567  07B8                     l3513:
  6568  07B8  0828               	movf	_efgtoa$926^(0+128),w
  6569  07B9  0020               	movlb	0	; select bank0
  6570  07BA  00C6               	movwf	??_efgtoa
  6571  07BB  0021               	movlb	1	; select bank1
  6572  07BC  084B               	movf	efgtoa@i^(0+128),w
  6573  07BD  3EA0               	addlw	(low (_dbuf| (0+256)))& (0+255)
  6574  07BE  0086               	movwf	6
  6575  07BF  3001               	movlw	1	; select bank3/4
  6576  07C0  0087               	movwf	7
  6577  07C1  0020               	movlb	0	; select bank0
  6578  07C2  0846               	movf	??_efgtoa,w
  6579  07C3  0081               	movwf	1
  6580  07C4                     l3515:
  6581                           
  6582                           ;C:\Program Files\Microchip\xc8\v2.31\pic\sources\c99\common\doprnt.c: 519:         --w;
  6583  07C4  30FF               	movlw	255
  6584  07C5  0021               	movlb	1	; select bank1
  6585  07C6  07BF               	addwf	efgtoa@w^(0+128),f
  6586  07C7  30FF               	movlw	255
  6587  07C8  3DC0               	addwfc	(efgtoa@w+1)^(0+128),f
  6588  07C9                     l3517:
  6589                           
  6590                           ;C:\Program Files\Microchip\xc8\v2.31\pic\sources\c99\common\doprnt.c: 520:         strc
      +                          py(&dbuf[n], &dbuf[i]);
  6591  07C9  084B               	movf	efgtoa@i^(0+128),w
  6592  07CA  3EA0               	addlw	(low (_dbuf| (0+256)))& (0+255)
  6593  07CB  00F0               	movwf	strcpy@src
  6594  07CC  3001               	movlw	1
  6595  07CD  00F1               	movwf	strcpy@src+1
  6596  07CE  0853               	movf	efgtoa@n^(0+128),w
  6597  07CF  3EA0               	addlw	(low (_dbuf| (0+256)))& (0+255)
  6598  07D0  3192  229E  3180   	fcall	_strcpy
  6599  07D3                     l3519:
  6600                           
  6601                           ;C:\Program Files\Microchip\xc8\v2.31\pic\sources\c99\common\doprnt.c: 524:     return p
      +                          ad(fp, &dbuf[0], w);
  6602  07D3  30A0               	movlw	(low (_dbuf| (0+256)))& (0+255)
  6603  07D4  0020               	movlb	0	; select bank0
  6604  07D5  00C6               	movwf	??_efgtoa
  6605  07D6  0846               	movf	??_efgtoa,w
  6606  07D7  00A4               	movwf	pad@buf
  6607  07D8  0021               	movlb	1	; select bank1
  6608  07D9  0840               	movf	(efgtoa@w+1)^(0+128),w
  6609  07DA  0020               	movlb	0	; select bank0
  6610  07DB  00A6               	movwf	pad@p+1
  6611  07DC  0021               	movlb	1	; select bank1
  6612  07DD  083F               	movf	efgtoa@w^(0+128),w
  6613  07DE  0020               	movlb	0	; select bank0
  6614  07DF  00A5               	movwf	pad@p
  6615  07E0  0021               	movlb	1	; select bank1
  6616  07E1  083E               	movf	efgtoa@fp^(0+128),w
  6617  07E2  3194  24DF  3180   	fcall	_pad
  6618  07E5  0020               	movlb	0	; select bank0
  6619  07E6  0825               	movf	?_pad+1,w
  6620  07E7  00C2               	movwf	?_efgtoa+1
  6621  07E8  0824               	movf	?_pad,w
  6622  07E9  00C1               	movwf	?_efgtoa
  6623  07EA                     l873:
  6624  07EA  0008               	return
  6625  07EB                     __end_of_efgtoa:
  6626                           
  6627                           	psect	text14
  6628  12E1                     __ptext14:	
  6629 ;; *************** function _tolower *****************
  6630 ;; Defined at:
  6631 ;;		line 4 in file "C:\Program Files\Microchip\xc8\v2.31\pic\sources\c99\common\tolower.c"
  6632 ;; Parameters:    Size  Location     Type
  6633 ;;  c               2    6[COMMON] int 
  6634 ;; Auto vars:     Size  Location     Type
  6635 ;;		None
  6636 ;; Return value:  Size  Location     Type
  6637 ;;                  2    6[COMMON] int 
  6638 ;; Registers used:
  6639 ;;		wreg, status,2, status,0
  6640 ;; Tracked objects:
  6641 ;;		On entry : 0/0
  6642 ;;		On exit  : 0/0
  6643 ;;		Unchanged: 0/0
  6644 ;; Data sizes:     COMMON   BANK0   BANK1   BANK2   BANK3   BANK4   BANK5   BANK6   BANK7   BANK8   BANK9  BANK10  BANK1
      +1  BANK12
  6645 ;;      Params:         2       0       0       0       0       0       0       0       0       0       0       0       
      +0       0
  6646 ;;      Locals:         2       0       0       0       0       0       0       0       0       0       0       0       
      +0       0
  6647 ;;      Temps:          4       0       0       0       0       0       0       0       0       0       0       0       
      +0       0
  6648 ;;      Totals:         8       0       0       0       0       0       0       0       0       0       0       0       
      +0       0
  6649 ;;Total ram usage:        8 bytes
  6650 ;; Hardware stack levels used:    1
  6651 ;; Hardware stack levels required when called:    1
  6652 ;; This function calls:
  6653 ;;		_isupper
  6654 ;; This function is called by:
  6655 ;;		_efgtoa
  6656 ;;		_vfpfcnvrt
  6657 ;; This function uses a non-reentrant model
  6658 ;;
  6659                           
  6660                           
  6661                           ;psect for function _tolower
  6662  12E1                     _tolower:
  6663  12E1                     l3183:	
  6664                           ;incstack = 0
  6665                           ; Regs used in _tolower: [wreg+status,2+status,0]
  6666                           
  6667  12E1  0876               	movf	tolower@c,w
  6668  12E2  3EBF               	addlw	191
  6669  12E3  00F8               	movwf	??_tolower
  6670  12E4  30FF               	movlw	255
  6671  12E5  3D77               	addwfc	tolower@c+1,w
  6672  12E6  00F9               	movwf	??_tolower+1
  6673  12E7  3000               	movlw	0
  6674  12E8  0279               	subwf	??_tolower+1,w
  6675  12E9  301A               	movlw	26
  6676  12EA  1903               	skipnz
  6677  12EB  0278               	subwf	??_tolower,w
  6678  12EC  1C03               	skipc
  6679  12ED  2AEF               	goto	u4101
  6680  12EE  2AF1               	goto	u4100
  6681  12EF                     u4101:
  6682  12EF  3001               	movlw	1
  6683  12F0  2AF2               	goto	u4110
  6684  12F1                     u4100:
  6685  12F1  3000               	movlw	0
  6686  12F2                     u4110:
  6687  12F2  00FA               	movwf	??_tolower+2
  6688  12F3  01FB               	clrf	??_tolower+3
  6689  12F4  087A               	movf	??_tolower+2,w
  6690  12F5  00FC               	movwf	_tolower$1035
  6691  12F6  087B               	movf	??_tolower+3,w
  6692  12F7  00FD               	movwf	_tolower$1035+1
  6693  12F8                     l3187:
  6694  12F8  087C               	movf	_tolower$1035,w
  6695  12F9  047D               	iorwf	_tolower$1035+1,w
  6696  12FA  1903               	btfsc	3,2
  6697  12FB  2AFD               	goto	u4121
  6698  12FC  2AFE               	goto	u4120
  6699  12FD                     u4121:
  6700  12FD  2B05               	goto	l1045
  6701  12FE                     u4120:
  6702  12FE                     l3189:
  6703  12FE  3020               	movlw	32
  6704  12FF  0476               	iorwf	tolower@c,w
  6705  1300  00F6               	movwf	?_tolower
  6706  1301  3000               	movlw	0
  6707  1302  0477               	iorwf	tolower@c+1,w
  6708  1303  00F7               	movwf	?_tolower+1
  6709  1304  2B05               	goto	l1050
  6710  1305                     l1045:
  6711  1305                     l1050:
  6712  1305  0008               	return
  6713  1306                     __end_of_tolower:
  6714                           
  6715                           	psect	text15
  6716  11F8                     __ptext15:	
  6717 ;; *************** function _isupper *****************
  6718 ;; Defined at:
  6719 ;;		line 5 in file "C:\Program Files\Microchip\xc8\v2.31\pic\sources\c99\common\isupper.c"
  6720 ;; Parameters:    Size  Location     Type
  6721 ;;  c               2    0[COMMON] int 
  6722 ;; Auto vars:     Size  Location     Type
  6723 ;;		None
  6724 ;; Return value:  Size  Location     Type
  6725 ;;                  2    0[COMMON] int 
  6726 ;; Registers used:
  6727 ;;		wreg, status,2, status,0
  6728 ;; Tracked objects:
  6729 ;;		On entry : 0/0
  6730 ;;		On exit  : 0/0
  6731 ;;		Unchanged: 0/0
  6732 ;; Data sizes:     COMMON   BANK0   BANK1   BANK2   BANK3   BANK4   BANK5   BANK6   BANK7   BANK8   BANK9  BANK10  BANK1
      +1  BANK12
  6733 ;;      Params:         2       0       0       0       0       0       0       0       0       0       0       0       
      +0       0
  6734 ;;      Locals:         0       0       0       0       0       0       0       0       0       0       0       0       
      +0       0
  6735 ;;      Temps:          4       0       0       0       0       0       0       0       0       0       0       0       
      +0       0
  6736 ;;      Totals:         6       0       0       0       0       0       0       0       0       0       0       0       
      +0       0
  6737 ;;Total ram usage:        6 bytes
  6738 ;; Hardware stack levels used:    1
  6739 ;; This function calls:
  6740 ;;		Nothing
  6741 ;; This function is called by:
  6742 ;;		_efgtoa
  6743 ;;		_vfpfcnvrt
  6744 ;;		_tolower
  6745 ;; This function uses a non-reentrant model
  6746 ;;
  6747                           
  6748                           
  6749                           ;psect for function _isupper
  6750  11F8                     _isupper:
  6751  11F8                     l2687:	
  6752                           ;incstack = 0
  6753                           ; Regs used in _isupper: [wreg+status,2+status,0]
  6754                           
  6755  11F8  0870               	movf	isupper@c,w
  6756  11F9  3EBF               	addlw	191
  6757  11FA  00F2               	movwf	??_isupper
  6758  11FB  30FF               	movlw	255
  6759  11FC  3D71               	addwfc	isupper@c+1,w
  6760  11FD  00F3               	movwf	??_isupper+1
  6761  11FE  3000               	movlw	0
  6762  11FF  0273               	subwf	??_isupper+1,w
  6763  1200  301A               	movlw	26
  6764  1201  1903               	skipnz
  6765  1202  0272               	subwf	??_isupper,w
  6766  1203  1C03               	skipc
  6767  1204  2A06               	goto	u3021
  6768  1205  2A08               	goto	u3020
  6769  1206                     u3021:
  6770  1206  3001               	movlw	1
  6771  1207  2A09               	goto	u3030
  6772  1208                     u3020:
  6773  1208  3000               	movlw	0
  6774  1209                     u3030:
  6775  1209  00F4               	movwf	??_isupper+2
  6776  120A  01F5               	clrf	??_isupper+3
  6777  120B  0874               	movf	??_isupper+2,w
  6778  120C  00F0               	movwf	?_isupper
  6779  120D  0875               	movf	??_isupper+3,w
  6780  120E  00F1               	movwf	?_isupper+1
  6781  120F                     l996:
  6782  120F  0008               	return
  6783  1210                     __end_of_isupper:
  6784                           
  6785                           	psect	text16
  6786  129E                     __ptext16:	
  6787 ;; *************** function _strcpy *****************
  6788 ;; Defined at:
  6789 ;;		line 3 in file "C:\Program Files\Microchip\xc8\v2.31\pic\sources\c99\common\strcpy.c"
  6790 ;; Parameters:    Size  Location     Type
  6791 ;;  dest            1    wreg     PTR unsigned char 
  6792 ;;		 -> dbuf(80), 
  6793 ;;  src             2    0[COMMON] PTR const unsigned char 
  6794 ;;		 -> STR_23(4), STR_22(4), STR_19(4), STR_18(4), 
  6795 ;;		 -> dbuf(80), 
  6796 ;; Auto vars:     Size  Location     Type
  6797 ;;  dest            1    7[COMMON] PTR unsigned char 
  6798 ;;		 -> dbuf(80), 
  6799 ;;  s               2    4[COMMON] PTR const unsigned char 
  6800 ;;		 -> STR_23(4), STR_22(4), STR_19(4), STR_18(4), 
  6801 ;;		 -> dbuf(80), 
  6802 ;;  d               1    6[COMMON] PTR unsigned char 
  6803 ;;		 -> dbuf(80), 
  6804 ;; Return value:  Size  Location     Type
  6805 ;;                  1    wreg      PTR unsigned char 
  6806 ;; Registers used:
  6807 ;;		wreg, fsr0l, fsr0h, fsr1l, fsr1h, status,2, status,0, pclath
  6808 ;; Tracked objects:
  6809 ;;		On entry : 0/0
  6810 ;;		On exit  : 0/0
  6811 ;;		Unchanged: 0/0
  6812 ;; Data sizes:     COMMON   BANK0   BANK1   BANK2   BANK3   BANK4   BANK5   BANK6   BANK7   BANK8   BANK9  BANK10  BANK1
      +1  BANK12
  6813 ;;      Params:         2       0       0       0       0       0       0       0       0       0       0       0       
      +0       0
  6814 ;;      Locals:         4       0       0       0       0       0       0       0       0       0       0       0       
      +0       0
  6815 ;;      Temps:          2       0       0       0       0       0       0       0       0       0       0       0       
      +0       0
  6816 ;;      Totals:         8       0       0       0       0       0       0       0       0       0       0       0       
      +0       0
  6817 ;;Total ram usage:        8 bytes
  6818 ;; Hardware stack levels used:    1
  6819 ;; This function calls:
  6820 ;;		Nothing
  6821 ;; This function is called by:
  6822 ;;		_efgtoa
  6823 ;; This function uses a non-reentrant model
  6824 ;;
  6825                           
  6826                           
  6827                           ;psect for function _strcpy
  6828  129E                     _strcpy:
  6829                           
  6830                           ;incstack = 0
  6831                           ; Regs used in _strcpy: [wreg-fsr1h+status,2+status,0+pclath]
  6832                           ;strcpy@dest stored from wreg
  6833  129E  00F7               	movwf	strcpy@dest
  6834  129F                     l3179:
  6835  129F  0871               	movf	strcpy@src+1,w
  6836  12A0  00F5               	movwf	strcpy@s+1
  6837  12A1  0870               	movf	strcpy@src,w
  6838  12A2  00F4               	movwf	strcpy@s
  6839  12A3  0877               	movf	strcpy@dest,w
  6840  12A4  00F2               	movwf	??_strcpy
  6841  12A5  0872               	movf	??_strcpy,w
  6842  12A6  00F6               	movwf	strcpy@d
  6843  12A7                     l3181:
  6844  12A7  0876               	movf	strcpy@d,w
  6845  12A8  0086               	movwf	6
  6846  12A9  3001               	movlw	1	; select bank2/3
  6847  12AA  0087               	movwf	7
  6848  12AB  0AF6               	incf	strcpy@d,f
  6849  12AC  0875               	movf	strcpy@s+1,w
  6850  12AD  00F3               	movwf	??_strcpy+1
  6851  12AE  0874               	movf	strcpy@s,w
  6852  12AF  00F2               	movwf	??_strcpy
  6853  12B0  0AF4               	incf	strcpy@s,f
  6854  12B1  1903               	skipnz
  6855  12B2  0AF5               	incf	strcpy@s+1,f
  6856  12B3  0872               	movf	??_strcpy,w
  6857  12B4  0084               	movwf	4
  6858  12B5  0873               	movf	??_strcpy+1,w
  6859  12B6  0085               	movwf	5
  6860  12B7  0800               	movf	0,w	;code access
  6861  12B8  3FC0               	movwi [0]fsr1
  6862  12B9  0889               	movf	9,f
  6863  12BA  1D03               	btfss	3,2
  6864  12BB  2ABD               	goto	u4091
  6865  12BC  2ABE               	goto	u4090
  6866  12BD                     u4091:
  6867  12BD  2AA7               	goto	l3181
  6868  12BE                     u4090:
  6869  12BE                     l1025:
  6870  12BE  0008               	return
  6871  12BF                     __end_of_strcpy:
  6872                           
  6873                           	psect	text17
  6874  14DF                     __ptext17:	
  6875 ;; *************** function _pad *****************
  6876 ;; Defined at:
  6877 ;;		line 72 in file "C:\Program Files\Microchip\xc8\v2.31\pic\sources\c99\common\doprnt.c"
  6878 ;; Parameters:    Size  Location     Type
  6879 ;;  fp              1    wreg     PTR struct _IO_FILE
  6880 ;;		 -> NULL(0), 
  6881 ;;  buf             1    4[BANK0 ] PTR unsigned char 
  6882 ;;		 -> dbuf(80), 
  6883 ;;  p               2    5[BANK0 ] int 
  6884 ;; Auto vars:     Size  Location     Type
  6885 ;;  fp              1   12[BANK0 ] PTR struct _IO_FILE
  6886 ;;		 -> NULL(0), 
  6887 ;;  w               2   10[BANK0 ] int 
  6888 ;;  i               2    8[BANK0 ] int 
  6889 ;; Return value:  Size  Location     Type
  6890 ;;                  2    4[BANK0 ] int 
  6891 ;; Registers used:
  6892 ;;		wreg, fsr1l, fsr1h, status,2, status,0, pclath, cstack
  6893 ;; Tracked objects:
  6894 ;;		On entry : 0/0
  6895 ;;		On exit  : 0/0
  6896 ;;		Unchanged: 0/0
  6897 ;; Data sizes:     COMMON   BANK0   BANK1   BANK2   BANK3   BANK4   BANK5   BANK6   BANK7   BANK8   BANK9  BANK10  BANK1
      +1  BANK12
  6898 ;;      Params:         0       3       0       0       0       0       0       0       0       0       0       0       
      +0       0
  6899 ;;      Locals:         0       5       0       0       0       0       0       0       0       0       0       0       
      +0       0
  6900 ;;      Temps:          0       1       0       0       0       0       0       0       0       0       0       0       
      +0       0
  6901 ;;      Totals:         0       9       0       0       0       0       0       0       0       0       0       0       
      +0       0
  6902 ;;Total ram usage:        9 bytes
  6903 ;; Hardware stack levels used:    1
  6904 ;; Hardware stack levels required when called:    4
  6905 ;; This function calls:
  6906 ;;		_fputc
  6907 ;;		_fputs
  6908 ;;		_strlen
  6909 ;; This function is called by:
  6910 ;;		_efgtoa
  6911 ;; This function uses a non-reentrant model
  6912 ;;
  6913                           
  6914                           
  6915                           ;psect for function _pad
  6916  14DF                     _pad:
  6917                           
  6918                           ;incstack = 0
  6919                           ; Regs used in _pad: [wreg+fsr1l+fsr1h+status,2+status,0+pclath+cstack]
  6920                           ;pad@fp stored from wreg
  6921  14DF  0020               	movlb	0	; select bank0
  6922  14E0  00AC               	movwf	pad@fp
  6923  14E1                     l3135:
  6924                           
  6925                           ;C:\Program Files\Microchip\xc8\v2.31\pic\sources\c99\common\doprnt.c: 72: static int pa
      +                          d(FILE *fp, char *buf, int p);C:\Program Files\Microchip\xc8\v2.31\pic\sources\c99\commo
      +                          n\doprnt.c: 73: {;C:\Program Files\Microchip\xc8\v2.31\pic\sources\c99\common\doprnt.c: 
      +                          74:     int i, w;;C:\Program Files\Microchip\xc8\v2.31\pic\sources\c99\common\doprnt.c: 
      +                          77:     if (flags & (1 << 0)) {
  6926  14E1  0021               	movlb	1	; select bank1
  6927  14E2  1C6B               	btfss	_flags^(0+128),0
  6928  14E3  2CE5               	goto	u3971
  6929  14E4  2CE6               	goto	u3970
  6930  14E5                     u3971:
  6931  14E5  2CEF               	goto	l3139
  6932  14E6                     u3970:
  6933  14E6                     l3137:
  6934                           
  6935                           ;C:\Program Files\Microchip\xc8\v2.31\pic\sources\c99\common\doprnt.c: 78:         fputs
      +                          ((const char *)buf, fp);
  6936  14E6  0020               	movlb	0	; select bank0
  6937  14E7  082C               	movf	pad@fp,w
  6938  14E8  00A7               	movwf	??_pad
  6939  14E9  0827               	movf	??_pad,w
  6940  14EA  00FA               	movwf	fputs@fp
  6941  14EB  0824               	movf	pad@buf,w
  6942  14EC  3193  2306  3194   	fcall	_fputs
  6943  14EF                     l3139:
  6944                           
  6945                           ;C:\Program Files\Microchip\xc8\v2.31\pic\sources\c99\common\doprnt.c: 82:     w = (p < 
      +                          0) ? 0 : p;
  6946  14EF  0020               	movlb	0	; select bank0
  6947  14F0  1BA6               	btfsc	pad@p+1,7
  6948  14F1  2CF3               	goto	u3981
  6949  14F2  2CF4               	goto	u3980
  6950  14F3                     u3981:
  6951  14F3  2CF9               	goto	l3143
  6952  14F4                     u3980:
  6953  14F4                     l3141:
  6954  14F4  0826               	movf	pad@p+1,w
  6955  14F5  00AB               	movwf	pad@w+1
  6956  14F6  0825               	movf	pad@p,w
  6957  14F7  00AA               	movwf	pad@w
  6958  14F8  2CFB               	goto	l850
  6959  14F9                     l3143:
  6960  14F9  01AA               	clrf	pad@w
  6961  14FA  01AB               	clrf	pad@w+1
  6962  14FB                     l850:
  6963                           
  6964                           ;C:\Program Files\Microchip\xc8\v2.31\pic\sources\c99\common\doprnt.c: 83:     i = 0;
  6965  14FB  01A8               	clrf	pad@i
  6966  14FC  01A9               	clrf	pad@i+1
  6967                           
  6968                           ;C:\Program Files\Microchip\xc8\v2.31\pic\sources\c99\common\doprnt.c: 84:     while (i 
      +                          < w) {
  6969  14FD  2D0F               	goto	l3149
  6970  14FE                     l3145:
  6971                           
  6972                           ;C:\Program Files\Microchip\xc8\v2.31\pic\sources\c99\common\doprnt.c: 85:         fputc
      +                          (' ', fp);
  6973  14FE  3020               	movlw	32
  6974  14FF  00F2               	movwf	fputc@c
  6975  1500  3000               	movlw	0
  6976  1501  00F3               	movwf	fputc@c+1
  6977  1502  0020               	movlb	0	; select bank0
  6978  1503  082C               	movf	pad@fp,w
  6979  1504  00A7               	movwf	??_pad
  6980  1505  0827               	movf	??_pad,w
  6981  1506  00F4               	movwf	fputc@fp
  6982  1507  3193  2360  3194   	fcall	_fputc
  6983  150A                     l3147:
  6984                           
  6985                           ;C:\Program Files\Microchip\xc8\v2.31\pic\sources\c99\common\doprnt.c: 86:         ++i;
  6986  150A  3001               	movlw	1
  6987  150B  0020               	movlb	0	; select bank0
  6988  150C  07A8               	addwf	pad@i,f
  6989  150D  3000               	movlw	0
  6990  150E  3DA9               	addwfc	pad@i+1,f
  6991  150F                     l3149:
  6992                           
  6993                           ;C:\Program Files\Microchip\xc8\v2.31\pic\sources\c99\common\doprnt.c: 84:     while (i 
      +                          < w) {
  6994  150F  0829               	movf	pad@i+1,w
  6995  1510  3A80               	xorlw	128
  6996  1511  00A7               	movwf	??_pad
  6997  1512  082B               	movf	pad@w+1,w
  6998  1513  3A80               	xorlw	128
  6999  1514  0227               	subwf	??_pad,w
  7000  1515  1D03               	skipz
  7001  1516  2D19               	goto	u3995
  7002  1517  082A               	movf	pad@w,w
  7003  1518  0228               	subwf	pad@i,w
  7004  1519                     u3995:
  7005  1519  1C03               	skipc
  7006  151A  2D1C               	goto	u3991
  7007  151B  2D1D               	goto	u3990
  7008  151C                     u3991:
  7009  151C  2CFE               	goto	l3145
  7010  151D                     u3990:
  7011  151D                     l853:
  7012                           
  7013                           ;C:\Program Files\Microchip\xc8\v2.31\pic\sources\c99\common\doprnt.c: 90:     if (!(fla
      +                          gs & (1 << 0))) {
  7014  151D  0021               	movlb	1	; select bank1
  7015  151E  186B               	btfsc	_flags^(0+128),0
  7016  151F  2D21               	goto	u4001
  7017  1520  2D22               	goto	u4000
  7018  1521                     u4001:
  7019  1521  2D2B               	goto	l854
  7020  1522                     u4000:
  7021  1522                     l3151:
  7022                           
  7023                           ;C:\Program Files\Microchip\xc8\v2.31\pic\sources\c99\common\doprnt.c: 91:         fputs
      +                          ((const char *)buf, fp);
  7024  1522  0020               	movlb	0	; select bank0
  7025  1523  082C               	movf	pad@fp,w
  7026  1524  00A7               	movwf	??_pad
  7027  1525  0827               	movf	??_pad,w
  7028  1526  00FA               	movwf	fputs@fp
  7029  1527  0824               	movf	pad@buf,w
  7030  1528  3193  2306  3194   	fcall	_fputs
  7031  152B                     l854:	
  7032                           ;C:\Program Files\Microchip\xc8\v2.31\pic\sources\c99\common\doprnt.c: 92:     }
  7033                           
  7034                           
  7035                           ;C:\Program Files\Microchip\xc8\v2.31\pic\sources\c99\common\doprnt.c: 94:     return (i
      +                          nt)(strlen(buf) + (size_t)w);
  7036  152B  0020               	movlb	0	; select bank0
  7037  152C  0824               	movf	pad@buf,w
  7038  152D  3192  2210  3194   	fcall	_strlen
  7039  1530  0020               	movlb	0	; select bank0
  7040  1531  082A               	movf	pad@w,w
  7041  1532  0770               	addwf	?_strlen,w
  7042  1533  00A4               	movwf	?_pad
  7043  1534  082B               	movf	pad@w+1,w
  7044  1535  3D71               	addwfc	?_strlen+1,w
  7045  1536  00A5               	movwf	?_pad+1
  7046  1537                     l855:
  7047  1537  0008               	return
  7048  1538                     __end_of_pad:
  7049                           
  7050                           	psect	text18
  7051  1210                     __ptext18:	
  7052 ;; *************** function _strlen *****************
  7053 ;; Defined at:
  7054 ;;		line 5 in file "C:\Program Files\Microchip\xc8\v2.31\pic\sources\c99\common\strlen.c"
  7055 ;; Parameters:    Size  Location     Type
  7056 ;;  s               1    wreg     PTR const unsigned char 
  7057 ;;		 -> dbuf(80), 
  7058 ;; Auto vars:     Size  Location     Type
  7059 ;;  s               1    4[COMMON] PTR const unsigned char 
  7060 ;;		 -> dbuf(80), 
  7061 ;;  a               1    3[COMMON] PTR const unsigned char 
  7062 ;;		 -> dbuf(80), 
  7063 ;; Return value:  Size  Location     Type
  7064 ;;                  2    0[COMMON] unsigned int 
  7065 ;; Registers used:
  7066 ;;		wreg, fsr1l, fsr1h, status,2, status,0
  7067 ;; Tracked objects:
  7068 ;;		On entry : 0/0
  7069 ;;		On exit  : 0/0
  7070 ;;		Unchanged: 0/0
  7071 ;; Data sizes:     COMMON   BANK0   BANK1   BANK2   BANK3   BANK4   BANK5   BANK6   BANK7   BANK8   BANK9  BANK10  BANK1
      +1  BANK12
  7072 ;;      Params:         2       0       0       0       0       0       0       0       0       0       0       0       
      +0       0
  7073 ;;      Locals:         2       0       0       0       0       0       0       0       0       0       0       0       
      +0       0
  7074 ;;      Temps:          1       0       0       0       0       0       0       0       0       0       0       0       
      +0       0
  7075 ;;      Totals:         5       0       0       0       0       0       0       0       0       0       0       0       
      +0       0
  7076 ;;Total ram usage:        5 bytes
  7077 ;; Hardware stack levels used:    1
  7078 ;; This function calls:
  7079 ;;		Nothing
  7080 ;; This function is called by:
  7081 ;;		_pad
  7082 ;; This function uses a non-reentrant model
  7083 ;;
  7084                           
  7085                           
  7086                           ;psect for function _strlen
  7087  1210                     _strlen:
  7088                           
  7089                           ;incstack = 0
  7090                           ; Regs used in _strlen: [wreg+fsr1l+fsr1h+status,2+status,0]
  7091                           ;strlen@s stored from wreg
  7092  1210  00F4               	movwf	strlen@s
  7093  1211                     l2677:
  7094  1211  0874               	movf	strlen@s,w
  7095  1212  00F2               	movwf	??_strlen
  7096  1213  0872               	movf	??_strlen,w
  7097  1214  00F3               	movwf	strlen@a
  7098  1215  2A1A               	goto	l2681
  7099  1216                     l2679:
  7100  1216  3001               	movlw	1
  7101  1217  00F2               	movwf	??_strlen
  7102  1218  0872               	movf	??_strlen,w
  7103  1219  07F4               	addwf	strlen@s,f
  7104  121A                     l2681:
  7105  121A  0874               	movf	strlen@s,w
  7106  121B  0086               	movwf	6
  7107  121C  3001               	movlw	1	; select bank2/3
  7108  121D  0087               	movwf	7
  7109  121E  0801               	movf	1,w
  7110  121F  1D03               	btfss	3,2
  7111  1220  2A22               	goto	u3011
  7112  1221  2A23               	goto	u3010
  7113  1222                     u3011:
  7114  1222  2A16               	goto	l2679
  7115  1223                     u3010:
  7116  1223                     l2683:
  7117  1223  0873               	movf	strlen@a,w
  7118  1224  0274               	subwf	strlen@s,w
  7119  1225  00F0               	movwf	?_strlen
  7120  1226  01F1               	clrf	?_strlen+1
  7121  1227  1BF0               	btfsc	?_strlen,7
  7122  1228  03F1               	decf	?_strlen+1,f
  7123  1229                     l1031:
  7124  1229  0008               	return
  7125  122A                     __end_of_strlen:
  7126                           
  7127                           	psect	text19
  7128  1306                     __ptext19:	
  7129 ;; *************** function _fputs *****************
  7130 ;; Defined at:
  7131 ;;		line 8 in file "C:\Program Files\Microchip\xc8\v2.31\pic\sources\c99\common\nf_fputs.c"
  7132 ;; Parameters:    Size  Location     Type
  7133 ;;  s               1    wreg     PTR const unsigned char 
  7134 ;;		 -> dbuf(80), 
  7135 ;;  fp              1   10[COMMON] PTR struct _IO_FILE
  7136 ;;		 -> NULL(0), 
  7137 ;; Auto vars:     Size  Location     Type
  7138 ;;  s               1    3[BANK0 ] PTR const unsigned char 
  7139 ;;		 -> dbuf(80), 
  7140 ;;  i               2    1[BANK0 ] int 
  7141 ;;  c               1    0[BANK0 ] unsigned char 
  7142 ;; Return value:  Size  Location     Type
  7143 ;;                  2   10[COMMON] int 
  7144 ;; Registers used:
  7145 ;;		wreg, fsr1l, fsr1h, status,2, status,0, pclath, cstack
  7146 ;; Tracked objects:
  7147 ;;		On entry : 0/0
  7148 ;;		On exit  : 0/0
  7149 ;;		Unchanged: 0/0
  7150 ;; Data sizes:     COMMON   BANK0   BANK1   BANK2   BANK3   BANK4   BANK5   BANK6   BANK7   BANK8   BANK9  BANK10  BANK1
      +1  BANK12
  7151 ;;      Params:         1       0       0       0       0       0       0       0       0       0       0       0       
      +0       0
  7152 ;;      Locals:         0       4       0       0       0       0       0       0       0       0       0       0       
      +0       0
  7153 ;;      Temps:          3       0       0       0       0       0       0       0       0       0       0       0       
      +0       0
  7154 ;;      Totals:         4       4       0       0       0       0       0       0       0       0       0       0       
      +0       0
  7155 ;;Total ram usage:        8 bytes
  7156 ;; Hardware stack levels used:    1
  7157 ;; Hardware stack levels required when called:    3
  7158 ;; This function calls:
  7159 ;;		_fputc
  7160 ;; This function is called by:
  7161 ;;		_pad
  7162 ;; This function uses a non-reentrant model
  7163 ;;
  7164                           
  7165                           
  7166                           ;psect for function _fputs
  7167  1306                     _fputs:
  7168                           
  7169                           ;incstack = 0
  7170                           ; Regs used in _fputs: [wreg+fsr1l+fsr1h+status,2+status,0+pclath+cstack]
  7171                           ;fputs@s stored from wreg
  7172  1306  0020               	movlb	0	; select bank0
  7173  1307  00A3               	movwf	fputs@s
  7174  1308                     l2669:
  7175  1308  01A1               	clrf	fputs@i
  7176  1309  01A2               	clrf	fputs@i+1
  7177  130A  2B1E               	goto	l2675
  7178  130B                     l2671:
  7179  130B  0820               	movf	fputs@c,w
  7180  130C  00FB               	movwf	??_fputs
  7181  130D  01FC               	clrf	??_fputs+1
  7182  130E  087B               	movf	??_fputs,w
  7183  130F  00F2               	movwf	fputc@c
  7184  1310  087C               	movf	??_fputs+1,w
  7185  1311  00F3               	movwf	fputc@c+1
  7186  1312  087A               	movf	fputs@fp,w
  7187  1313  00FD               	movwf	??_fputs+2
  7188  1314  087D               	movf	??_fputs+2,w
  7189  1315  00F4               	movwf	fputc@fp
  7190  1316  3193  2360  3193   	fcall	_fputc
  7191  1319                     l2673:
  7192  1319  3001               	movlw	1
  7193  131A  0020               	movlb	0	; select bank0
  7194  131B  07A1               	addwf	fputs@i,f
  7195  131C  3000               	movlw	0
  7196  131D  3DA2               	addwfc	fputs@i+1,f
  7197  131E                     l2675:
  7198  131E  0821               	movf	fputs@i,w
  7199  131F  0723               	addwf	fputs@s,w
  7200  1320  00FB               	movwf	??_fputs
  7201  1321  087B               	movf	??_fputs,w
  7202  1322  0086               	movwf	6
  7203  1323  3001               	movlw	1	; select bank2/3
  7204  1324  0087               	movwf	7
  7205  1325  0801               	movf	1,w
  7206  1326  00FC               	movwf	??_fputs+1
  7207  1327  087C               	movf	??_fputs+1,w
  7208  1328  00A0               	movwf	fputs@c
  7209  1329  0820               	movf	fputs@c,w
  7210  132A  1D03               	btfss	3,2
  7211  132B  2B2D               	goto	u3001
  7212  132C  2B2E               	goto	u3000
  7213  132D                     u3001:
  7214  132D  2B0B               	goto	l2671
  7215  132E                     u3000:
  7216  132E                     l1019:
  7217  132E  0008               	return
  7218  132F                     __end_of_fputs:
  7219                           
  7220                           	psect	text20
  7221  1360                     __ptext20:	
  7222 ;; *************** function _fputc *****************
  7223 ;; Defined at:
  7224 ;;		line 8 in file "C:\Program Files\Microchip\xc8\v2.31\pic\sources\c99\common\nf_fputc.c"
  7225 ;; Parameters:    Size  Location     Type
  7226 ;;  c               2    2[COMMON] int 
  7227 ;;  fp              1    4[COMMON] PTR struct _IO_FILE
  7228 ;;		 -> NULL(0), 
  7229 ;; Auto vars:     Size  Location     Type
  7230 ;;		None
  7231 ;; Return value:  Size  Location     Type
  7232 ;;                  2    2[COMMON] int 
  7233 ;; Registers used:
  7234 ;;		wreg, fsr1l, fsr1h, status,2, status,0, pclath, cstack
  7235 ;; Tracked objects:
  7236 ;;		On entry : 0/0
  7237 ;;		On exit  : 0/0
  7238 ;;		Unchanged: 0/0
  7239 ;; Data sizes:     COMMON   BANK0   BANK1   BANK2   BANK3   BANK4   BANK5   BANK6   BANK7   BANK8   BANK9  BANK10  BANK1
      +1  BANK12
  7240 ;;      Params:         3       0       0       0       0       0       0       0       0       0       0       0       
      +0       0
  7241 ;;      Locals:         0       0       0       0       0       0       0       0       0       0       0       0       
      +0       0
  7242 ;;      Temps:          5       0       0       0       0       0       0       0       0       0       0       0       
      +0       0
  7243 ;;      Totals:         8       0       0       0       0       0       0       0       0       0       0       0       
      +0       0
  7244 ;;Total ram usage:        8 bytes
  7245 ;; Hardware stack levels used:    1
  7246 ;; Hardware stack levels required when called:    2
  7247 ;; This function calls:
  7248 ;;		_putch
  7249 ;; This function is called by:
  7250 ;;		_pad
  7251 ;;		_vfpfcnvrt
  7252 ;;		_fputs
  7253 ;; This function uses a non-reentrant model
  7254 ;;
  7255                           
  7256                           
  7257                           ;psect for function _fputc
  7258  1360                     _fputc:
  7259  1360                     l2447:	
  7260                           ;incstack = 0
  7261                           ; Regs used in _fputc: [wreg+fsr1l+fsr1h+status,2+status,0+pclath+cstack]
  7262                           
  7263  1360  0874               	movf	fputc@fp,w
  7264  1361  1903               	btfsc	3,2
  7265  1362  2B64               	goto	u2501
  7266  1363  2B65               	goto	u2500
  7267  1364                     u2501:
  7268  1364  2B6A               	goto	l2451
  7269  1365                     u2500:
  7270  1365                     l2449:
  7271  1365  0874               	movf	fputc@fp,w
  7272  1366  1D03               	btfss	3,2
  7273  1367  2B69               	goto	u2511
  7274  1368  2B6A               	goto	u2510
  7275  1369                     u2511:
  7276  1369  2B6F               	goto	l2453
  7277  136A                     u2510:
  7278  136A                     l2451:
  7279  136A  0872               	movf	fputc@c,w
  7280  136B  3191  217B  3193   	fcall	_putch
  7281  136E  2B9E               	goto	l1011
  7282  136F                     l2453:
  7283  136F  0874               	movf	fputc@fp,w
  7284  1370  3E03               	addlw	3
  7285  1371  0086               	movwf	6
  7286  1372  0187               	clrf	7
  7287  1373  0016               	moviw fsr1++
  7288  1374  0401               	iorwf	1,w
  7289  1375  1903               	btfsc	3,2
  7290  1376  2B78               	goto	u2521
  7291  1377  2B79               	goto	u2520
  7292  1378                     u2521:
  7293  1378  2B96               	goto	l2457
  7294  1379                     u2520:
  7295  1379                     l2455:
  7296  1379  0874               	movf	fputc@fp,w
  7297  137A  3E03               	addlw	3
  7298  137B  0086               	movwf	6
  7299  137C  0187               	clrf	7
  7300  137D  3F40               	moviw [0]fsr1
  7301  137E  00F5               	movwf	??_fputc
  7302  137F  3F41               	moviw [1]fsr1
  7303  1380  00F6               	movwf	??_fputc+1
  7304  1381  0A74               	incf	fputc@fp,w
  7305  1382  0086               	movwf	6
  7306  1383  0187               	clrf	7
  7307  1384  3F40               	moviw [0]fsr1
  7308  1385  00F7               	movwf	??_fputc+2
  7309  1386  3F41               	moviw [1]fsr1
  7310  1387  00F8               	movwf	??_fputc+3
  7311  1388  0878               	movf	??_fputc+3,w
  7312  1389  3A80               	xorlw	128
  7313  138A  00F9               	movwf	??_fputc+4
  7314  138B  0876               	movf	??_fputc+1,w
  7315  138C  3A80               	xorlw	128
  7316  138D  0279               	subwf	??_fputc+4,w
  7317  138E  1D03               	skipz
  7318  138F  2B92               	goto	u2535
  7319  1390  0875               	movf	??_fputc,w
  7320  1391  0277               	subwf	??_fputc+2,w
  7321  1392                     u2535:
  7322  1392  1803               	skipnc
  7323  1393  2B95               	goto	u2531
  7324  1394  2B96               	goto	u2530
  7325  1395                     u2531:
  7326  1395  2B9E               	goto	l1011
  7327  1396                     u2530:
  7328  1396                     l2457:
  7329  1396  0A74               	incf	fputc@fp,w
  7330  1397  0086               	movwf	6
  7331  1398  0187               	clrf	7
  7332  1399  3001               	movlw	1
  7333  139A  0781               	addwf	1,f
  7334  139B  3141               	addfsr 1,1
  7335  139C  1803               	skipnc
  7336  139D  0A81               	incf	1,f
  7337  139E                     l1011:
  7338  139E  0008               	return
  7339  139F                     __end_of_fputc:
  7340                           
  7341                           	psect	text21
  7342  117B                     __ptext21:	
  7343 ;; *************** function _putch *****************
  7344 ;; Defined at:
  7345 ;;		line 146 in file "mcc_generated_files/eusart.c"
  7346 ;; Parameters:    Size  Location     Type
  7347 ;;  txData          1    wreg     unsigned char 
  7348 ;; Auto vars:     Size  Location     Type
  7349 ;;  txData          1    1[COMMON] unsigned char 
  7350 ;; Return value:  Size  Location     Type
  7351 ;;                  1    wreg      void 
  7352 ;; Registers used:
  7353 ;;		wreg, status,2, status,0, pclath, cstack
  7354 ;; Tracked objects:
  7355 ;;		On entry : 0/0
  7356 ;;		On exit  : 0/0
  7357 ;;		Unchanged: 0/0
  7358 ;; Data sizes:     COMMON   BANK0   BANK1   BANK2   BANK3   BANK4   BANK5   BANK6   BANK7   BANK8   BANK9  BANK10  BANK1
      +1  BANK12
  7359 ;;      Params:         0       0       0       0       0       0       0       0       0       0       0       0       
      +0       0
  7360 ;;      Locals:         1       0       0       0       0       0       0       0       0       0       0       0       
      +0       0
  7361 ;;      Temps:          0       0       0       0       0       0       0       0       0       0       0       0       
      +0       0
  7362 ;;      Totals:         1       0       0       0       0       0       0       0       0       0       0       0       
      +0       0
  7363 ;;Total ram usage:        1 bytes
  7364 ;; Hardware stack levels used:    1
  7365 ;; Hardware stack levels required when called:    1
  7366 ;; This function calls:
  7367 ;;		_EUSART_Write
  7368 ;; This function is called by:
  7369 ;;		_fputc
  7370 ;; This function uses a non-reentrant model
  7371 ;;
  7372                           
  7373                           
  7374                           ;psect for function _putch
  7375  117B                     _putch:
  7376                           
  7377                           ;incstack = 0
  7378                           ; Regs used in _putch: [wreg+status,2+status,0+pclath+cstack]
  7379                           ;putch@txData stored from wreg
  7380  117B  00F1               	movwf	putch@txData
  7381  117C                     l2445:
  7382                           
  7383                           ;mcc_generated_files/eusart.c: 146: void putch(char txData);mcc_generated_files/eusart.c
      +                          : 147: {;mcc_generated_files/eusart.c: 148:     EUSART_Write(txData);
  7384  117C  0871               	movf	putch@txData,w
  7385  117D  3191  21A0  3191   	fcall	_EUSART_Write
  7386  1180                     l183:
  7387  1180  0008               	return
  7388  1181                     __end_of_putch:
  7389                           
  7390                           	psect	text22
  7391  11A0                     __ptext22:	
  7392 ;; *************** function _EUSART_Write *****************
  7393 ;; Defined at:
  7394 ;;		line 132 in file "mcc_generated_files/eusart.c"
  7395 ;; Parameters:    Size  Location     Type
  7396 ;;  txData          1    wreg     unsigned char 
  7397 ;; Auto vars:     Size  Location     Type
  7398 ;;  txData          1    0[COMMON] unsigned char 
  7399 ;; Return value:  Size  Location     Type
  7400 ;;                  1    wreg      void 
  7401 ;; Registers used:
  7402 ;;		wreg
  7403 ;; Tracked objects:
  7404 ;;		On entry : 0/0
  7405 ;;		On exit  : 0/0
  7406 ;;		Unchanged: 0/0
  7407 ;; Data sizes:     COMMON   BANK0   BANK1   BANK2   BANK3   BANK4   BANK5   BANK6   BANK7   BANK8   BANK9  BANK10  BANK1
      +1  BANK12
  7408 ;;      Params:         0       0       0       0       0       0       0       0       0       0       0       0       
      +0       0
  7409 ;;      Locals:         1       0       0       0       0       0       0       0       0       0       0       0       
      +0       0
  7410 ;;      Temps:          0       0       0       0       0       0       0       0       0       0       0       0       
      +0       0
  7411 ;;      Totals:         1       0       0       0       0       0       0       0       0       0       0       0       
      +0       0
  7412 ;;Total ram usage:        1 bytes
  7413 ;; Hardware stack levels used:    1
  7414 ;; This function calls:
  7415 ;;		Nothing
  7416 ;; This function is called by:
  7417 ;;		_putch
  7418 ;; This function uses a non-reentrant model
  7419 ;;
  7420                           
  7421                           
  7422                           ;psect for function _EUSART_Write
  7423  11A0                     _EUSART_Write:
  7424                           
  7425                           ;incstack = 0
  7426                           ; Regs used in _EUSART_Write: [wreg]
  7427                           ;EUSART_Write@txData stored from wreg
  7428  11A0  00F0               	movwf	EUSART_Write@txData
  7429  11A1                     l2441:
  7430  11A1                     l174:	
  7431                           ;mcc_generated_files/eusart.c: 135:     {;mcc_generated_files/eusart.c: 136:     }
  7432                           
  7433                           
  7434                           ;mcc_generated_files/eusart.c: 134:     while(0 == PIR1bits.TXIF)
  7435  11A1  0020               	movlb	0	; select bank0
  7436  11A2  1E11               	btfss	17,4	;volatile
  7437  11A3  29A5               	goto	u2491
  7438  11A4  29A6               	goto	u2490
  7439  11A5                     u2491:
  7440  11A5  29A1               	goto	l174
  7441  11A6                     u2490:
  7442  11A6                     l2443:
  7443                           
  7444                           ;mcc_generated_files/eusart.c: 138:     TX1REG = txData;
  7445  11A6  0870               	movf	EUSART_Write@txData,w
  7446  11A7  0023               	movlb	3	; select bank3
  7447  11A8  009A               	movwf	26	;volatile
  7448  11A9                     l177:
  7449  11A9  0008               	return
  7450  11AA                     __end_of_EUSART_Write:
  7451                           
  7452                           	psect	text23
  7453  1715                     __ptext23:	
  7454 ;; *************** function _floorf *****************
  7455 ;; Defined at:
  7456 ;;		line 3 in file "C:\Program Files\Microchip\xc8\v2.31\pic\sources\c99\common\floorf.c"
  7457 ;; Parameters:    Size  Location     Type
  7458 ;;  x               4   13[BANK0 ] float 
  7459 ;; Auto vars:     Size  Location     Type
  7460 ;;  u               4   29[BANK0 ] struct .
  7461 ;;  m               4   23[BANK0 ] unsigned long 
  7462 ;;  e               2   27[BANK0 ] int 
  7463 ;; Return value:  Size  Location     Type
  7464 ;;                  4   13[BANK0 ] float 
  7465 ;; Registers used:
  7466 ;;		wreg, status,2, status,0
  7467 ;; Tracked objects:
  7468 ;;		On entry : 0/0
  7469 ;;		On exit  : 0/0
  7470 ;;		Unchanged: 0/0
  7471 ;; Data sizes:     COMMON   BANK0   BANK1   BANK2   BANK3   BANK4   BANK5   BANK6   BANK7   BANK8   BANK9  BANK10  BANK1
      +1  BANK12
  7472 ;;      Params:         0       4       0       0       0       0       0       0       0       0       0       0       
      +0       0
  7473 ;;      Locals:         0      10       0       0       0       0       0       0       0       0       0       0       
      +0       0
  7474 ;;      Temps:          0       6       0       0       0       0       0       0       0       0       0       0       
      +0       0
  7475 ;;      Totals:         0      20       0       0       0       0       0       0       0       0       0       0       
      +0       0
  7476 ;;Total ram usage:       20 bytes
  7477 ;; Hardware stack levels used:    1
  7478 ;; This function calls:
  7479 ;;		Nothing
  7480 ;; This function is called by:
  7481 ;;		_efgtoa
  7482 ;; This function uses a non-reentrant model
  7483 ;;
  7484                           
  7485                           
  7486                           ;psect for function _floorf
  7487  1715                     _floorf:
  7488  1715                     l3193:	
  7489                           ;incstack = 0
  7490                           ; Regs used in _floorf: [wreg+status,2+status,0]
  7491                           
  7492  1715  0021               	movlb	1	; select bank1
  7493  1716  0860               	movf	(floorf@F527+3)^(0+128),w
  7494  1717  0020               	movlb	0	; select bank0
  7495  1718  00C0               	movwf	floorf@u+3
  7496  1719  0021               	movlb	1	; select bank1
  7497  171A  085F               	movf	(floorf@F527+2)^(0+128),w
  7498  171B  0020               	movlb	0	; select bank0
  7499  171C  00BF               	movwf	floorf@u+2
  7500  171D  0021               	movlb	1	; select bank1
  7501  171E  085E               	movf	(floorf@F527+1)^(0+128),w
  7502  171F  0020               	movlb	0	; select bank0
  7503  1720  00BE               	movwf	floorf@u+1
  7504  1721  0021               	movlb	1	; select bank1
  7505  1722  085D               	movf	floorf@F527^(0+128),w
  7506  1723  0020               	movlb	0	; select bank0
  7507  1724  00BD               	movwf	floorf@u
  7508  1725  0830               	movf	floorf@x+3,w
  7509  1726  00C0               	movwf	floorf@u+3
  7510  1727  082F               	movf	floorf@x+2,w
  7511  1728  00BF               	movwf	floorf@u+2
  7512  1729  082E               	movf	floorf@x+1,w
  7513  172A  00BE               	movwf	floorf@u+1
  7514  172B  082D               	movf	floorf@x,w
  7515  172C  00BD               	movwf	floorf@u
  7516  172D                     l3195:
  7517  172D  083D               	movf	floorf@u,w
  7518  172E  00B1               	movwf	??_floorf
  7519  172F  083E               	movf	floorf@u+1,w
  7520  1730  00B2               	movwf	??_floorf+1
  7521  1731  083F               	movf	floorf@u+2,w
  7522  1732  00B3               	movwf	??_floorf+2
  7523  1733  0840               	movf	floorf@u+3,w
  7524  1734  00B4               	movwf	??_floorf+3
  7525  1735  3017               	movlw	23
  7526  1736                     u4135:
  7527  1736  36B4               	lsrf	??_floorf+3,f
  7528  1737  0CB3               	rrf	??_floorf+2,f
  7529  1738  0CB2               	rrf	??_floorf+1,f
  7530  1739  0CB1               	rrf	??_floorf,f
  7531  173A                     u4130:
  7532  173A  0B89               	decfsz	9,f
  7533  173B  2F36               	goto	u4135
  7534  173C  30FF               	movlw	255
  7535  173D  0531               	andwf	??_floorf,w
  7536  173E  00B5               	movwf	??_floorf+4
  7537  173F  3000               	movlw	0
  7538  1740  0532               	andwf	??_floorf+1,w
  7539  1741  00B6               	movwf	??_floorf+5
  7540  1742  0835               	movf	??_floorf+4,w
  7541  1743  3E81               	addlw	129
  7542  1744  00BB               	movwf	floorf@e
  7543  1745  30FF               	movlw	255
  7544  1746  3D36               	addwfc	??_floorf+5,w
  7545  1747  00BC               	movwf	floorf@e+1
  7546  1748                     l3197:
  7547  1748  083C               	movf	floorf@e+1,w
  7548  1749  3A80               	xorlw	128
  7549  174A  00B1               	movwf	??_floorf
  7550  174B  3080               	movlw	128
  7551  174C  0231               	subwf	??_floorf,w
  7552  174D  1D03               	skipz
  7553  174E  2F51               	goto	u4145
  7554  174F  3017               	movlw	23
  7555  1750  023B               	subwf	floorf@e,w
  7556  1751                     u4145:
  7557  1751  1C03               	skipc
  7558  1752  2F54               	goto	u4141
  7559  1753  2F55               	goto	u4140
  7560  1754                     u4141:
  7561  1754  2F56               	goto	l985
  7562  1755                     u4140:
  7563  1755                     l3199:
  7564  1755  2FFF               	goto	l986
  7565  1756                     l985:
  7566  1756  0020               	movlb	0	; select bank0
  7567  1757  1BBC               	btfsc	floorf@e+1,7
  7568  1758  2F5A               	goto	u4151
  7569  1759  2F5B               	goto	u4150
  7570  175A                     u4151:
  7571  175A  2FB8               	goto	l3213
  7572  175B                     u4150:
  7573  175B                     l3201:
  7574  175B  30FF               	movlw	255
  7575  175C  00B1               	movwf	??_floorf
  7576  175D  30FF               	movlw	255
  7577  175E  00B2               	movwf	??_floorf+1
  7578  175F  307F               	movlw	127
  7579  1760  00B3               	movwf	??_floorf+2
  7580  1761  3000               	movlw	0
  7581  1762  00B4               	movwf	??_floorf+3
  7582  1763  0A3B               	incf	floorf@e,w
  7583  1764  2F69               	goto	u4160
  7584  1765                     u4165:
  7585  1765  37B4               	asrf	??_floorf+3,f
  7586  1766  0CB3               	rrf	??_floorf+2,f
  7587  1767  0CB2               	rrf	??_floorf+1,f
  7588  1768  0CB1               	rrf	??_floorf,f
  7589  1769                     u4160:
  7590  1769  0B89               	decfsz	9,f
  7591  176A  2F65               	goto	u4165
  7592  176B  0834               	movf	??_floorf+3,w
  7593  176C  00BA               	movwf	floorf@m+3
  7594  176D  0833               	movf	??_floorf+2,w
  7595  176E  00B9               	movwf	floorf@m+2
  7596  176F  0832               	movf	??_floorf+1,w
  7597  1770  00B8               	movwf	floorf@m+1
  7598  1771  0831               	movf	??_floorf,w
  7599  1772  00B7               	movwf	floorf@m
  7600  1773                     l3203:
  7601  1773  083D               	movf	floorf@u,w
  7602  1774  0537               	andwf	floorf@m,w
  7603  1775  00B1               	movwf	??_floorf
  7604  1776  083E               	movf	floorf@u+1,w
  7605  1777  0538               	andwf	floorf@m+1,w
  7606  1778  00B2               	movwf	??_floorf+1
  7607  1779  083F               	movf	floorf@u+2,w
  7608  177A  0539               	andwf	floorf@m+2,w
  7609  177B  00B3               	movwf	??_floorf+2
  7610  177C  0840               	movf	floorf@u+3,w
  7611  177D  053A               	andwf	floorf@m+3,w
  7612  177E  00B4               	movwf	??_floorf+3
  7613  177F  0834               	movf	??_floorf+3,w
  7614  1780  0433               	iorwf	??_floorf+2,w
  7615  1781  0432               	iorwf	??_floorf+1,w
  7616  1782  0431               	iorwf	??_floorf,w
  7617  1783  1D03               	skipz
  7618  1784  2F86               	goto	u4171
  7619  1785  2F87               	goto	u4170
  7620  1786                     u4171:
  7621  1786  2F88               	goto	l3207
  7622  1787                     u4170:
  7623  1787  2F55               	goto	l3199
  7624  1788                     l3207:
  7625  1788  083D               	movf	floorf@u,w
  7626  1789  00B1               	movwf	??_floorf
  7627  178A  083E               	movf	floorf@u+1,w
  7628  178B  00B2               	movwf	??_floorf+1
  7629  178C  083F               	movf	floorf@u+2,w
  7630  178D  00B3               	movwf	??_floorf+2
  7631  178E  0840               	movf	floorf@u+3,w
  7632  178F  00B4               	movwf	??_floorf+3
  7633  1790  301F               	movlw	31
  7634  1791                     u4185:
  7635  1791  36B4               	lsrf	??_floorf+3,f
  7636  1792  0CB3               	rrf	??_floorf+2,f
  7637  1793  0CB2               	rrf	??_floorf+1,f
  7638  1794  0CB1               	rrf	??_floorf,f
  7639  1795                     u4180:
  7640  1795  0B89               	decfsz	9,f
  7641  1796  2F91               	goto	u4185
  7642  1797  0834               	movf	??_floorf+3,w
  7643  1798  0433               	iorwf	??_floorf+2,w
  7644  1799  0432               	iorwf	??_floorf+1,w
  7645  179A  0431               	iorwf	??_floorf,w
  7646  179B  1903               	skipnz
  7647  179C  2F9E               	goto	u4191
  7648  179D  2F9F               	goto	u4190
  7649  179E                     u4191:
  7650  179E  2FA7               	goto	l3211
  7651  179F                     u4190:
  7652  179F                     l3209:
  7653  179F  0837               	movf	floorf@m,w
  7654  17A0  07BD               	addwf	floorf@u,f
  7655  17A1  0838               	movf	floorf@m+1,w
  7656  17A2  3DBE               	addwfc	floorf@u+1,f
  7657  17A3  0839               	movf	floorf@m+2,w
  7658  17A4  3DBF               	addwfc	floorf@u+2,f
  7659  17A5  083A               	movf	floorf@m+3,w
  7660  17A6  3DC0               	addwfc	floorf@u+3,f
  7661  17A7                     l3211:
  7662  17A7  0937               	comf	floorf@m,w
  7663  17A8  00B1               	movwf	??_floorf
  7664  17A9  0938               	comf	floorf@m+1,w
  7665  17AA  00B2               	movwf	??_floorf+1
  7666  17AB  0939               	comf	floorf@m+2,w
  7667  17AC  00B3               	movwf	??_floorf+2
  7668  17AD  093A               	comf	floorf@m+3,w
  7669  17AE  00B4               	movwf	??_floorf+3
  7670  17AF  0831               	movf	??_floorf,w
  7671  17B0  05BD               	andwf	floorf@u,f
  7672  17B1  0832               	movf	??_floorf+1,w
  7673  17B2  05BE               	andwf	floorf@u+1,f
  7674  17B3  0833               	movf	??_floorf+2,w
  7675  17B4  05BF               	andwf	floorf@u+2,f
  7676  17B5  0834               	movf	??_floorf+3,w
  7677  17B6  05C0               	andwf	floorf@u+3,f
  7678  17B7  2FF7               	goto	l990
  7679  17B8                     l3213:
  7680  17B8  083D               	movf	floorf@u,w
  7681  17B9  00B1               	movwf	??_floorf
  7682  17BA  083E               	movf	floorf@u+1,w
  7683  17BB  00B2               	movwf	??_floorf+1
  7684  17BC  083F               	movf	floorf@u+2,w
  7685  17BD  00B3               	movwf	??_floorf+2
  7686  17BE  0840               	movf	floorf@u+3,w
  7687  17BF  00B4               	movwf	??_floorf+3
  7688  17C0  301F               	movlw	31
  7689  17C1                     u4205:
  7690  17C1  36B4               	lsrf	??_floorf+3,f
  7691  17C2  0CB3               	rrf	??_floorf+2,f
  7692  17C3  0CB2               	rrf	??_floorf+1,f
  7693  17C4  0CB1               	rrf	??_floorf,f
  7694  17C5                     u4200:
  7695  17C5  0B89               	decfsz	9,f
  7696  17C6  2FC1               	goto	u4205
  7697  17C7  0834               	movf	??_floorf+3,w
  7698  17C8  0433               	iorwf	??_floorf+2,w
  7699  17C9  0432               	iorwf	??_floorf+1,w
  7700  17CA  0431               	iorwf	??_floorf,w
  7701  17CB  1D03               	skipz
  7702  17CC  2FCE               	goto	u4211
  7703  17CD  2FCF               	goto	u4210
  7704  17CE                     u4211:
  7705  17CE  2FD8               	goto	l3217
  7706  17CF                     u4210:
  7707  17CF                     l3215:
  7708  17CF  3000               	movlw	0
  7709  17D0  00C0               	movwf	floorf@u+3
  7710  17D1  3000               	movlw	0
  7711  17D2  00BF               	movwf	floorf@u+2
  7712  17D3  3000               	movlw	0
  7713  17D4  00BE               	movwf	floorf@u+1
  7714  17D5  3000               	movlw	0
  7715  17D6  00BD               	movwf	floorf@u
  7716  17D7  2FF7               	goto	l990
  7717  17D8                     l3217:
  7718  17D8  083D               	movf	floorf@u,w
  7719  17D9  00B1               	movwf	??_floorf
  7720  17DA  083E               	movf	floorf@u+1,w
  7721  17DB  00B2               	movwf	??_floorf+1
  7722  17DC  083F               	movf	floorf@u+2,w
  7723  17DD  00B3               	movwf	??_floorf+2
  7724  17DE  0840               	movf	floorf@u+3,w
  7725  17DF  00B4               	movwf	??_floorf+3
  7726  17E0  3001               	movlw	1
  7727  17E1                     u4225:
  7728  17E1  35B1               	lslf	??_floorf,f
  7729  17E2  0DB2               	rlf	??_floorf+1,f
  7730  17E3  0DB3               	rlf	??_floorf+2,f
  7731  17E4  0DB4               	rlf	??_floorf+3,f
  7732  17E5                     u4220:
  7733  17E5  0B89               	decfsz	9,f
  7734  17E6  2FE1               	goto	u4225
  7735  17E7  0834               	movf	??_floorf+3,w
  7736  17E8  0433               	iorwf	??_floorf+2,w
  7737  17E9  0432               	iorwf	??_floorf+1,w
  7738  17EA  0431               	iorwf	??_floorf,w
  7739  17EB  1903               	skipnz
  7740  17EC  2FEE               	goto	u4231
  7741  17ED  2FEF               	goto	u4230
  7742  17EE                     u4231:
  7743  17EE  2FF7               	goto	l990
  7744  17EF                     u4230:
  7745  17EF                     l3219:
  7746  17EF  30BF               	movlw	191
  7747  17F0  00C0               	movwf	floorf@u+3
  7748  17F1  3080               	movlw	128
  7749  17F2  00BF               	movwf	floorf@u+2
  7750  17F3  3000               	movlw	0
  7751  17F4  00BE               	movwf	floorf@u+1
  7752  17F5  3000               	movlw	0
  7753  17F6  00BD               	movwf	floorf@u
  7754  17F7                     l990:
  7755  17F7  0840               	movf	floorf@u+3,w
  7756  17F8  00B0               	movwf	?_floorf+3
  7757  17F9  083F               	movf	floorf@u+2,w
  7758  17FA  00AF               	movwf	?_floorf+2
  7759  17FB  083E               	movf	floorf@u+1,w
  7760  17FC  00AE               	movwf	?_floorf+1
  7761  17FD  083D               	movf	floorf@u,w
  7762  17FE  00AD               	movwf	?_floorf
  7763  17FF                     l986:
  7764  17FF  0008               	return
  7765  1800                     __end_of_floorf:
  7766                           
  7767                           	psect	text24
  7768  160B                     __ptext24:	
  7769 ;; *************** function ___fpclassifyf *****************
  7770 ;; Defined at:
  7771 ;;		line 4 in file "C:\Program Files\Microchip\xc8\v2.31\pic\sources\c99\common\__fpclassifyf.c"
  7772 ;; Parameters:    Size  Location     Type
  7773 ;;  x               4    0[COMMON] float 
  7774 ;; Auto vars:     Size  Location     Type
  7775 ;;  u               4    2[BANK0 ] struct .
  7776 ;;  e               2    0[BANK0 ] int 
  7777 ;; Return value:  Size  Location     Type
  7778 ;;                  2    0[COMMON] int 
  7779 ;; Registers used:
  7780 ;;		wreg, status,2, status,0
  7781 ;; Tracked objects:
  7782 ;;		On entry : 0/0
  7783 ;;		On exit  : 0/0
  7784 ;;		Unchanged: 0/0
  7785 ;; Data sizes:     COMMON   BANK0   BANK1   BANK2   BANK3   BANK4   BANK5   BANK6   BANK7   BANK8   BANK9  BANK10  BANK1
      +1  BANK12
  7786 ;;      Params:         4       0       0       0       0       0       0       0       0       0       0       0       
      +0       0
  7787 ;;      Locals:         0       6       0       0       0       0       0       0       0       0       0       0       
      +0       0
  7788 ;;      Temps:          6       0       0       0       0       0       0       0       0       0       0       0       
      +0       0
  7789 ;;      Totals:        10       6       0       0       0       0       0       0       0       0       0       0       
      +0       0
  7790 ;;Total ram usage:       16 bytes
  7791 ;; Hardware stack levels used:    1
  7792 ;; This function calls:
  7793 ;;		Nothing
  7794 ;; This function is called by:
  7795 ;;		_efgtoa
  7796 ;; This function uses a non-reentrant model
  7797 ;;
  7798                           
  7799                           
  7800                           ;psect for function ___fpclassifyf
  7801  160B                     ___fpclassifyf:
  7802  160B                     l3155:	
  7803                           ;incstack = 0
  7804                           ; Regs used in ___fpclassifyf: [wreg+status,2+status,0]
  7805                           
  7806  160B  0021               	movlb	1	; select bank1
  7807  160C  0864               	movf	(___fpclassifyf@F465+3)^(0+128),w
  7808  160D  0020               	movlb	0	; select bank0
  7809  160E  00A5               	movwf	___fpclassifyf@u+3
  7810  160F  0021               	movlb	1	; select bank1
  7811  1610  0863               	movf	(___fpclassifyf@F465+2)^(0+128),w
  7812  1611  0020               	movlb	0	; select bank0
  7813  1612  00A4               	movwf	___fpclassifyf@u+2
  7814  1613  0021               	movlb	1	; select bank1
  7815  1614  0862               	movf	(___fpclassifyf@F465+1)^(0+128),w
  7816  1615  0020               	movlb	0	; select bank0
  7817  1616  00A3               	movwf	___fpclassifyf@u+1
  7818  1617  0021               	movlb	1	; select bank1
  7819  1618  0861               	movf	___fpclassifyf@F465^(0+128),w
  7820  1619  0020               	movlb	0	; select bank0
  7821  161A  00A2               	movwf	___fpclassifyf@u
  7822  161B  0873               	movf	___fpclassifyf@x+3,w
  7823  161C  00A5               	movwf	___fpclassifyf@u+3
  7824  161D  0872               	movf	___fpclassifyf@x+2,w
  7825  161E  00A4               	movwf	___fpclassifyf@u+2
  7826  161F  0871               	movf	___fpclassifyf@x+1,w
  7827  1620  00A3               	movwf	___fpclassifyf@u+1
  7828  1621  0870               	movf	___fpclassifyf@x,w
  7829  1622  00A2               	movwf	___fpclassifyf@u
  7830  1623                     l3157:
  7831  1623  0822               	movf	___fpclassifyf@u,w
  7832  1624  00F4               	movwf	??___fpclassifyf
  7833  1625  0823               	movf	___fpclassifyf@u+1,w
  7834  1626  00F5               	movwf	??___fpclassifyf+1
  7835  1627  0824               	movf	___fpclassifyf@u+2,w
  7836  1628  00F6               	movwf	??___fpclassifyf+2
  7837  1629  0825               	movf	___fpclassifyf@u+3,w
  7838  162A  00F7               	movwf	??___fpclassifyf+3
  7839  162B  3017               	movlw	23
  7840  162C                     u4015:
  7841  162C  36F7               	lsrf	??___fpclassifyf+3,f
  7842  162D  0CF6               	rrf	??___fpclassifyf+2,f
  7843  162E  0CF5               	rrf	??___fpclassifyf+1,f
  7844  162F  0CF4               	rrf	??___fpclassifyf,f
  7845  1630                     u4010:
  7846  1630  0B89               	decfsz	9,f
  7847  1631  2E2C               	goto	u4015
  7848  1632  30FF               	movlw	255
  7849  1633  0574               	andwf	??___fpclassifyf,w
  7850  1634  00A0               	movwf	___fpclassifyf@e
  7851  1635  3000               	movlw	0
  7852  1636  0575               	andwf	??___fpclassifyf+1,w
  7853  1637  00A1               	movwf	___fpclassifyf@e+1
  7854  1638                     l3159:
  7855  1638  0820               	movf	___fpclassifyf@e,w
  7856  1639  0421               	iorwf	___fpclassifyf@e+1,w
  7857  163A  1D03               	btfss	3,2
  7858  163B  2E3D               	goto	u4021
  7859  163C  2E3E               	goto	u4020
  7860  163D                     u4021:
  7861  163D  2E5F               	goto	l3169
  7862  163E                     u4020:
  7863  163E                     l3161:
  7864  163E  0822               	movf	___fpclassifyf@u,w
  7865  163F  00F4               	movwf	??___fpclassifyf
  7866  1640  0823               	movf	___fpclassifyf@u+1,w
  7867  1641  00F5               	movwf	??___fpclassifyf+1
  7868  1642  0824               	movf	___fpclassifyf@u+2,w
  7869  1643  00F6               	movwf	??___fpclassifyf+2
  7870  1644  0825               	movf	___fpclassifyf@u+3,w
  7871  1645  00F7               	movwf	??___fpclassifyf+3
  7872  1646  3001               	movlw	1
  7873  1647                     u4035:
  7874  1647  35F4               	lslf	??___fpclassifyf,f
  7875  1648  0DF5               	rlf	??___fpclassifyf+1,f
  7876  1649  0DF6               	rlf	??___fpclassifyf+2,f
  7877  164A  0DF7               	rlf	??___fpclassifyf+3,f
  7878  164B                     u4030:
  7879  164B  0B89               	decfsz	9,f
  7880  164C  2E47               	goto	u4035
  7881  164D  0877               	movf	??___fpclassifyf+3,w
  7882  164E  0476               	iorwf	??___fpclassifyf+2,w
  7883  164F  0475               	iorwf	??___fpclassifyf+1,w
  7884  1650  0474               	iorwf	??___fpclassifyf,w
  7885  1651  1D03               	skipz
  7886  1652  2E54               	goto	u4041
  7887  1653  2E55               	goto	u4040
  7888  1654                     u4041:
  7889  1654  2E5A               	goto	l3165
  7890  1655                     u4040:
  7891  1655                     l3163:
  7892  1655  3002               	movlw	2
  7893  1656  00F0               	movwf	?___fpclassifyf
  7894  1657  3000               	movlw	0
  7895  1658  00F1               	movwf	?___fpclassifyf+1
  7896  1659  2E89               	goto	l979
  7897  165A                     l3165:
  7898  165A  3003               	movlw	3
  7899  165B  00F0               	movwf	?___fpclassifyf
  7900  165C  3000               	movlw	0
  7901  165D  00F1               	movwf	?___fpclassifyf+1
  7902  165E  2E89               	goto	l979
  7903  165F                     l3169:
  7904  165F  0A20               	incf	___fpclassifyf@e,w
  7905  1660  0421               	iorwf	___fpclassifyf@e+1,w
  7906  1661  1D03               	btfss	3,2
  7907  1662  2E64               	goto	u4051
  7908  1663  2E65               	goto	u4050
  7909  1664                     u4051:
  7910  1664  2E85               	goto	l3175
  7911  1665                     u4050:
  7912  1665                     l3171:
  7913  1665  0822               	movf	___fpclassifyf@u,w
  7914  1666  00F4               	movwf	??___fpclassifyf
  7915  1667  0823               	movf	___fpclassifyf@u+1,w
  7916  1668  00F5               	movwf	??___fpclassifyf+1
  7917  1669  0824               	movf	___fpclassifyf@u+2,w
  7918  166A  00F6               	movwf	??___fpclassifyf+2
  7919  166B  0825               	movf	___fpclassifyf@u+3,w
  7920  166C  00F7               	movwf	??___fpclassifyf+3
  7921  166D  3009               	movlw	9
  7922  166E                     u4065:
  7923  166E  35F4               	lslf	??___fpclassifyf,f
  7924  166F  0DF5               	rlf	??___fpclassifyf+1,f
  7925  1670  0DF6               	rlf	??___fpclassifyf+2,f
  7926  1671  0DF7               	rlf	??___fpclassifyf+3,f
  7927  1672                     u4060:
  7928  1672  0B89               	decfsz	9,f
  7929  1673  2E6E               	goto	u4065
  7930  1674  0877               	movf	??___fpclassifyf+3,w
  7931  1675  0476               	iorwf	??___fpclassifyf+2,w
  7932  1676  0475               	iorwf	??___fpclassifyf+1,w
  7933  1677  0474               	iorwf	??___fpclassifyf,w
  7934  1678  1903               	skipnz
  7935  1679  2E7B               	goto	u4071
  7936  167A  2E7D               	goto	u4070
  7937  167B                     u4071:
  7938  167B  3001               	movlw	1
  7939  167C  2E7E               	goto	u4080
  7940  167D                     u4070:
  7941  167D  3000               	movlw	0
  7942  167E                     u4080:
  7943  167E  00F8               	movwf	??___fpclassifyf+4
  7944  167F  01F9               	clrf	??___fpclassifyf+5
  7945  1680  0878               	movf	??___fpclassifyf+4,w
  7946  1681  00F0               	movwf	?___fpclassifyf
  7947  1682  0879               	movf	??___fpclassifyf+5,w
  7948  1683  00F1               	movwf	?___fpclassifyf+1
  7949  1684  2E89               	goto	l979
  7950  1685                     l3175:
  7951  1685  3004               	movlw	4
  7952  1686  00F0               	movwf	?___fpclassifyf
  7953  1687  3000               	movlw	0
  7954  1688  00F1               	movwf	?___fpclassifyf+1
  7955  1689                     l979:
  7956  1689  0008               	return
  7957  168A                     __end_of___fpclassifyf:
  7958                           
  7959                           	psect	text25
  7960  1597                     __ptext25:	
  7961 ;; *************** function ___fltol *****************
  7962 ;; Defined at:
  7963 ;;		line 43 in file "C:\Program Files\Microchip\xc8\v2.31\pic\sources\c99\common\fltol.c"
  7964 ;; Parameters:    Size  Location     Type
  7965 ;;  f1              4    0[COMMON] int 
  7966 ;; Auto vars:     Size  Location     Type
  7967 ;;  exp1            1   10[COMMON] unsigned char 
  7968 ;;  sign1           1    9[COMMON] unsigned char 
  7969 ;; Return value:  Size  Location     Type
  7970 ;;                  4    0[COMMON] long 
  7971 ;; Registers used:
  7972 ;;		wreg, status,2, status,0
  7973 ;; Tracked objects:
  7974 ;;		On entry : 0/0
  7975 ;;		On exit  : 0/0
  7976 ;;		Unchanged: 0/0
  7977 ;; Data sizes:     COMMON   BANK0   BANK1   BANK2   BANK3   BANK4   BANK5   BANK6   BANK7   BANK8   BANK9  BANK10  BANK1
      +1  BANK12
  7978 ;;      Params:         4       0       0       0       0       0       0       0       0       0       0       0       
      +0       0
  7979 ;;      Locals:         2       0       0       0       0       0       0       0       0       0       0       0       
      +0       0
  7980 ;;      Temps:          5       0       0       0       0       0       0       0       0       0       0       0       
      +0       0
  7981 ;;      Totals:        11       0       0       0       0       0       0       0       0       0       0       0       
      +0       0
  7982 ;;Total ram usage:       11 bytes
  7983 ;; Hardware stack levels used:    1
  7984 ;; This function calls:
  7985 ;;		Nothing
  7986 ;; This function is called by:
  7987 ;;		_efgtoa
  7988 ;; This function uses a non-reentrant model
  7989 ;;
  7990                           
  7991                           
  7992                           ;psect for function ___fltol
  7993  1597                     ___fltol:
  7994  1597                     l2813:	
  7995                           ;incstack = 0
  7996                           ; Regs used in ___fltol: [wreg+status,2+status,0]
  7997                           
  7998  1597  1003               	clrc
  7999  1598  0D72               	rlf	___fltol@f1+2,w
  8000  1599  0D73               	rlf	___fltol@f1+3,w
  8001  159A  00F4               	movwf	??___fltol
  8002  159B  0874               	movf	??___fltol,w
  8003  159C  00FA               	movwf	___fltol@exp1
  8004  159D  087A               	movf	___fltol@exp1,w
  8005  159E  1D03               	btfss	3,2
  8006  159F  2DA1               	goto	u3321
  8007  15A0  2DA2               	goto	u3320
  8008  15A1                     u3321:
  8009  15A1  2DAB               	goto	l2819
  8010  15A2                     u3320:
  8011  15A2                     l2815:
  8012  15A2  3000               	movlw	0
  8013  15A3  00F3               	movwf	?___fltol+3
  8014  15A4  3000               	movlw	0
  8015  15A5  00F2               	movwf	?___fltol+2
  8016  15A6  3000               	movlw	0
  8017  15A7  00F1               	movwf	?___fltol+1
  8018  15A8  3000               	movlw	0
  8019  15A9  00F0               	movwf	?___fltol
  8020  15AA  2E0A               	goto	l544
  8021  15AB                     l2819:
  8022  15AB  0870               	movf	___fltol@f1,w
  8023  15AC  00F4               	movwf	??___fltol
  8024  15AD  0871               	movf	___fltol@f1+1,w
  8025  15AE  00F5               	movwf	??___fltol+1
  8026  15AF  0872               	movf	___fltol@f1+2,w
  8027  15B0  00F6               	movwf	??___fltol+2
  8028  15B1  0873               	movf	___fltol@f1+3,w
  8029  15B2  00F7               	movwf	??___fltol+3
  8030  15B3  301F               	movlw	31
  8031  15B4                     u3335:
  8032  15B4  36F7               	lsrf	??___fltol+3,f
  8033  15B5  0CF6               	rrf	??___fltol+2,f
  8034  15B6  0CF5               	rrf	??___fltol+1,f
  8035  15B7  0CF4               	rrf	??___fltol,f
  8036  15B8                     u3330:
  8037  15B8  0B89               	decfsz	9,f
  8038  15B9  2DB4               	goto	u3335
  8039  15BA  0874               	movf	??___fltol,w
  8040  15BB  00F8               	movwf	??___fltol+4
  8041  15BC  0878               	movf	??___fltol+4,w
  8042  15BD  00F9               	movwf	___fltol@sign1
  8043  15BE                     l2821:
  8044  15BE  17F2               	bsf	___fltol@f1+2,7
  8045  15BF                     l2823:
  8046  15BF  30FF               	movlw	255
  8047  15C0  05F0               	andwf	___fltol@f1,f
  8048  15C1  30FF               	movlw	255
  8049  15C2  05F1               	andwf	___fltol@f1+1,f
  8050  15C3  30FF               	movlw	255
  8051  15C4  05F2               	andwf	___fltol@f1+2,f
  8052  15C5  3000               	movlw	0
  8053  15C6  05F3               	andwf	___fltol@f1+3,f
  8054  15C7                     l2825:
  8055  15C7  3096               	movlw	150
  8056  15C8  02FA               	subwf	___fltol@exp1,f
  8057  15C9                     l2827:
  8058  15C9  1FFA               	btfss	___fltol@exp1,7
  8059  15CA  2DCC               	goto	u3341
  8060  15CB  2DCD               	goto	u3340
  8061  15CC                     u3341:
  8062  15CC  2DE5               	goto	l2837
  8063  15CD                     u3340:
  8064  15CD                     l2829:
  8065  15CD  087A               	movf	___fltol@exp1,w
  8066  15CE  3A80               	xorlw	128
  8067  15CF  3E97               	addlw	151
  8068  15D0  1803               	skipnc
  8069  15D1  2DD3               	goto	u3351
  8070  15D2  2DD4               	goto	u3350
  8071  15D3                     u3351:
  8072  15D3  2DD5               	goto	l2835
  8073  15D4                     u3350:
  8074  15D4  2DA2               	goto	l2815
  8075  15D5                     l2835:
  8076  15D5  3001               	movlw	1
  8077  15D6                     u3365:
  8078  15D6  36F3               	lsrf	___fltol@f1+3,f
  8079  15D7  0CF2               	rrf	___fltol@f1+2,f
  8080  15D8  0CF1               	rrf	___fltol@f1+1,f
  8081  15D9  0CF0               	rrf	___fltol@f1,f
  8082  15DA  0B89               	decfsz	9,f
  8083  15DB  2DD6               	goto	u3365
  8084  15DC  3001               	movlw	1
  8085  15DD  00F4               	movwf	??___fltol
  8086  15DE  0874               	movf	??___fltol,w
  8087  15DF  07FA               	addwf	___fltol@exp1,f
  8088  15E0  1D03               	btfss	3,2
  8089  15E1  2DE3               	goto	u3371
  8090  15E2  2DE4               	goto	u3370
  8091  15E3                     u3371:
  8092  15E3  2DD5               	goto	l2835
  8093  15E4                     u3370:
  8094  15E4  2DFA               	goto	l2845
  8095  15E5                     l2837:
  8096  15E5  3020               	movlw	32
  8097  15E6  027A               	subwf	___fltol@exp1,w
  8098  15E7  1C03               	skipc
  8099  15E8  2DEA               	goto	u3381
  8100  15E9  2DEB               	goto	u3380
  8101  15EA                     u3381:
  8102  15EA  2DF5               	goto	l551
  8103  15EB                     u3380:
  8104  15EB  2DA2               	goto	l2815
  8105  15EC                     l2843:
  8106  15EC  3001               	movlw	1
  8107  15ED                     u3395:
  8108  15ED  35F0               	lslf	___fltol@f1,f
  8109  15EE  0DF1               	rlf	___fltol@f1+1,f
  8110  15EF  0DF2               	rlf	___fltol@f1+2,f
  8111  15F0  0DF3               	rlf	___fltol@f1+3,f
  8112  15F1  0B89               	decfsz	9,f
  8113  15F2  2DED               	goto	u3395
  8114  15F3  3001               	movlw	1
  8115  15F4  02FA               	subwf	___fltol@exp1,f
  8116  15F5                     l551:
  8117  15F5  087A               	movf	___fltol@exp1,w
  8118  15F6  1D03               	btfss	3,2
  8119  15F7  2DF9               	goto	u3401
  8120  15F8  2DFA               	goto	u3400
  8121  15F9                     u3401:
  8122  15F9  2DEC               	goto	l2843
  8123  15FA                     u3400:
  8124  15FA                     l2845:
  8125  15FA  0879               	movf	___fltol@sign1,w
  8126  15FB  1903               	btfsc	3,2
  8127  15FC  2DFE               	goto	u3411
  8128  15FD  2DFF               	goto	u3410
  8129  15FE                     u3411:
  8130  15FE  2E0A               	goto	l554
  8131  15FF                     u3410:
  8132  15FF                     l2847:
  8133  15FF  09F0               	comf	___fltol@f1,f
  8134  1600  09F1               	comf	___fltol@f1+1,f
  8135  1601  09F2               	comf	___fltol@f1+2,f
  8136  1602  09F3               	comf	___fltol@f1+3,f
  8137  1603  0AF0               	incf	___fltol@f1,f
  8138  1604  1903               	skipnz
  8139  1605  0AF1               	incf	___fltol@f1+1,f
  8140  1606  1903               	skipnz
  8141  1607  0AF2               	incf	___fltol@f1+2,f
  8142  1608  1903               	skipnz
  8143  1609  0AF3               	incf	___fltol@f1+3,f
  8144  160A                     l554:
  8145  160A                     l544:
  8146  160A  0008               	return
  8147  160B                     __end_of___fltol:
  8148                           
  8149                           	psect	text26
  8150  127E                     __ptext26:	
  8151 ;; *************** function ___flsub *****************
  8152 ;; Defined at:
  8153 ;;		line 242 in file "C:\Program Files\Microchip\xc8\v2.31\pic\sources\c99\common\sprcadd.c"
  8154 ;; Parameters:    Size  Location     Type
  8155 ;;  a               4   21[BANK0 ] long 
  8156 ;;  b               4   25[BANK0 ] long 
  8157 ;; Auto vars:     Size  Location     Type
  8158 ;;		None
  8159 ;; Return value:  Size  Location     Type
  8160 ;;                  4   21[BANK0 ] long 
  8161 ;; Registers used:
  8162 ;;		wreg, status,2, status,0, pclath, cstack
  8163 ;; Tracked objects:
  8164 ;;		On entry : 0/0
  8165 ;;		On exit  : 0/0
  8166 ;;		Unchanged: 0/0
  8167 ;; Data sizes:     COMMON   BANK0   BANK1   BANK2   BANK3   BANK4   BANK5   BANK6   BANK7   BANK8   BANK9  BANK10  BANK1
      +1  BANK12
  8168 ;;      Params:         0       8       0       0       0       0       0       0       0       0       0       0       
      +0       0
  8169 ;;      Locals:         0       0       0       0       0       0       0       0       0       0       0       0       
      +0       0
  8170 ;;      Temps:          0       0       0       0       0       0       0       0       0       0       0       0       
      +0       0
  8171 ;;      Totals:         0       8       0       0       0       0       0       0       0       0       0       0       
      +0       0
  8172 ;;Total ram usage:        8 bytes
  8173 ;; Hardware stack levels used:    1
  8174 ;; Hardware stack levels required when called:    1
  8175 ;; This function calls:
  8176 ;;		___fladd
  8177 ;; This function is called by:
  8178 ;;		_efgtoa
  8179 ;; This function uses a non-reentrant model
  8180 ;;
  8181                           
  8182                           
  8183                           ;psect for function ___flsub
  8184  127E                     ___flsub:
  8185  127E                     l2849:	
  8186                           ;incstack = 0
  8187                           ; Regs used in ___flsub: [wreg+status,2+status,0+pclath+cstack]
  8188                           
  8189  127E  3080               	movlw	128
  8190  127F  0020               	movlb	0	; select bank0
  8191  1280  06B8               	xorwf	___flsub@a+3,f
  8192  1281                     l2851:
  8193  1281  083C               	movf	___flsub@b+3,w
  8194  1282  00F3               	movwf	___fladd@b+3
  8195  1283  083B               	movf	___flsub@b+2,w
  8196  1284  00F2               	movwf	___fladd@b+2
  8197  1285  083A               	movf	___flsub@b+1,w
  8198  1286  00F1               	movwf	___fladd@b+1
  8199  1287  0839               	movf	___flsub@b,w
  8200  1288  00F0               	movwf	___fladd@b
  8201  1289  0838               	movf	___flsub@a+3,w
  8202  128A  00F7               	movwf	___fladd@a+3
  8203  128B  0837               	movf	___flsub@a+2,w
  8204  128C  00F6               	movwf	___fladd@a+2
  8205  128D  0836               	movf	___flsub@a+1,w
  8206  128E  00F5               	movwf	___fladd@a+1
  8207  128F  0835               	movf	___flsub@a,w
  8208  1290  00F4               	movwf	___fladd@a
  8209  1291  318B  236A  3192   	fcall	___fladd
  8210  1294  0873               	movf	?___fladd+3,w
  8211  1295  0020               	movlb	0	; select bank0
  8212  1296  00B8               	movwf	?___flsub+3
  8213  1297  0872               	movf	?___fladd+2,w
  8214  1298  00B7               	movwf	?___flsub+2
  8215  1299  0871               	movf	?___fladd+1,w
  8216  129A  00B6               	movwf	?___flsub+1
  8217  129B  0870               	movf	?___fladd,w
  8218  129C  00B5               	movwf	?___flsub
  8219  129D                     l697:
  8220  129D  0008               	return
  8221  129E                     __end_of___flsub:
  8222                           
  8223                           	psect	text27
  8224  0B6A                     __ptext27:	
  8225 ;; *************** function ___fladd *****************
  8226 ;; Defined at:
  8227 ;;		line 10 in file "C:\Program Files\Microchip\xc8\v2.31\pic\sources\c99\common\sprcadd.c"
  8228 ;; Parameters:    Size  Location     Type
  8229 ;;  b               4    0[COMMON] long 
  8230 ;;  a               4    4[COMMON] long 
  8231 ;; Auto vars:     Size  Location     Type
  8232 ;;  grs             1   11[COMMON] unsigned char 
  8233 ;;  bexp            1   10[COMMON] unsigned char 
  8234 ;;  aexp            1    9[COMMON] unsigned char 
  8235 ;;  signs           1    8[COMMON] unsigned char 
  8236 ;; Return value:  Size  Location     Type
  8237 ;;                  4    0[COMMON] unsigned char 
  8238 ;; Registers used:
  8239 ;;		wreg, status,2, status,0
  8240 ;; Tracked objects:
  8241 ;;		On entry : 0/0
  8242 ;;		On exit  : 0/0
  8243 ;;		Unchanged: 0/0
  8244 ;; Data sizes:     COMMON   BANK0   BANK1   BANK2   BANK3   BANK4   BANK5   BANK6   BANK7   BANK8   BANK9  BANK10  BANK1
      +1  BANK12
  8245 ;;      Params:         8       0       0       0       0       0       0       0       0       0       0       0       
      +0       0
  8246 ;;      Locals:         4       0       0       0       0       0       0       0       0       0       0       0       
      +0       0
  8247 ;;      Temps:          0       8       0       0       0       0       0       0       0       0       0       0       
      +0       0
  8248 ;;      Totals:        12       8       0       0       0       0       0       0       0       0       0       0       
      +0       0
  8249 ;;Total ram usage:       20 bytes
  8250 ;; Hardware stack levels used:    1
  8251 ;; This function calls:
  8252 ;;		Nothing
  8253 ;; This function is called by:
  8254 ;;		___flsub
  8255 ;;		_efgtoa
  8256 ;; This function uses a non-reentrant model
  8257 ;;
  8258                           
  8259                           
  8260                           ;psect for function ___fladd
  8261  0B6A                     ___fladd:
  8262  0B6A                     l2461:	
  8263                           ;incstack = 0
  8264                           ; Regs used in ___fladd: [wreg+status,2+status,0]
  8265                           
  8266  0B6A  0873               	movf	___fladd@b+3,w
  8267  0B6B  3980               	andlw	128
  8268  0B6C  0020               	movlb	0	; select bank0
  8269  0B6D  00A0               	movwf	??___fladd
  8270  0B6E  0820               	movf	??___fladd,w
  8271  0B6F  00F8               	movwf	___fladd@signs
  8272  0B70                     l2463:
  8273  0B70  3573               	lslf	___fladd@b+3,w
  8274  0B71  00A0               	movwf	??___fladd
  8275  0B72  0820               	movf	??___fladd,w
  8276  0B73  00FA               	movwf	___fladd@bexp
  8277  0B74                     l2465:
  8278  0B74  1FF2               	btfss	___fladd@b+2,7
  8279  0B75  2B77               	goto	u2541
  8280  0B76  2B78               	goto	u2540
  8281  0B77                     u2541:
  8282  0B77  2B79               	goto	l2469
  8283  0B78                     u2540:
  8284  0B78                     l2467:
  8285  0B78  147A               	bsf	___fladd@bexp,0
  8286  0B79                     l2469:
  8287  0B79  087A               	movf	___fladd@bexp,w
  8288  0B7A  1903               	btfsc	3,2
  8289  0B7B  2B7D               	goto	u2551
  8290  0B7C  2B7E               	goto	u2550
  8291  0B7D                     u2551:
  8292  0B7D  2B8E               	goto	l2479
  8293  0B7E                     u2550:
  8294  0B7E                     l2471:
  8295  0B7E  0A7A               	incf	___fladd@bexp,w
  8296  0B7F  1D03               	btfss	3,2
  8297  0B80  2B82               	goto	u2561
  8298  0B81  2B83               	goto	u2560
  8299  0B82                     u2561:
  8300  0B82  2B8B               	goto	l2475
  8301  0B83                     u2560:
  8302  0B83                     l2473:
  8303  0B83  3000               	movlw	0
  8304  0B84  00F3               	movwf	___fladd@b+3
  8305  0B85  3000               	movlw	0
  8306  0B86  00F2               	movwf	___fladd@b+2
  8307  0B87  3000               	movlw	0
  8308  0B88  00F1               	movwf	___fladd@b+1
  8309  0B89  3000               	movlw	0
  8310  0B8A  00F0               	movwf	___fladd@b
  8311  0B8B                     l2475:
  8312  0B8B  17F2               	bsf	___fladd@b+2,7
  8313  0B8C                     l2477:
  8314  0B8C  01F3               	clrf	___fladd@b+3
  8315  0B8D  2B96               	goto	l2481
  8316  0B8E                     l2479:
  8317  0B8E  3000               	movlw	0
  8318  0B8F  00F3               	movwf	___fladd@b+3
  8319  0B90  3000               	movlw	0
  8320  0B91  00F2               	movwf	___fladd@b+2
  8321  0B92  3000               	movlw	0
  8322  0B93  00F1               	movwf	___fladd@b+1
  8323  0B94  3000               	movlw	0
  8324  0B95  00F0               	movwf	___fladd@b
  8325  0B96                     l2481:
  8326  0B96  0877               	movf	___fladd@a+3,w
  8327  0B97  3980               	andlw	128
  8328  0B98  00A0               	movwf	??___fladd
  8329  0B99  0820               	movf	??___fladd,w
  8330  0B9A  00F9               	movwf	___fladd@aexp
  8331  0B9B                     l2483:
  8332  0B9B  0879               	movf	___fladd@aexp,w
  8333  0B9C  0678               	xorwf	___fladd@signs,w
  8334  0B9D  1903               	skipnz
  8335  0B9E  2BA0               	goto	u2571
  8336  0B9F  2BA1               	goto	u2570
  8337  0BA0                     u2571:
  8338  0BA0  2BA2               	goto	l2487
  8339  0BA1                     u2570:
  8340  0BA1                     l2485:
  8341  0BA1  1778               	bsf	___fladd@signs,6
  8342  0BA2                     l2487:
  8343  0BA2  3577               	lslf	___fladd@a+3,w
  8344  0BA3  00A0               	movwf	??___fladd
  8345  0BA4  0820               	movf	??___fladd,w
  8346  0BA5  00F9               	movwf	___fladd@aexp
  8347  0BA6                     l2489:
  8348  0BA6  1FF6               	btfss	___fladd@a+2,7
  8349  0BA7  2BA9               	goto	u2581
  8350  0BA8  2BAA               	goto	u2580
  8351  0BA9                     u2581:
  8352  0BA9  2BAB               	goto	l2493
  8353  0BAA                     u2580:
  8354  0BAA                     l2491:
  8355  0BAA  1479               	bsf	___fladd@aexp,0
  8356  0BAB                     l2493:
  8357  0BAB  0879               	movf	___fladd@aexp,w
  8358  0BAC  1903               	btfsc	3,2
  8359  0BAD  2BAF               	goto	u2591
  8360  0BAE  2BB0               	goto	u2590
  8361  0BAF                     u2591:
  8362  0BAF  2BC0               	goto	l2503
  8363  0BB0                     u2590:
  8364  0BB0                     l2495:
  8365  0BB0  0A79               	incf	___fladd@aexp,w
  8366  0BB1  1D03               	btfss	3,2
  8367  0BB2  2BB4               	goto	u2601
  8368  0BB3  2BB5               	goto	u2600
  8369  0BB4                     u2601:
  8370  0BB4  2BBD               	goto	l2499
  8371  0BB5                     u2600:
  8372  0BB5                     l2497:
  8373  0BB5  3000               	movlw	0
  8374  0BB6  00F7               	movwf	___fladd@a+3
  8375  0BB7  3000               	movlw	0
  8376  0BB8  00F6               	movwf	___fladd@a+2
  8377  0BB9  3000               	movlw	0
  8378  0BBA  00F5               	movwf	___fladd@a+1
  8379  0BBB  3000               	movlw	0
  8380  0BBC  00F4               	movwf	___fladd@a
  8381  0BBD                     l2499:
  8382  0BBD  17F6               	bsf	___fladd@a+2,7
  8383  0BBE                     l2501:
  8384  0BBE  01F7               	clrf	___fladd@a+3
  8385  0BBF  2BC8               	goto	l651
  8386  0BC0                     l2503:
  8387  0BC0  3000               	movlw	0
  8388  0BC1  00F7               	movwf	___fladd@a+3
  8389  0BC2  3000               	movlw	0
  8390  0BC3  00F6               	movwf	___fladd@a+2
  8391  0BC4  3000               	movlw	0
  8392  0BC5  00F5               	movwf	___fladd@a+1
  8393  0BC6  3000               	movlw	0
  8394  0BC7  00F4               	movwf	___fladd@a
  8395  0BC8                     l651:
  8396  0BC8  087A               	movf	___fladd@bexp,w
  8397  0BC9  0279               	subwf	___fladd@aexp,w
  8398  0BCA  1803               	skipnc
  8399  0BCB  2BCD               	goto	u2611
  8400  0BCC  2BCE               	goto	u2610
  8401  0BCD                     u2611:
  8402  0BCD  2C12               	goto	l2539
  8403  0BCE                     u2610:
  8404  0BCE                     l2505:
  8405  0BCE  1F78               	btfss	___fladd@signs,6
  8406  0BCF  2BD1               	goto	u2621
  8407  0BD0  2BD2               	goto	u2620
  8408  0BD1                     u2621:
  8409  0BD1  2BD6               	goto	l2509
  8410  0BD2                     u2620:
  8411  0BD2                     l2507:
  8412  0BD2  3080               	movlw	128
  8413  0BD3  00A0               	movwf	??___fladd
  8414  0BD4  0820               	movf	??___fladd,w
  8415  0BD5  06F8               	xorwf	___fladd@signs,f
  8416  0BD6                     l2509:
  8417  0BD6  087A               	movf	___fladd@bexp,w
  8418  0BD7  00A0               	movwf	??___fladd
  8419  0BD8  0820               	movf	??___fladd,w
  8420  0BD9  00FB               	movwf	___fladd@grs
  8421  0BDA                     l2511:
  8422  0BDA  0879               	movf	___fladd@aexp,w
  8423  0BDB  00A0               	movwf	??___fladd
  8424  0BDC  0820               	movf	??___fladd,w
  8425  0BDD  00FA               	movwf	___fladd@bexp
  8426  0BDE                     l2513:
  8427  0BDE  087B               	movf	___fladd@grs,w
  8428  0BDF  00A0               	movwf	??___fladd
  8429  0BE0  0820               	movf	??___fladd,w
  8430  0BE1  00F9               	movwf	___fladd@aexp
  8431  0BE2                     l2515:
  8432  0BE2  0870               	movf	___fladd@b,w
  8433  0BE3  00A0               	movwf	??___fladd
  8434  0BE4  0820               	movf	??___fladd,w
  8435  0BE5  00FB               	movwf	___fladd@grs
  8436  0BE6                     l2517:
  8437  0BE6  0874               	movf	___fladd@a,w
  8438  0BE7  00A0               	movwf	??___fladd
  8439  0BE8  0820               	movf	??___fladd,w
  8440  0BE9  00F0               	movwf	___fladd@b
  8441  0BEA                     l2519:
  8442  0BEA  087B               	movf	___fladd@grs,w
  8443  0BEB  00A0               	movwf	??___fladd
  8444  0BEC  0820               	movf	??___fladd,w
  8445  0BED  00F4               	movwf	___fladd@a
  8446  0BEE                     l2521:
  8447  0BEE  0871               	movf	___fladd@b+1,w
  8448  0BEF  00A0               	movwf	??___fladd
  8449  0BF0  0820               	movf	??___fladd,w
  8450  0BF1  00FB               	movwf	___fladd@grs
  8451  0BF2                     l2523:
  8452  0BF2  0875               	movf	___fladd@a+1,w
  8453  0BF3  00A0               	movwf	??___fladd
  8454  0BF4  0820               	movf	??___fladd,w
  8455  0BF5  00F1               	movwf	___fladd@b+1
  8456  0BF6                     l2525:
  8457  0BF6  087B               	movf	___fladd@grs,w
  8458  0BF7  00A0               	movwf	??___fladd
  8459  0BF8  0820               	movf	??___fladd,w
  8460  0BF9  00F5               	movwf	___fladd@a+1
  8461  0BFA                     l2527:
  8462  0BFA  0872               	movf	___fladd@b+2,w
  8463  0BFB  00A0               	movwf	??___fladd
  8464  0BFC  0820               	movf	??___fladd,w
  8465  0BFD  00FB               	movwf	___fladd@grs
  8466  0BFE                     l2529:
  8467  0BFE  0876               	movf	___fladd@a+2,w
  8468  0BFF  00A0               	movwf	??___fladd
  8469  0C00  0820               	movf	??___fladd,w
  8470  0C01  00F2               	movwf	___fladd@b+2
  8471  0C02                     l2531:
  8472  0C02  087B               	movf	___fladd@grs,w
  8473  0C03  00A0               	movwf	??___fladd
  8474  0C04  0820               	movf	??___fladd,w
  8475  0C05  00F6               	movwf	___fladd@a+2
  8476  0C06                     l2533:
  8477  0C06  0873               	movf	___fladd@b+3,w
  8478  0C07  00A0               	movwf	??___fladd
  8479  0C08  0820               	movf	??___fladd,w
  8480  0C09  00FB               	movwf	___fladd@grs
  8481  0C0A                     l2535:
  8482  0C0A  0877               	movf	___fladd@a+3,w
  8483  0C0B  00A0               	movwf	??___fladd
  8484  0C0C  0820               	movf	??___fladd,w
  8485  0C0D  00F3               	movwf	___fladd@b+3
  8486  0C0E                     l2537:
  8487  0C0E  087B               	movf	___fladd@grs,w
  8488  0C0F  00A0               	movwf	??___fladd
  8489  0C10  0820               	movf	??___fladd,w
  8490  0C11  00F7               	movwf	___fladd@a+3
  8491  0C12                     l2539:
  8492  0C12  01FB               	clrf	___fladd@grs
  8493  0C13                     l2541:
  8494  0C13  0879               	movf	___fladd@aexp,w
  8495  0C14  00A0               	movwf	??___fladd
  8496  0C15  01A1               	clrf	??___fladd+1
  8497  0C16  0821               	movf	??___fladd+1,w
  8498  0C17  00A3               	movwf	??___fladd+3
  8499  0C18  087A               	movf	___fladd@bexp,w
  8500  0C19  0220               	subwf	??___fladd,w
  8501  0C1A  00A2               	movwf	??___fladd+2
  8502  0C1B  1C03               	skipc
  8503  0C1C  03A3               	decf	??___fladd+3,f
  8504  0C1D  0823               	movf	??___fladd+3,w
  8505  0C1E  3A80               	xorlw	128
  8506  0C1F  00A4               	movwf	??___fladd+4
  8507  0C20  3080               	movlw	128
  8508  0C21  0224               	subwf	??___fladd+4,w
  8509  0C22  1D03               	skipz
  8510  0C23  2C26               	goto	u2635
  8511  0C24  301A               	movlw	26
  8512  0C25  0222               	subwf	??___fladd+2,w
  8513  0C26                     u2635:
  8514  0C26  1C03               	skipc
  8515  0C27  2C29               	goto	u2631
  8516  0C28  2C2A               	goto	u2630
  8517  0C29                     u2631:
  8518  0C29  2C64               	goto	l2557
  8519  0C2A                     u2630:
  8520  0C2A                     l2543:
  8521  0C2A  0873               	movf	___fladd@b+3,w
  8522  0C2B  0472               	iorwf	___fladd@b+2,w
  8523  0C2C  0471               	iorwf	___fladd@b+1,w
  8524  0C2D  0470               	iorwf	___fladd@b,w
  8525  0C2E  1D03               	skipz
  8526  0C2F  2C31               	goto	u2641
  8527  0C30  2C33               	goto	u2640
  8528  0C31                     u2641:
  8529  0C31  3001               	movlw	1
  8530  0C32  2C34               	goto	u2650
  8531  0C33                     u2640:
  8532  0C33  3000               	movlw	0
  8533  0C34                     u2650:
  8534  0C34  0020               	movlb	0	; select bank0
  8535  0C35  00A0               	movwf	??___fladd
  8536  0C36  0820               	movf	??___fladd,w
  8537  0C37  00FB               	movwf	___fladd@grs
  8538  0C38  3000               	movlw	0
  8539  0C39  00F3               	movwf	___fladd@b+3
  8540  0C3A  3000               	movlw	0
  8541  0C3B  00F2               	movwf	___fladd@b+2
  8542  0C3C  3000               	movlw	0
  8543  0C3D  00F1               	movwf	___fladd@b+1
  8544  0C3E  3000               	movlw	0
  8545  0C3F  00F0               	movwf	___fladd@b
  8546  0C40  0879               	movf	___fladd@aexp,w
  8547  0C41  00A0               	movwf	??___fladd
  8548  0C42  0820               	movf	??___fladd,w
  8549  0C43  00FA               	movwf	___fladd@bexp
  8550  0C44  2C6A               	goto	l655
  8551  0C45                     l657:
  8552  0C45  1C7B               	btfss	___fladd@grs,0
  8553  0C46  2C48               	goto	u2661
  8554  0C47  2C49               	goto	u2660
  8555  0C48                     u2661:
  8556  0C48  2C50               	goto	l2547
  8557  0C49                     u2660:
  8558  0C49                     l2545:
  8559  0C49  367B               	lsrf	___fladd@grs,w
  8560  0C4A  3801               	iorlw	1
  8561  0C4B  0020               	movlb	0	; select bank0
  8562  0C4C  00A0               	movwf	??___fladd
  8563  0C4D  0820               	movf	??___fladd,w
  8564  0C4E  00FB               	movwf	___fladd@grs
  8565  0C4F  2C52               	goto	l2549
  8566  0C50                     l2547:
  8567  0C50  1003               	clrc
  8568  0C51  0CFB               	rrf	___fladd@grs,f
  8569  0C52                     l2549:
  8570  0C52  1C70               	btfss	___fladd@b,0
  8571  0C53  2C55               	goto	u2671
  8572  0C54  2C56               	goto	u2670
  8573  0C55                     u2671:
  8574  0C55  2C57               	goto	l2553
  8575  0C56                     u2670:
  8576  0C56                     l2551:
  8577  0C56  17FB               	bsf	___fladd@grs,7
  8578  0C57                     l2553:
  8579  0C57  3001               	movlw	1
  8580  0C58  0020               	movlb	0	; select bank0
  8581  0C59  00A0               	movwf	??___fladd
  8582  0C5A                     u2685:
  8583  0C5A  37F3               	asrf	___fladd@b+3,f
  8584  0C5B  0CF2               	rrf	___fladd@b+2,f
  8585  0C5C  0CF1               	rrf	___fladd@b+1,f
  8586  0C5D  0CF0               	rrf	___fladd@b,f
  8587  0C5E  0BA0               	decfsz	??___fladd& (0+127),f
  8588  0C5F  2C5A               	goto	u2685
  8589  0C60                     l2555:
  8590  0C60  3001               	movlw	1
  8591  0C61  00A0               	movwf	??___fladd
  8592  0C62  0820               	movf	??___fladd,w
  8593  0C63  07FA               	addwf	___fladd@bexp,f
  8594  0C64                     l2557:
  8595  0C64  0879               	movf	___fladd@aexp,w
  8596  0C65  027A               	subwf	___fladd@bexp,w
  8597  0C66  1C03               	skipc
  8598  0C67  2C69               	goto	u2691
  8599  0C68  2C6A               	goto	u2690
  8600  0C69                     u2691:
  8601  0C69  2C45               	goto	l657
  8602  0C6A                     u2690:
  8603  0C6A                     l655:
  8604  0C6A  1B78               	btfsc	___fladd@signs,6
  8605  0C6B  2C6D               	goto	u2701
  8606  0C6C  2C6E               	goto	u2700
  8607  0C6D                     u2701:
  8608  0C6D  2CA8               	goto	l2583
  8609  0C6E                     u2700:
  8610  0C6E                     l2559:
  8611  0C6E  087A               	movf	___fladd@bexp,w
  8612  0C6F  1D03               	btfss	3,2
  8613  0C70  2C72               	goto	u2711
  8614  0C71  2C73               	goto	u2710
  8615  0C72                     u2711:
  8616  0C72  2C7C               	goto	l2565
  8617  0C73                     u2710:
  8618  0C73                     l2561:
  8619  0C73  3000               	movlw	0
  8620  0C74  00F3               	movwf	?___fladd+3
  8621  0C75  3000               	movlw	0
  8622  0C76  00F2               	movwf	?___fladd+2
  8623  0C77  3000               	movlw	0
  8624  0C78  00F1               	movwf	?___fladd+1
  8625  0C79  3000               	movlw	0
  8626  0C7A  00F0               	movwf	?___fladd
  8627  0C7B  2DA8               	goto	l664
  8628  0C7C                     l2565:
  8629  0C7C  0874               	movf	___fladd@a,w
  8630  0C7D  07F0               	addwf	___fladd@b,f
  8631  0C7E  0875               	movf	___fladd@a+1,w
  8632  0C7F  3DF1               	addwfc	___fladd@b+1,f
  8633  0C80  0876               	movf	___fladd@a+2,w
  8634  0C81  3DF2               	addwfc	___fladd@b+2,f
  8635  0C82  0877               	movf	___fladd@a+3,w
  8636  0C83  3DF3               	addwfc	___fladd@b+3,f
  8637  0C84                     l2567:
  8638  0C84  1C73               	btfss	___fladd@b+3,0
  8639  0C85  2C87               	goto	u2721
  8640  0C86  2C88               	goto	u2720
  8641  0C87                     u2721:
  8642  0C87  2D35               	goto	l2617
  8643  0C88                     u2720:
  8644  0C88                     l2569:
  8645  0C88  1C7B               	btfss	___fladd@grs,0
  8646  0C89  2C8B               	goto	u2731
  8647  0C8A  2C8C               	goto	u2730
  8648  0C8B                     u2731:
  8649  0C8B  2C93               	goto	l2573
  8650  0C8C                     u2730:
  8651  0C8C                     l2571:
  8652  0C8C  367B               	lsrf	___fladd@grs,w
  8653  0C8D  3801               	iorlw	1
  8654  0C8E  0020               	movlb	0	; select bank0
  8655  0C8F  00A0               	movwf	??___fladd
  8656  0C90  0820               	movf	??___fladd,w
  8657  0C91  00FB               	movwf	___fladd@grs
  8658  0C92  2C95               	goto	l2575
  8659  0C93                     l2573:
  8660  0C93  1003               	clrc
  8661  0C94  0CFB               	rrf	___fladd@grs,f
  8662  0C95                     l2575:
  8663  0C95  1C70               	btfss	___fladd@b,0
  8664  0C96  2C98               	goto	u2741
  8665  0C97  2C99               	goto	u2740
  8666  0C98                     u2741:
  8667  0C98  2C9A               	goto	l2579
  8668  0C99                     u2740:
  8669  0C99                     l2577:
  8670  0C99  17FB               	bsf	___fladd@grs,7
  8671  0C9A                     l2579:
  8672  0C9A  3001               	movlw	1
  8673  0C9B  0020               	movlb	0	; select bank0
  8674  0C9C  00A0               	movwf	??___fladd
  8675  0C9D                     u2755:
  8676  0C9D  37F3               	asrf	___fladd@b+3,f
  8677  0C9E  0CF2               	rrf	___fladd@b+2,f
  8678  0C9F  0CF1               	rrf	___fladd@b+1,f
  8679  0CA0  0CF0               	rrf	___fladd@b,f
  8680  0CA1  0BA0               	decfsz	??___fladd& (0+127),f
  8681  0CA2  2C9D               	goto	u2755
  8682  0CA3                     l2581:
  8683  0CA3  3001               	movlw	1
  8684  0CA4  00A0               	movwf	??___fladd
  8685  0CA5  0820               	movf	??___fladd,w
  8686  0CA6  07FA               	addwf	___fladd@bexp,f
  8687  0CA7  2D35               	goto	l2617
  8688  0CA8                     l2583:
  8689  0CA8  0873               	movf	___fladd@b+3,w
  8690  0CA9  3A80               	xorlw	128
  8691  0CAA  0020               	movlb	0	; select bank0
  8692  0CAB  00A0               	movwf	??___fladd
  8693  0CAC  0877               	movf	___fladd@a+3,w
  8694  0CAD  3A80               	xorlw	128
  8695  0CAE  0220               	subwf	??___fladd,w
  8696  0CAF  1D03               	skipz
  8697  0CB0  2CBB               	goto	u2763
  8698  0CB1  0876               	movf	___fladd@a+2,w
  8699  0CB2  0272               	subwf	___fladd@b+2,w
  8700  0CB3  1D03               	skipz
  8701  0CB4  2CBB               	goto	u2763
  8702  0CB5  0875               	movf	___fladd@a+1,w
  8703  0CB6  0271               	subwf	___fladd@b+1,w
  8704  0CB7  1D03               	skipz
  8705  0CB8  2CBB               	goto	u2763
  8706  0CB9  0874               	movf	___fladd@a,w
  8707  0CBA  0270               	subwf	___fladd@b,w
  8708  0CBB                     u2763:
  8709  0CBB  1803               	skipnc
  8710  0CBC  2CBE               	goto	u2761
  8711  0CBD  2CBF               	goto	u2760
  8712  0CBE                     u2761:
  8713  0CBE  2CF7               	goto	l2593
  8714  0CBF                     u2760:
  8715  0CBF                     l2585:
  8716  0CBF  30FF               	movlw	255
  8717  0CC0  00A0               	movwf	??___fladd
  8718  0CC1  30FF               	movlw	255
  8719  0CC2  00A1               	movwf	??___fladd+1
  8720  0CC3  30FF               	movlw	255
  8721  0CC4  00A2               	movwf	??___fladd+2
  8722  0CC5  30FF               	movlw	255
  8723  0CC6  00A3               	movwf	??___fladd+3
  8724  0CC7  0870               	movf	___fladd@b,w
  8725  0CC8  0274               	subwf	___fladd@a,w
  8726  0CC9  00A4               	movwf	??___fladd+4
  8727  0CCA  0871               	movf	___fladd@b+1,w
  8728  0CCB  3B75               	subwfb	___fladd@a+1,w
  8729  0CCC  00A5               	movwf	??___fladd+5
  8730  0CCD  0872               	movf	___fladd@b+2,w
  8731  0CCE  3B76               	subwfb	___fladd@a+2,w
  8732  0CCF  00A6               	movwf	??___fladd+6
  8733  0CD0  0873               	movf	___fladd@b+3,w
  8734  0CD1  3B77               	subwfb	___fladd@a+3,w
  8735  0CD2  00A7               	movwf	??___fladd+7
  8736  0CD3  0824               	movf	??___fladd+4,w
  8737  0CD4  07A0               	addwf	??___fladd,f
  8738  0CD5  0825               	movf	??___fladd+5,w
  8739  0CD6  3DA1               	addwfc	??___fladd+1,f
  8740  0CD7  0826               	movf	??___fladd+6,w
  8741  0CD8  3DA2               	addwfc	??___fladd+2,f
  8742  0CD9  0827               	movf	??___fladd+7,w
  8743  0CDA  3DA3               	addwfc	??___fladd+3,f
  8744  0CDB  0823               	movf	??___fladd+3,w
  8745  0CDC  00F3               	movwf	___fladd@b+3
  8746  0CDD  0822               	movf	??___fladd+2,w
  8747  0CDE  00F2               	movwf	___fladd@b+2
  8748  0CDF  0821               	movf	??___fladd+1,w
  8749  0CE0  00F1               	movwf	___fladd@b+1
  8750  0CE1  0820               	movf	??___fladd,w
  8751  0CE2  00F0               	movwf	___fladd@b
  8752  0CE3                     l2587:
  8753  0CE3  3080               	movlw	128
  8754  0CE4  00A0               	movwf	??___fladd
  8755  0CE5  0820               	movf	??___fladd,w
  8756  0CE6  06F8               	xorwf	___fladd@signs,f
  8757  0CE7  09FB               	comf	___fladd@grs,f
  8758  0CE8  0AFB               	incf	___fladd@grs,f
  8759  0CE9                     l2589:
  8760  0CE9  087B               	movf	___fladd@grs,w
  8761  0CEA  1D03               	btfss	3,2
  8762  0CEB  2CED               	goto	u2771
  8763  0CEC  2CEE               	goto	u2770
  8764  0CED                     u2771:
  8765  0CED  2CFF               	goto	l672
  8766  0CEE                     u2770:
  8767  0CEE                     l2591:
  8768  0CEE  3001               	movlw	1
  8769  0CEF  07F0               	addwf	___fladd@b,f
  8770  0CF0  3000               	movlw	0
  8771  0CF1  3DF1               	addwfc	___fladd@b+1,f
  8772  0CF2  3000               	movlw	0
  8773  0CF3  3DF2               	addwfc	___fladd@b+2,f
  8774  0CF4  3000               	movlw	0
  8775  0CF5  3DF3               	addwfc	___fladd@b+3,f
  8776  0CF6  2CFF               	goto	l672
  8777  0CF7                     l2593:
  8778  0CF7  0874               	movf	___fladd@a,w
  8779  0CF8  02F0               	subwf	___fladd@b,f
  8780  0CF9  0875               	movf	___fladd@a+1,w
  8781  0CFA  3BF1               	subwfb	___fladd@b+1,f
  8782  0CFB  0876               	movf	___fladd@a+2,w
  8783  0CFC  3BF2               	subwfb	___fladd@b+2,f
  8784  0CFD  0877               	movf	___fladd@a+3,w
  8785  0CFE  3BF3               	subwfb	___fladd@b+3,f
  8786  0CFF                     l672:
  8787  0CFF  0873               	movf	___fladd@b+3,w
  8788  0D00  0472               	iorwf	___fladd@b+2,w
  8789  0D01  0471               	iorwf	___fladd@b+1,w
  8790  0D02  0470               	iorwf	___fladd@b,w
  8791  0D03  1D03               	skipz
  8792  0D04  2D06               	goto	u2781
  8793  0D05  2D07               	goto	u2780
  8794  0D06                     u2781:
  8795  0D06  2D31               	goto	l2615
  8796  0D07                     u2780:
  8797  0D07                     l2595:
  8798  0D07  087B               	movf	___fladd@grs,w
  8799  0D08  1D03               	btfss	3,2
  8800  0D09  2D0B               	goto	u2791
  8801  0D0A  2D0C               	goto	u2790
  8802  0D0B                     u2791:
  8803  0D0B  2D31               	goto	l2615
  8804  0D0C                     u2790:
  8805  0D0C                     l2597:
  8806  0D0C  3000               	movlw	0
  8807  0D0D  00F3               	movwf	?___fladd+3
  8808  0D0E  3000               	movlw	0
  8809  0D0F  00F2               	movwf	?___fladd+2
  8810  0D10  3000               	movlw	0
  8811  0D11  00F1               	movwf	?___fladd+1
  8812  0D12  3000               	movlw	0
  8813  0D13  00F0               	movwf	?___fladd
  8814  0D14  2DA8               	goto	l664
  8815  0D15                     l2601:
  8816  0D15  3001               	movlw	1
  8817  0D16                     u2805:
  8818  0D16  35F0               	lslf	___fladd@b,f
  8819  0D17  0DF1               	rlf	___fladd@b+1,f
  8820  0D18  0DF2               	rlf	___fladd@b+2,f
  8821  0D19  0DF3               	rlf	___fladd@b+3,f
  8822  0D1A  0B89               	decfsz	9,f
  8823  0D1B  2D16               	goto	u2805
  8824  0D1C                     l2603:
  8825  0D1C  1FFB               	btfss	___fladd@grs,7
  8826  0D1D  2D1F               	goto	u2811
  8827  0D1E  2D20               	goto	u2810
  8828  0D1F                     u2811:
  8829  0D1F  2D21               	goto	l676
  8830  0D20                     u2810:
  8831  0D20                     l2605:
  8832  0D20  1470               	bsf	___fladd@b,0
  8833  0D21                     l676:
  8834  0D21  1C7B               	btfss	___fladd@grs,0
  8835  0D22  2D24               	goto	u2821
  8836  0D23  2D25               	goto	u2820
  8837  0D24                     u2821:
  8838  0D24  2D28               	goto	l2609
  8839  0D25                     u2820:
  8840  0D25                     l2607:
  8841  0D25  1403               	setc
  8842  0D26  0DFB               	rlf	___fladd@grs,f
  8843  0D27  2D2A               	goto	l2611
  8844  0D28                     l2609:
  8845  0D28  1003               	clrc
  8846  0D29  0DFB               	rlf	___fladd@grs,f
  8847  0D2A                     l2611:
  8848  0D2A  087A               	movf	___fladd@bexp,w
  8849  0D2B  1903               	btfsc	3,2
  8850  0D2C  2D2E               	goto	u2831
  8851  0D2D  2D2F               	goto	u2830
  8852  0D2E                     u2831:
  8853  0D2E  2D31               	goto	l2615
  8854  0D2F                     u2830:
  8855  0D2F                     l2613:
  8856  0D2F  3001               	movlw	1
  8857  0D30  02FA               	subwf	___fladd@bexp,f
  8858  0D31                     l2615:
  8859  0D31  1FF2               	btfss	___fladd@b+2,7
  8860  0D32  2D34               	goto	u2841
  8861  0D33  2D35               	goto	u2840
  8862  0D34                     u2841:
  8863  0D34  2D15               	goto	l2601
  8864  0D35                     u2840:
  8865  0D35                     l2617:
  8866  0D35  01F9               	clrf	___fladd@aexp
  8867  0D36                     l2619:
  8868  0D36  1FFB               	btfss	___fladd@grs,7
  8869  0D37  2D39               	goto	u2851
  8870  0D38  2D3A               	goto	u2850
  8871  0D39                     u2851:
  8872  0D39  2D48               	goto	l2627
  8873  0D3A                     u2850:
  8874  0D3A                     l2621:
  8875  0D3A  087B               	movf	___fladd@grs,w
  8876  0D3B  397F               	andlw	127
  8877  0D3C  1903               	btfsc	3,2
  8878  0D3D  2D3F               	goto	u2861
  8879  0D3E  2D40               	goto	u2860
  8880  0D3F                     u2861:
  8881  0D3F  2D43               	goto	l682
  8882  0D40                     u2860:
  8883  0D40                     l2623:
  8884  0D40  01F9               	clrf	___fladd@aexp
  8885  0D41  0AF9               	incf	___fladd@aexp,f
  8886  0D42  2D48               	goto	l2627
  8887  0D43                     l682:
  8888  0D43  1C70               	btfss	___fladd@b,0
  8889  0D44  2D46               	goto	u2871
  8890  0D45  2D47               	goto	u2870
  8891  0D46                     u2871:
  8892  0D46  2D48               	goto	l2627
  8893  0D47                     u2870:
  8894  0D47  2D40               	goto	l2623
  8895  0D48                     l2627:
  8896  0D48  0879               	movf	___fladd@aexp,w
  8897  0D49  1903               	btfsc	3,2
  8898  0D4A  2D4C               	goto	u2881
  8899  0D4B  2D4D               	goto	u2880
  8900  0D4C                     u2881:
  8901  0D4C  2D7B               	goto	l685
  8902  0D4D                     u2880:
  8903  0D4D                     l2629:
  8904  0D4D  3001               	movlw	1
  8905  0D4E  07F0               	addwf	___fladd@b,f
  8906  0D4F  3000               	movlw	0
  8907  0D50  3DF1               	addwfc	___fladd@b+1,f
  8908  0D51  3000               	movlw	0
  8909  0D52  3DF2               	addwfc	___fladd@b+2,f
  8910  0D53  3000               	movlw	0
  8911  0D54  3DF3               	addwfc	___fladd@b+3,f
  8912  0D55                     l2631:
  8913  0D55  1C73               	btfss	___fladd@b+3,0
  8914  0D56  2D58               	goto	u2891
  8915  0D57  2D59               	goto	u2890
  8916  0D58                     u2891:
  8917  0D58  2D7B               	goto	l685
  8918  0D59                     u2890:
  8919  0D59                     l2633:
  8920  0D59  0870               	movf	___fladd@b,w
  8921  0D5A  0020               	movlb	0	; select bank0
  8922  0D5B  00A0               	movwf	??___fladd
  8923  0D5C  0871               	movf	___fladd@b+1,w
  8924  0D5D  00A1               	movwf	??___fladd+1
  8925  0D5E  0872               	movf	___fladd@b+2,w
  8926  0D5F  00A2               	movwf	??___fladd+2
  8927  0D60  0873               	movf	___fladd@b+3,w
  8928  0D61  00A3               	movwf	??___fladd+3
  8929  0D62  3001               	movlw	1
  8930  0D63  00A4               	movwf	??___fladd+4
  8931  0D64                     u2905:
  8932  0D64  37A3               	asrf	??___fladd+3,f
  8933  0D65  0CA2               	rrf	??___fladd+2,f
  8934  0D66  0CA1               	rrf	??___fladd+1,f
  8935  0D67  0CA0               	rrf	??___fladd,f
  8936  0D68                     u2900:
  8937  0D68  0BA4               	decfsz	??___fladd+4,f
  8938  0D69  2D64               	goto	u2905
  8939  0D6A  0823               	movf	??___fladd+3,w
  8940  0D6B  00F3               	movwf	___fladd@b+3
  8941  0D6C  0822               	movf	??___fladd+2,w
  8942  0D6D  00F2               	movwf	___fladd@b+2
  8943  0D6E  0821               	movf	??___fladd+1,w
  8944  0D6F  00F1               	movwf	___fladd@b+1
  8945  0D70  0820               	movf	??___fladd,w
  8946  0D71  00F0               	movwf	___fladd@b
  8947  0D72  0A7A               	incf	___fladd@bexp,w
  8948  0D73  1903               	btfsc	3,2
  8949  0D74  2D76               	goto	u2911
  8950  0D75  2D77               	goto	u2910
  8951  0D76                     u2911:
  8952  0D76  2D7B               	goto	l685
  8953  0D77                     u2910:
  8954  0D77                     l2635:
  8955  0D77  3001               	movlw	1
  8956  0D78  00A0               	movwf	??___fladd
  8957  0D79  0820               	movf	??___fladd,w
  8958  0D7A  07FA               	addwf	___fladd@bexp,f
  8959  0D7B                     l685:
  8960  0D7B  0A7A               	incf	___fladd@bexp,w
  8961  0D7C  1903               	btfsc	3,2
  8962  0D7D  2D7F               	goto	u2921
  8963  0D7E  2D80               	goto	u2920
  8964  0D7F                     u2921:
  8965  0D7F  2D85               	goto	l2639
  8966  0D80                     u2920:
  8967  0D80                     l2637:
  8968  0D80  087A               	movf	___fladd@bexp,w
  8969  0D81  1D03               	btfss	3,2
  8970  0D82  2D84               	goto	u2931
  8971  0D83  2D85               	goto	u2930
  8972  0D84                     u2931:
  8973  0D84  2D93               	goto	l2645
  8974  0D85                     u2930:
  8975  0D85                     l2639:
  8976  0D85  3000               	movlw	0
  8977  0D86  00F3               	movwf	___fladd@b+3
  8978  0D87  3000               	movlw	0
  8979  0D88  00F2               	movwf	___fladd@b+2
  8980  0D89  3000               	movlw	0
  8981  0D8A  00F1               	movwf	___fladd@b+1
  8982  0D8B  3000               	movlw	0
  8983  0D8C  00F0               	movwf	___fladd@b
  8984  0D8D                     l2641:
  8985  0D8D  087A               	movf	___fladd@bexp,w
  8986  0D8E  1D03               	btfss	3,2
  8987  0D8F  2D91               	goto	u2941
  8988  0D90  2D92               	goto	u2940
  8989  0D91                     u2941:
  8990  0D91  2D93               	goto	l2645
  8991  0D92                     u2940:
  8992  0D92                     l2643:
  8993  0D92  01F8               	clrf	___fladd@signs
  8994  0D93                     l2645:
  8995  0D93  1C7A               	btfss	___fladd@bexp,0
  8996  0D94  2D96               	goto	u2951
  8997  0D95  2D97               	goto	u2950
  8998  0D96                     u2951:
  8999  0D96  2D99               	goto	l2649
  9000  0D97                     u2950:
  9001  0D97                     l2647:
  9002  0D97  17F2               	bsf	___fladd@b+2,7
  9003  0D98  2D9E               	goto	l693
  9004  0D99                     l2649:
  9005  0D99  307F               	movlw	127
  9006  0D9A  0020               	movlb	0	; select bank0
  9007  0D9B  00A0               	movwf	??___fladd
  9008  0D9C  0820               	movf	??___fladd,w
  9009  0D9D  05F2               	andwf	___fladd@b+2,f
  9010  0D9E                     l693:
  9011  0D9E  367A               	lsrf	___fladd@bexp,w
  9012  0D9F  0020               	movlb	0	; select bank0
  9013  0DA0  00A0               	movwf	??___fladd
  9014  0DA1  0820               	movf	??___fladd,w
  9015  0DA2  00F3               	movwf	___fladd@b+3
  9016  0DA3                     l2651:
  9017  0DA3  1FF8               	btfss	___fladd@signs,7
  9018  0DA4  2DA6               	goto	u2961
  9019  0DA5  2DA7               	goto	u2960
  9020  0DA6                     u2961:
  9021  0DA6  2DA8               	goto	l694
  9022  0DA7                     u2960:
  9023  0DA7                     l2653:
  9024  0DA7  17F3               	bsf	___fladd@b+3,7
  9025  0DA8                     l694:
  9026  0DA8                     l664:
  9027  0DA8  0008               	return
  9028  0DA9                     __end_of___fladd:
  9029                           
  9030                           	psect	text28
  9031  11AA                     __ptext28:	
  9032 ;; *************** function ___flneg *****************
  9033 ;; Defined at:
  9034 ;;		line 15 in file "C:\Program Files\Microchip\xc8\v2.31\pic\sources\c99\common\flneg.c"
  9035 ;; Parameters:    Size  Location     Type
  9036 ;;  f1              4    0[COMMON] unsigned char 
  9037 ;; Auto vars:     Size  Location     Type
  9038 ;;		None
  9039 ;; Return value:  Size  Location     Type
  9040 ;;                  4    0[COMMON] unsigned char 
  9041 ;; Registers used:
  9042 ;;		wreg
  9043 ;; Tracked objects:
  9044 ;;		On entry : 0/0
  9045 ;;		On exit  : 0/0
  9046 ;;		Unchanged: 0/0
  9047 ;; Data sizes:     COMMON   BANK0   BANK1   BANK2   BANK3   BANK4   BANK5   BANK6   BANK7   BANK8   BANK9  BANK10  BANK1
      +1  BANK12
  9048 ;;      Params:         4       0       0       0       0       0       0       0       0       0       0       0       
      +0       0
  9049 ;;      Locals:         0       0       0       0       0       0       0       0       0       0       0       0       
      +0       0
  9050 ;;      Temps:          0       0       0       0       0       0       0       0       0       0       0       0       
      +0       0
  9051 ;;      Totals:         4       0       0       0       0       0       0       0       0       0       0       0       
      +0       0
  9052 ;;Total ram usage:        4 bytes
  9053 ;; Hardware stack levels used:    1
  9054 ;; This function calls:
  9055 ;;		Nothing
  9056 ;; This function is called by:
  9057 ;;		_efgtoa
  9058 ;; This function uses a non-reentrant model
  9059 ;;
  9060                           
  9061                           
  9062                           ;psect for function ___flneg
  9063  11AA                     ___flneg:
  9064  11AA                     l2805:	
  9065                           ;incstack = 0
  9066                           ; Regs used in ___flneg: [wreg]
  9067                           
  9068  11AA  0873               	movf	___flneg@f1+3,w
  9069  11AB  0472               	iorwf	___flneg@f1+2,w
  9070  11AC  0471               	iorwf	___flneg@f1+1,w
  9071  11AD  0470               	iorwf	___flneg@f1,w
  9072  11AE  1903               	skipnz
  9073  11AF  29B1               	goto	u3311
  9074  11B0  29B2               	goto	u3310
  9075  11B1                     u3311:
  9076  11B1  29B4               	goto	l2809
  9077  11B2                     u3310:
  9078  11B2                     l2807:
  9079  11B2  3080               	movlw	128
  9080  11B3  06F3               	xorwf	___flneg@f1+3,f
  9081  11B4                     l2809:
  9082  11B4                     l540:
  9083  11B4  0008               	return
  9084  11B5                     __end_of___flneg:
  9085                           
  9086                           	psect	text29
  9087  0DA9                     __ptext29:	
  9088 ;; *************** function ___flmul *****************
  9089 ;; Defined at:
  9090 ;;		line 8 in file "C:\Program Files\Microchip\xc8\v2.31\pic\sources\c99\common\sprcmul.c"
  9091 ;; Parameters:    Size  Location     Type
  9092 ;;  b               4    0[BANK0 ] unsigned char 
  9093 ;;  a               4    4[BANK0 ] unsigned char 
  9094 ;; Auto vars:     Size  Location     Type
  9095 ;;  prod            4   15[BANK0 ] struct .
  9096 ;;  grs             4    9[BANK0 ] unsigned long 
  9097 ;;  temp            2   19[BANK0 ] struct .
  9098 ;;  bexp            1   14[BANK0 ] unsigned char 
  9099 ;;  aexp            1   13[BANK0 ] unsigned char 
  9100 ;;  sign            1    8[BANK0 ] unsigned char 
  9101 ;; Return value:  Size  Location     Type
  9102 ;;                  4    0[BANK0 ] unsigned char 
  9103 ;; Registers used:
  9104 ;;		wreg, status,2, status,0, pclath, cstack
  9105 ;; Tracked objects:
  9106 ;;		On entry : 0/0
  9107 ;;		On exit  : 0/0
  9108 ;;		Unchanged: 0/0
  9109 ;; Data sizes:     COMMON   BANK0   BANK1   BANK2   BANK3   BANK4   BANK5   BANK6   BANK7   BANK8   BANK9  BANK10  BANK1
      +1  BANK12
  9110 ;;      Params:         0       8       0       0       0       0       0       0       0       0       0       0       
      +0       0
  9111 ;;      Locals:         0      13       0       0       0       0       0       0       0       0       0       0       
      +0       0
  9112 ;;      Temps:          5       0       0       0       0       0       0       0       0       0       0       0       
      +0       0
  9113 ;;      Totals:         5      21       0       0       0       0       0       0       0       0       0       0       
      +0       0
  9114 ;;Total ram usage:       26 bytes
  9115 ;; Hardware stack levels used:    1
  9116 ;; Hardware stack levels required when called:    1
  9117 ;; This function calls:
  9118 ;;		__Umul8_16
  9119 ;; This function is called by:
  9120 ;;		_efgtoa
  9121 ;; This function uses a non-reentrant model
  9122 ;;
  9123                           
  9124                           
  9125                           ;psect for function ___flmul
  9126  0DA9                     ___flmul:
  9127  0DA9                     l2995:	
  9128                           ;incstack = 0
  9129                           ; Regs used in ___flmul: [wreg+status,2+status,0+pclath+cstack]
  9130                           
  9131  0DA9  0020               	movlb	0	; select bank0
  9132  0DAA  0823               	movf	___flmul@b+3,w
  9133  0DAB  3980               	andlw	128
  9134  0DAC  00F9               	movwf	??___flmul
  9135  0DAD  0879               	movf	??___flmul,w
  9136  0DAE  00A8               	movwf	___flmul@sign
  9137  0DAF                     l2997:
  9138  0DAF  3523               	lslf	___flmul@b+3,w
  9139  0DB0  00F9               	movwf	??___flmul
  9140  0DB1  0879               	movf	??___flmul,w
  9141  0DB2  00AE               	movwf	___flmul@bexp
  9142  0DB3                     l2999:
  9143  0DB3  1FA2               	btfss	___flmul@b+2,7
  9144  0DB4  2DB6               	goto	u3711
  9145  0DB5  2DB7               	goto	u3710
  9146  0DB6                     u3711:
  9147  0DB6  2DB8               	goto	l3003
  9148  0DB7                     u3710:
  9149  0DB7                     l3001:
  9150  0DB7  142E               	bsf	___flmul@bexp,0
  9151  0DB8                     l3003:
  9152  0DB8  082E               	movf	___flmul@bexp,w
  9153  0DB9  1903               	btfsc	3,2
  9154  0DBA  2DBC               	goto	u3721
  9155  0DBB  2DBD               	goto	u3720
  9156  0DBC                     u3721:
  9157  0DBC  2DCC               	goto	l3011
  9158  0DBD                     u3720:
  9159  0DBD                     l3005:
  9160  0DBD  0A2E               	incf	___flmul@bexp,w
  9161  0DBE  1D03               	btfss	3,2
  9162  0DBF  2DC1               	goto	u3731
  9163  0DC0  2DC2               	goto	u3730
  9164  0DC1                     u3731:
  9165  0DC1  2DCA               	goto	l3009
  9166  0DC2                     u3730:
  9167  0DC2                     l3007:
  9168  0DC2  3000               	movlw	0
  9169  0DC3  00A3               	movwf	___flmul@b+3
  9170  0DC4  3000               	movlw	0
  9171  0DC5  00A2               	movwf	___flmul@b+2
  9172  0DC6  3000               	movlw	0
  9173  0DC7  00A1               	movwf	___flmul@b+1
  9174  0DC8  3000               	movlw	0
  9175  0DC9  00A0               	movwf	___flmul@b
  9176  0DCA                     l3009:
  9177  0DCA  17A2               	bsf	___flmul@b+2,7
  9178  0DCB  2DD4               	goto	l3013
  9179  0DCC                     l3011:
  9180  0DCC  3000               	movlw	0
  9181  0DCD  00A3               	movwf	___flmul@b+3
  9182  0DCE  3000               	movlw	0
  9183  0DCF  00A2               	movwf	___flmul@b+2
  9184  0DD0  3000               	movlw	0
  9185  0DD1  00A1               	movwf	___flmul@b+1
  9186  0DD2  3000               	movlw	0
  9187  0DD3  00A0               	movwf	___flmul@b
  9188  0DD4                     l3013:
  9189  0DD4  0827               	movf	___flmul@a+3,w
  9190  0DD5  3980               	andlw	128
  9191  0DD6  00F9               	movwf	??___flmul
  9192  0DD7  0879               	movf	??___flmul,w
  9193  0DD8  06A8               	xorwf	___flmul@sign,f
  9194  0DD9                     l3015:
  9195  0DD9  3527               	lslf	___flmul@a+3,w
  9196  0DDA  00F9               	movwf	??___flmul
  9197  0DDB  0879               	movf	??___flmul,w
  9198  0DDC  00AD               	movwf	___flmul@aexp
  9199  0DDD                     l3017:
  9200  0DDD  1FA6               	btfss	___flmul@a+2,7
  9201  0DDE  2DE0               	goto	u3741
  9202  0DDF  2DE1               	goto	u3740
  9203  0DE0                     u3741:
  9204  0DE0  2DE2               	goto	l3021
  9205  0DE1                     u3740:
  9206  0DE1                     l3019:
  9207  0DE1  142D               	bsf	___flmul@aexp,0
  9208  0DE2                     l3021:
  9209  0DE2  082D               	movf	___flmul@aexp,w
  9210  0DE3  1903               	btfsc	3,2
  9211  0DE4  2DE6               	goto	u3751
  9212  0DE5  2DE7               	goto	u3750
  9213  0DE6                     u3751:
  9214  0DE6  2DF6               	goto	l3029
  9215  0DE7                     u3750:
  9216  0DE7                     l3023:
  9217  0DE7  0A2D               	incf	___flmul@aexp,w
  9218  0DE8  1D03               	btfss	3,2
  9219  0DE9  2DEB               	goto	u3761
  9220  0DEA  2DEC               	goto	u3760
  9221  0DEB                     u3761:
  9222  0DEB  2DF4               	goto	l3027
  9223  0DEC                     u3760:
  9224  0DEC                     l3025:
  9225  0DEC  3000               	movlw	0
  9226  0DED  00A7               	movwf	___flmul@a+3
  9227  0DEE  3000               	movlw	0
  9228  0DEF  00A6               	movwf	___flmul@a+2
  9229  0DF0  3000               	movlw	0
  9230  0DF1  00A5               	movwf	___flmul@a+1
  9231  0DF2  3000               	movlw	0
  9232  0DF3  00A4               	movwf	___flmul@a
  9233  0DF4                     l3027:
  9234  0DF4  17A6               	bsf	___flmul@a+2,7
  9235  0DF5  2DFE               	goto	l3031
  9236  0DF6                     l3029:
  9237  0DF6  3000               	movlw	0
  9238  0DF7  00A7               	movwf	___flmul@a+3
  9239  0DF8  3000               	movlw	0
  9240  0DF9  00A6               	movwf	___flmul@a+2
  9241  0DFA  3000               	movlw	0
  9242  0DFB  00A5               	movwf	___flmul@a+1
  9243  0DFC  3000               	movlw	0
  9244  0DFD  00A4               	movwf	___flmul@a
  9245  0DFE                     l3031:
  9246  0DFE  082D               	movf	___flmul@aexp,w
  9247  0DFF  1903               	btfsc	3,2
  9248  0E00  2E02               	goto	u3771
  9249  0E01  2E03               	goto	u3770
  9250  0E02                     u3771:
  9251  0E02  2E08               	goto	l3035
  9252  0E03                     u3770:
  9253  0E03                     l3033:
  9254  0E03  082E               	movf	___flmul@bexp,w
  9255  0E04  1D03               	btfss	3,2
  9256  0E05  2E07               	goto	u3781
  9257  0E06  2E08               	goto	u3780
  9258  0E07                     u3781:
  9259  0E07  2E11               	goto	l3039
  9260  0E08                     u3780:
  9261  0E08                     l3035:
  9262  0E08  3000               	movlw	0
  9263  0E09  00A3               	movwf	?___flmul+3
  9264  0E0A  3000               	movlw	0
  9265  0E0B  00A2               	movwf	?___flmul+2
  9266  0E0C  3000               	movlw	0
  9267  0E0D  00A1               	movwf	?___flmul+1
  9268  0E0E  3000               	movlw	0
  9269  0E0F  00A0               	movwf	?___flmul
  9270  0E10  2FFF               	goto	l747
  9271  0E11                     l3039:
  9272  0E11  0820               	movf	___flmul@b,w
  9273  0E12  00F9               	movwf	??___flmul
  9274  0E13  0879               	movf	??___flmul,w
  9275  0E14  00F0               	movwf	__Umul8_16@multiplicand
  9276  0E15  0826               	movf	___flmul@a+2,w
  9277  0E16  3180  2004  318D   	fcall	__Umul8_16
  9278  0E19  0871               	movf	?__Umul8_16+1,w
  9279  0E1A  0020               	movlb	0	; select bank0
  9280  0E1B  00B4               	movwf	___flmul@temp+1
  9281  0E1C  0870               	movf	?__Umul8_16,w
  9282  0E1D  00B3               	movwf	___flmul@temp
  9283  0E1E                     l3041:
  9284  0E1E  0833               	movf	___flmul@temp,w
  9285  0E1F  00F9               	movwf	??___flmul
  9286  0E20  01FA               	clrf	??___flmul+1
  9287  0E21  01FB               	clrf	??___flmul+2
  9288  0E22  01FC               	clrf	??___flmul+3
  9289  0E23  087C               	movf	??___flmul+3,w
  9290  0E24  00AC               	movwf	___flmul@grs+3
  9291  0E25  087B               	movf	??___flmul+2,w
  9292  0E26  00AB               	movwf	___flmul@grs+2
  9293  0E27  087A               	movf	??___flmul+1,w
  9294  0E28  00AA               	movwf	___flmul@grs+1
  9295  0E29  0879               	movf	??___flmul,w
  9296  0E2A  00A9               	movwf	___flmul@grs
  9297  0E2B                     l3043:
  9298  0E2B  0834               	movf	___flmul@temp+1,w
  9299  0E2C  00F9               	movwf	??___flmul
  9300  0E2D  01FA               	clrf	??___flmul+1
  9301  0E2E  01FB               	clrf	??___flmul+2
  9302  0E2F  01FC               	clrf	??___flmul+3
  9303  0E30  087C               	movf	??___flmul+3,w
  9304  0E31  00B2               	movwf	___flmul@prod+3
  9305  0E32  087B               	movf	??___flmul+2,w
  9306  0E33  00B1               	movwf	___flmul@prod+2
  9307  0E34  087A               	movf	??___flmul+1,w
  9308  0E35  00B0               	movwf	___flmul@prod+1
  9309  0E36  0879               	movf	??___flmul,w
  9310  0E37  00AF               	movwf	___flmul@prod
  9311  0E38  0821               	movf	___flmul@b+1,w
  9312  0E39  00F9               	movwf	??___flmul
  9313  0E3A  0879               	movf	??___flmul,w
  9314  0E3B  00F0               	movwf	__Umul8_16@multiplicand
  9315  0E3C  0825               	movf	___flmul@a+1,w
  9316  0E3D  3180  2004  318D   	fcall	__Umul8_16
  9317  0E40  0871               	movf	?__Umul8_16+1,w
  9318  0E41  0020               	movlb	0	; select bank0
  9319  0E42  00B4               	movwf	___flmul@temp+1
  9320  0E43  0870               	movf	?__Umul8_16,w
  9321  0E44  00B3               	movwf	___flmul@temp
  9322  0E45                     l3045:
  9323  0E45  0833               	movf	___flmul@temp,w
  9324  0E46  00F9               	movwf	??___flmul
  9325  0E47  01FA               	clrf	??___flmul+1
  9326  0E48  01FB               	clrf	??___flmul+2
  9327  0E49  01FC               	clrf	??___flmul+3
  9328  0E4A  0879               	movf	??___flmul,w
  9329  0E4B  07A9               	addwf	___flmul@grs,f
  9330  0E4C  087A               	movf	??___flmul+1,w
  9331  0E4D  3DAA               	addwfc	___flmul@grs+1,f
  9332  0E4E  087B               	movf	??___flmul+2,w
  9333  0E4F  3DAB               	addwfc	___flmul@grs+2,f
  9334  0E50  087C               	movf	??___flmul+3,w
  9335  0E51  3DAC               	addwfc	___flmul@grs+3,f
  9336  0E52                     l3047:
  9337  0E52  0834               	movf	___flmul@temp+1,w
  9338  0E53  00F9               	movwf	??___flmul
  9339  0E54  01FA               	clrf	??___flmul+1
  9340  0E55  01FB               	clrf	??___flmul+2
  9341  0E56  01FC               	clrf	??___flmul+3
  9342  0E57  0879               	movf	??___flmul,w
  9343  0E58  07AF               	addwf	___flmul@prod,f
  9344  0E59  087A               	movf	??___flmul+1,w
  9345  0E5A  3DB0               	addwfc	___flmul@prod+1,f
  9346  0E5B  087B               	movf	??___flmul+2,w
  9347  0E5C  3DB1               	addwfc	___flmul@prod+2,f
  9348  0E5D  087C               	movf	??___flmul+3,w
  9349  0E5E  3DB2               	addwfc	___flmul@prod+3,f
  9350  0E5F  0822               	movf	___flmul@b+2,w
  9351  0E60  00F9               	movwf	??___flmul
  9352  0E61  0879               	movf	??___flmul,w
  9353  0E62  00F0               	movwf	__Umul8_16@multiplicand
  9354  0E63  0824               	movf	___flmul@a,w
  9355  0E64  3180  2004  318D   	fcall	__Umul8_16
  9356  0E67  0871               	movf	?__Umul8_16+1,w
  9357  0E68  0020               	movlb	0	; select bank0
  9358  0E69  00B4               	movwf	___flmul@temp+1
  9359  0E6A  0870               	movf	?__Umul8_16,w
  9360  0E6B  00B3               	movwf	___flmul@temp
  9361  0E6C                     l3049:
  9362  0E6C  0833               	movf	___flmul@temp,w
  9363  0E6D  00F9               	movwf	??___flmul
  9364  0E6E  01FA               	clrf	??___flmul+1
  9365  0E6F  01FB               	clrf	??___flmul+2
  9366  0E70  01FC               	clrf	??___flmul+3
  9367  0E71  0879               	movf	??___flmul,w
  9368  0E72  07A9               	addwf	___flmul@grs,f
  9369  0E73  087A               	movf	??___flmul+1,w
  9370  0E74  3DAA               	addwfc	___flmul@grs+1,f
  9371  0E75  087B               	movf	??___flmul+2,w
  9372  0E76  3DAB               	addwfc	___flmul@grs+2,f
  9373  0E77  087C               	movf	??___flmul+3,w
  9374  0E78  3DAC               	addwfc	___flmul@grs+3,f
  9375  0E79                     l3051:
  9376  0E79  0834               	movf	___flmul@temp+1,w
  9377  0E7A  00F9               	movwf	??___flmul
  9378  0E7B  01FA               	clrf	??___flmul+1
  9379  0E7C  01FB               	clrf	??___flmul+2
  9380  0E7D  01FC               	clrf	??___flmul+3
  9381  0E7E  0879               	movf	??___flmul,w
  9382  0E7F  07AF               	addwf	___flmul@prod,f
  9383  0E80  087A               	movf	??___flmul+1,w
  9384  0E81  3DB0               	addwfc	___flmul@prod+1,f
  9385  0E82  087B               	movf	??___flmul+2,w
  9386  0E83  3DB1               	addwfc	___flmul@prod+2,f
  9387  0E84  087C               	movf	??___flmul+3,w
  9388  0E85  3DB2               	addwfc	___flmul@prod+3,f
  9389  0E86                     l3053:
  9390  0E86  3008               	movlw	8
  9391  0E87                     u3795:
  9392  0E87  35A9               	lslf	___flmul@grs,f
  9393  0E88  0DAA               	rlf	___flmul@grs+1,f
  9394  0E89  0DAB               	rlf	___flmul@grs+2,f
  9395  0E8A  0DAC               	rlf	___flmul@grs+3,f
  9396  0E8B  0B89               	decfsz	9,f
  9397  0E8C  2E87               	goto	u3795
  9398  0E8D                     l3055:
  9399  0E8D  0821               	movf	___flmul@b+1,w
  9400  0E8E  00F9               	movwf	??___flmul
  9401  0E8F  0879               	movf	??___flmul,w
  9402  0E90  00F0               	movwf	__Umul8_16@multiplicand
  9403  0E91  0824               	movf	___flmul@a,w
  9404  0E92  3180  2004  318D   	fcall	__Umul8_16
  9405  0E95  0871               	movf	?__Umul8_16+1,w
  9406  0E96  0020               	movlb	0	; select bank0
  9407  0E97  00B4               	movwf	___flmul@temp+1
  9408  0E98  0870               	movf	?__Umul8_16,w
  9409  0E99  00B3               	movwf	___flmul@temp
  9410  0E9A                     l3057:
  9411  0E9A  0833               	movf	___flmul@temp,w
  9412  0E9B  07A9               	addwf	___flmul@grs,f
  9413  0E9C  0834               	movf	___flmul@temp+1,w
  9414  0E9D  3DAA               	addwfc	___flmul@grs+1,f
  9415  0E9E  3000               	movlw	0
  9416  0E9F  3DAB               	addwfc	___flmul@grs+2,f
  9417  0EA0  3DAC               	addwfc	___flmul@grs+3,f
  9418  0EA1                     l3059:
  9419  0EA1  0820               	movf	___flmul@b,w
  9420  0EA2  00F9               	movwf	??___flmul
  9421  0EA3  0879               	movf	??___flmul,w
  9422  0EA4  00F0               	movwf	__Umul8_16@multiplicand
  9423  0EA5  0825               	movf	___flmul@a+1,w
  9424  0EA6  3180  2004  318D   	fcall	__Umul8_16
  9425  0EA9  0871               	movf	?__Umul8_16+1,w
  9426  0EAA  0020               	movlb	0	; select bank0
  9427  0EAB  00B4               	movwf	___flmul@temp+1
  9428  0EAC  0870               	movf	?__Umul8_16,w
  9429  0EAD  00B3               	movwf	___flmul@temp
  9430  0EAE                     l3061:
  9431  0EAE  0833               	movf	___flmul@temp,w
  9432  0EAF  07A9               	addwf	___flmul@grs,f
  9433  0EB0  0834               	movf	___flmul@temp+1,w
  9434  0EB1  3DAA               	addwfc	___flmul@grs+1,f
  9435  0EB2  3000               	movlw	0
  9436  0EB3  3DAB               	addwfc	___flmul@grs+2,f
  9437  0EB4  3DAC               	addwfc	___flmul@grs+3,f
  9438  0EB5                     l3063:
  9439  0EB5  3008               	movlw	8
  9440  0EB6                     u3805:
  9441  0EB6  35A9               	lslf	___flmul@grs,f
  9442  0EB7  0DAA               	rlf	___flmul@grs+1,f
  9443  0EB8  0DAB               	rlf	___flmul@grs+2,f
  9444  0EB9  0DAC               	rlf	___flmul@grs+3,f
  9445  0EBA  0B89               	decfsz	9,f
  9446  0EBB  2EB6               	goto	u3805
  9447  0EBC  0820               	movf	___flmul@b,w
  9448  0EBD  00F9               	movwf	??___flmul
  9449  0EBE  0879               	movf	??___flmul,w
  9450  0EBF  00F0               	movwf	__Umul8_16@multiplicand
  9451  0EC0  0824               	movf	___flmul@a,w
  9452  0EC1  3180  2004  318D   	fcall	__Umul8_16
  9453  0EC4  0871               	movf	?__Umul8_16+1,w
  9454  0EC5  0020               	movlb	0	; select bank0
  9455  0EC6  00B4               	movwf	___flmul@temp+1
  9456  0EC7  0870               	movf	?__Umul8_16,w
  9457  0EC8  00B3               	movwf	___flmul@temp
  9458  0EC9                     l3065:
  9459  0EC9  0833               	movf	___flmul@temp,w
  9460  0ECA  07A9               	addwf	___flmul@grs,f
  9461  0ECB  0834               	movf	___flmul@temp+1,w
  9462  0ECC  3DAA               	addwfc	___flmul@grs+1,f
  9463  0ECD  3000               	movlw	0
  9464  0ECE  3DAB               	addwfc	___flmul@grs+2,f
  9465  0ECF  3DAC               	addwfc	___flmul@grs+3,f
  9466  0ED0                     l3067:
  9467  0ED0  0821               	movf	___flmul@b+1,w
  9468  0ED1  00F9               	movwf	??___flmul
  9469  0ED2  0879               	movf	??___flmul,w
  9470  0ED3  00F0               	movwf	__Umul8_16@multiplicand
  9471  0ED4  0826               	movf	___flmul@a+2,w
  9472  0ED5  3180  2004  318D   	fcall	__Umul8_16
  9473  0ED8  0871               	movf	?__Umul8_16+1,w
  9474  0ED9  0020               	movlb	0	; select bank0
  9475  0EDA  00B4               	movwf	___flmul@temp+1
  9476  0EDB  0870               	movf	?__Umul8_16,w
  9477  0EDC  00B3               	movwf	___flmul@temp
  9478  0EDD  0833               	movf	___flmul@temp,w
  9479  0EDE  07AF               	addwf	___flmul@prod,f
  9480  0EDF  0834               	movf	___flmul@temp+1,w
  9481  0EE0  3DB0               	addwfc	___flmul@prod+1,f
  9482  0EE1  3000               	movlw	0
  9483  0EE2  3DB1               	addwfc	___flmul@prod+2,f
  9484  0EE3  3DB2               	addwfc	___flmul@prod+3,f
  9485  0EE4                     l3069:
  9486  0EE4  0822               	movf	___flmul@b+2,w
  9487  0EE5  00F9               	movwf	??___flmul
  9488  0EE6  0879               	movf	??___flmul,w
  9489  0EE7  00F0               	movwf	__Umul8_16@multiplicand
  9490  0EE8  0825               	movf	___flmul@a+1,w
  9491  0EE9  3180  2004  318D   	fcall	__Umul8_16
  9492  0EEC  0871               	movf	?__Umul8_16+1,w
  9493  0EED  0020               	movlb	0	; select bank0
  9494  0EEE  00B4               	movwf	___flmul@temp+1
  9495  0EEF  0870               	movf	?__Umul8_16,w
  9496  0EF0  00B3               	movwf	___flmul@temp
  9497  0EF1                     l3071:
  9498  0EF1  0833               	movf	___flmul@temp,w
  9499  0EF2  07AF               	addwf	___flmul@prod,f
  9500  0EF3  0834               	movf	___flmul@temp+1,w
  9501  0EF4  3DB0               	addwfc	___flmul@prod+1,f
  9502  0EF5  3000               	movlw	0
  9503  0EF6  3DB1               	addwfc	___flmul@prod+2,f
  9504  0EF7  3DB2               	addwfc	___flmul@prod+3,f
  9505  0EF8  0822               	movf	___flmul@b+2,w
  9506  0EF9  00F9               	movwf	??___flmul
  9507  0EFA  0879               	movf	??___flmul,w
  9508  0EFB  00F0               	movwf	__Umul8_16@multiplicand
  9509  0EFC  0826               	movf	___flmul@a+2,w
  9510  0EFD  3180  2004  318D   	fcall	__Umul8_16
  9511  0F00  0871               	movf	?__Umul8_16+1,w
  9512  0F01  0020               	movlb	0	; select bank0
  9513  0F02  00B4               	movwf	___flmul@temp+1
  9514  0F03  0870               	movf	?__Umul8_16,w
  9515  0F04  00B3               	movwf	___flmul@temp
  9516  0F05                     l3073:
  9517  0F05  0833               	movf	___flmul@temp,w
  9518  0F06  00F9               	movwf	??___flmul
  9519  0F07  0834               	movf	___flmul@temp+1,w
  9520  0F08  00FA               	movwf	??___flmul+1
  9521  0F09  01FB               	clrf	??___flmul+2
  9522  0F0A  01FC               	clrf	??___flmul+3
  9523  0F0B  3008               	movlw	8
  9524  0F0C                     u3815:
  9525  0F0C  35F9               	lslf	??___flmul,f
  9526  0F0D  0DFA               	rlf	??___flmul+1,f
  9527  0F0E  0DFB               	rlf	??___flmul+2,f
  9528  0F0F  0DFC               	rlf	??___flmul+3,f
  9529  0F10                     u3810:
  9530  0F10  0B89               	decfsz	9,f
  9531  0F11  2F0C               	goto	u3815
  9532  0F12  0879               	movf	??___flmul,w
  9533  0F13  07AF               	addwf	___flmul@prod,f
  9534  0F14  087A               	movf	??___flmul+1,w
  9535  0F15  3DB0               	addwfc	___flmul@prod+1,f
  9536  0F16  087B               	movf	??___flmul+2,w
  9537  0F17  3DB1               	addwfc	___flmul@prod+2,f
  9538  0F18  087C               	movf	??___flmul+3,w
  9539  0F19  3DB2               	addwfc	___flmul@prod+3,f
  9540  0F1A                     l3075:
  9541  0F1A  0829               	movf	___flmul@grs,w
  9542  0F1B  00F9               	movwf	??___flmul
  9543  0F1C  082A               	movf	___flmul@grs+1,w
  9544  0F1D  00FA               	movwf	??___flmul+1
  9545  0F1E  082B               	movf	___flmul@grs+2,w
  9546  0F1F  00FB               	movwf	??___flmul+2
  9547  0F20  082C               	movf	___flmul@grs+3,w
  9548  0F21  00FC               	movwf	??___flmul+3
  9549  0F22  3018               	movlw	24
  9550  0F23                     u3825:
  9551  0F23  36FC               	lsrf	??___flmul+3,f
  9552  0F24  0CFB               	rrf	??___flmul+2,f
  9553  0F25  0CFA               	rrf	??___flmul+1,f
  9554  0F26  0CF9               	rrf	??___flmul,f
  9555  0F27                     u3820:
  9556  0F27  0B89               	decfsz	9,f
  9557  0F28  2F23               	goto	u3825
  9558  0F29  0879               	movf	??___flmul,w
  9559  0F2A  07AF               	addwf	___flmul@prod,f
  9560  0F2B  087A               	movf	??___flmul+1,w
  9561  0F2C  3DB0               	addwfc	___flmul@prod+1,f
  9562  0F2D  087B               	movf	??___flmul+2,w
  9563  0F2E  3DB1               	addwfc	___flmul@prod+2,f
  9564  0F2F  087C               	movf	??___flmul+3,w
  9565  0F30  3DB2               	addwfc	___flmul@prod+3,f
  9566  0F31                     l3077:
  9567  0F31  3008               	movlw	8
  9568  0F32                     u3835:
  9569  0F32  35A9               	lslf	___flmul@grs,f
  9570  0F33  0DAA               	rlf	___flmul@grs+1,f
  9571  0F34  0DAB               	rlf	___flmul@grs+2,f
  9572  0F35  0DAC               	rlf	___flmul@grs+3,f
  9573  0F36  0B89               	decfsz	9,f
  9574  0F37  2F32               	goto	u3835
  9575  0F38                     l3079:
  9576  0F38  082E               	movf	___flmul@bexp,w
  9577  0F39  072D               	addwf	___flmul@aexp,w
  9578  0F3A  00F9               	movwf	??___flmul
  9579  0F3B  01FA               	clrf	??___flmul+1
  9580  0F3C  0DFA               	rlf	??___flmul+1,f
  9581  0F3D  0879               	movf	??___flmul,w
  9582  0F3E  3E82               	addlw	130
  9583  0F3F  00B3               	movwf	___flmul@temp
  9584  0F40  30FF               	movlw	255
  9585  0F41  3D7A               	addwfc	??___flmul+1,w
  9586  0F42  00B4               	movwf	___flmul@temp+1
  9587  0F43  2F5B               	goto	l3091
  9588  0F44                     l3081:
  9589  0F44  3001               	movlw	1
  9590  0F45                     u3845:
  9591  0F45  35AF               	lslf	___flmul@prod,f
  9592  0F46  0DB0               	rlf	___flmul@prod+1,f
  9593  0F47  0DB1               	rlf	___flmul@prod+2,f
  9594  0F48  0DB2               	rlf	___flmul@prod+3,f
  9595  0F49  0B89               	decfsz	9,f
  9596  0F4A  2F45               	goto	u3845
  9597  0F4B                     l3083:
  9598  0F4B  1FAC               	btfss	___flmul@grs+3,7
  9599  0F4C  2F4E               	goto	u3851
  9600  0F4D  2F4F               	goto	u3850
  9601  0F4E                     u3851:
  9602  0F4E  2F50               	goto	l3087
  9603  0F4F                     u3850:
  9604  0F4F                     l3085:
  9605  0F4F  142F               	bsf	___flmul@prod,0
  9606  0F50                     l3087:
  9607  0F50  3001               	movlw	1
  9608  0F51                     u3865:
  9609  0F51  35A9               	lslf	___flmul@grs,f
  9610  0F52  0DAA               	rlf	___flmul@grs+1,f
  9611  0F53  0DAB               	rlf	___flmul@grs+2,f
  9612  0F54  0DAC               	rlf	___flmul@grs+3,f
  9613  0F55  0B89               	decfsz	9,f
  9614  0F56  2F51               	goto	u3865
  9615  0F57                     l3089:
  9616  0F57  30FF               	movlw	255
  9617  0F58  07B3               	addwf	___flmul@temp,f
  9618  0F59  30FF               	movlw	255
  9619  0F5A  3DB4               	addwfc	___flmul@temp+1,f
  9620  0F5B                     l3091:
  9621  0F5B  1FB1               	btfss	___flmul@prod+2,7
  9622  0F5C  2F5E               	goto	u3871
  9623  0F5D  2F5F               	goto	u3870
  9624  0F5E                     u3871:
  9625  0F5E  2F44               	goto	l3081
  9626  0F5F                     u3870:
  9627  0F5F                     l3093:
  9628  0F5F  01AD               	clrf	___flmul@aexp
  9629  0F60                     l3095:
  9630  0F60  1FAC               	btfss	___flmul@grs+3,7
  9631  0F61  2F63               	goto	u3881
  9632  0F62  2F64               	goto	u3880
  9633  0F63                     u3881:
  9634  0F63  2F80               	goto	l3103
  9635  0F64                     u3880:
  9636  0F64                     l3097:
  9637  0F64  30FF               	movlw	255
  9638  0F65  0529               	andwf	___flmul@grs,w
  9639  0F66  00F9               	movwf	??___flmul
  9640  0F67  30FF               	movlw	255
  9641  0F68  052A               	andwf	___flmul@grs+1,w
  9642  0F69  00FA               	movwf	??___flmul+1
  9643  0F6A  30FF               	movlw	255
  9644  0F6B  052B               	andwf	___flmul@grs+2,w
  9645  0F6C  00FB               	movwf	??___flmul+2
  9646  0F6D  307F               	movlw	127
  9647  0F6E  052C               	andwf	___flmul@grs+3,w
  9648  0F6F  00FC               	movwf	??___flmul+3
  9649  0F70  087C               	movf	??___flmul+3,w
  9650  0F71  047B               	iorwf	??___flmul+2,w
  9651  0F72  047A               	iorwf	??___flmul+1,w
  9652  0F73  0479               	iorwf	??___flmul,w
  9653  0F74  1903               	skipnz
  9654  0F75  2F77               	goto	u3891
  9655  0F76  2F78               	goto	u3890
  9656  0F77                     u3891:
  9657  0F77  2F7B               	goto	l753
  9658  0F78                     u3890:
  9659  0F78                     l3099:
  9660  0F78  01AD               	clrf	___flmul@aexp
  9661  0F79  0AAD               	incf	___flmul@aexp,f
  9662  0F7A  2F80               	goto	l3103
  9663  0F7B                     l753:
  9664  0F7B  1C2F               	btfss	___flmul@prod,0
  9665  0F7C  2F7E               	goto	u3901
  9666  0F7D  2F7F               	goto	u3900
  9667  0F7E                     u3901:
  9668  0F7E  2F80               	goto	l3103
  9669  0F7F                     u3900:
  9670  0F7F  2F78               	goto	l3099
  9671  0F80                     l3103:
  9672  0F80  082D               	movf	___flmul@aexp,w
  9673  0F81  1903               	btfsc	3,2
  9674  0F82  2F84               	goto	u3911
  9675  0F83  2F85               	goto	u3910
  9676  0F84                     u3911:
  9677  0F84  2FAD               	goto	l3113
  9678  0F85                     u3910:
  9679  0F85                     l3105:
  9680  0F85  3001               	movlw	1
  9681  0F86  07AF               	addwf	___flmul@prod,f
  9682  0F87  3000               	movlw	0
  9683  0F88  3DB0               	addwfc	___flmul@prod+1,f
  9684  0F89  3000               	movlw	0
  9685  0F8A  3DB1               	addwfc	___flmul@prod+2,f
  9686  0F8B  3000               	movlw	0
  9687  0F8C  3DB2               	addwfc	___flmul@prod+3,f
  9688  0F8D                     l3107:
  9689  0F8D  1C32               	btfss	___flmul@prod+3,0
  9690  0F8E  2F90               	goto	u3921
  9691  0F8F  2F91               	goto	u3920
  9692  0F90                     u3921:
  9693  0F90  2FAD               	goto	l3113
  9694  0F91                     u3920:
  9695  0F91                     l3109:
  9696  0F91  082F               	movf	___flmul@prod,w
  9697  0F92  00F9               	movwf	??___flmul
  9698  0F93  0830               	movf	___flmul@prod+1,w
  9699  0F94  00FA               	movwf	??___flmul+1
  9700  0F95  0831               	movf	___flmul@prod+2,w
  9701  0F96  00FB               	movwf	??___flmul+2
  9702  0F97  0832               	movf	___flmul@prod+3,w
  9703  0F98  00FC               	movwf	??___flmul+3
  9704  0F99  3001               	movlw	1
  9705  0F9A  00FD               	movwf	??___flmul+4
  9706  0F9B                     u3935:
  9707  0F9B  37FC               	asrf	??___flmul+3,f
  9708  0F9C  0CFB               	rrf	??___flmul+2,f
  9709  0F9D  0CFA               	rrf	??___flmul+1,f
  9710  0F9E  0CF9               	rrf	??___flmul,f
  9711  0F9F                     u3930:
  9712  0F9F  0BFD               	decfsz	??___flmul+4,f
  9713  0FA0  2F9B               	goto	u3935
  9714  0FA1  087C               	movf	??___flmul+3,w
  9715  0FA2  00B2               	movwf	___flmul@prod+3
  9716  0FA3  087B               	movf	??___flmul+2,w
  9717  0FA4  00B1               	movwf	___flmul@prod+2
  9718  0FA5  087A               	movf	??___flmul+1,w
  9719  0FA6  00B0               	movwf	___flmul@prod+1
  9720  0FA7  0879               	movf	??___flmul,w
  9721  0FA8  00AF               	movwf	___flmul@prod
  9722  0FA9                     l3111:
  9723  0FA9  3001               	movlw	1
  9724  0FAA  07B3               	addwf	___flmul@temp,f
  9725  0FAB  3000               	movlw	0
  9726  0FAC  3DB4               	addwfc	___flmul@temp+1,f
  9727  0FAD                     l3113:
  9728  0FAD  0834               	movf	___flmul@temp+1,w
  9729  0FAE  3A80               	xorlw	128
  9730  0FAF  00F9               	movwf	??___flmul
  9731  0FB0  3080               	movlw	128
  9732  0FB1  0279               	subwf	??___flmul,w
  9733  0FB2  1D03               	skipz
  9734  0FB3  2FB6               	goto	u3945
  9735  0FB4  30FF               	movlw	255
  9736  0FB5  0233               	subwf	___flmul@temp,w
  9737  0FB6                     u3945:
  9738  0FB6  1C03               	skipc
  9739  0FB7  2FB9               	goto	u3941
  9740  0FB8  2FBA               	goto	u3940
  9741  0FB9                     u3941:
  9742  0FB9  2FC4               	goto	l3117
  9743  0FBA                     u3940:
  9744  0FBA                     l3115:
  9745  0FBA  307F               	movlw	127
  9746  0FBB  0020               	movlb	0	; select bank0
  9747  0FBC  00B2               	movwf	___flmul@prod+3
  9748  0FBD  3080               	movlw	128
  9749  0FBE  00B1               	movwf	___flmul@prod+2
  9750  0FBF  3000               	movlw	0
  9751  0FC0  00B0               	movwf	___flmul@prod+1
  9752  0FC1  3000               	movlw	0
  9753  0FC2  00AF               	movwf	___flmul@prod
  9754  0FC3  2FF3               	goto	l759
  9755  0FC4                     l3117:
  9756  0FC4  0020               	movlb	0	; select bank0
  9757  0FC5  0834               	movf	___flmul@temp+1,w
  9758  0FC6  3A80               	xorlw	128
  9759  0FC7  00F9               	movwf	??___flmul
  9760  0FC8  3080               	movlw	128
  9761  0FC9  0279               	subwf	??___flmul,w
  9762  0FCA  1D03               	skipz
  9763  0FCB  2FCE               	goto	u3955
  9764  0FCC  3001               	movlw	1
  9765  0FCD  0233               	subwf	___flmul@temp,w
  9766  0FCE                     u3955:
  9767  0FCE  1803               	skipnc
  9768  0FCF  2FD1               	goto	u3951
  9769  0FD0  2FD2               	goto	u3950
  9770  0FD1                     u3951:
  9771  0FD1  2FDD               	goto	l3123
  9772  0FD2                     u3950:
  9773  0FD2                     l3119:
  9774  0FD2  3000               	movlw	0
  9775  0FD3  0020               	movlb	0	; select bank0
  9776  0FD4  00B2               	movwf	___flmul@prod+3
  9777  0FD5  3000               	movlw	0
  9778  0FD6  00B1               	movwf	___flmul@prod+2
  9779  0FD7  3000               	movlw	0
  9780  0FD8  00B0               	movwf	___flmul@prod+1
  9781  0FD9  3000               	movlw	0
  9782  0FDA  00AF               	movwf	___flmul@prod
  9783  0FDB                     l3121:
  9784  0FDB  01A8               	clrf	___flmul@sign
  9785  0FDC  2FF3               	goto	l759
  9786  0FDD                     l3123:
  9787  0FDD  0020               	movlb	0	; select bank0
  9788  0FDE  0833               	movf	___flmul@temp,w
  9789  0FDF  00F9               	movwf	??___flmul
  9790  0FE0  0879               	movf	??___flmul,w
  9791  0FE1  00AE               	movwf	___flmul@bexp
  9792  0FE2  30FF               	movlw	255
  9793  0FE3  05AF               	andwf	___flmul@prod,f
  9794  0FE4  30FF               	movlw	255
  9795  0FE5  05B0               	andwf	___flmul@prod+1,f
  9796  0FE6  307F               	movlw	127
  9797  0FE7  05B1               	andwf	___flmul@prod+2,f
  9798  0FE8  3000               	movlw	0
  9799  0FE9  05B2               	andwf	___flmul@prod+3,f
  9800  0FEA                     l3125:
  9801  0FEA  1C2E               	btfss	___flmul@bexp,0
  9802  0FEB  2FED               	goto	u3961
  9803  0FEC  2FEE               	goto	u3960
  9804  0FED                     u3961:
  9805  0FED  2FEF               	goto	l3129
  9806  0FEE                     u3960:
  9807  0FEE                     l3127:
  9808  0FEE  17B1               	bsf	___flmul@prod+2,7
  9809  0FEF                     l3129:
  9810  0FEF  362E               	lsrf	___flmul@bexp,w
  9811  0FF0  00F9               	movwf	??___flmul
  9812  0FF1  0879               	movf	??___flmul,w
  9813  0FF2  00B2               	movwf	___flmul@prod+3
  9814  0FF3                     l759:
  9815  0FF3  0828               	movf	___flmul@sign,w
  9816  0FF4  00F9               	movwf	??___flmul
  9817  0FF5  0879               	movf	??___flmul,w
  9818  0FF6  04B2               	iorwf	___flmul@prod+3,f
  9819  0FF7                     l3131:
  9820  0FF7  0832               	movf	___flmul@prod+3,w
  9821  0FF8  00A3               	movwf	?___flmul+3
  9822  0FF9  0831               	movf	___flmul@prod+2,w
  9823  0FFA  00A2               	movwf	?___flmul+2
  9824  0FFB  0830               	movf	___flmul@prod+1,w
  9825  0FFC  00A1               	movwf	?___flmul+1
  9826  0FFD  082F               	movf	___flmul@prod,w
  9827  0FFE  00A0               	movwf	?___flmul
  9828  0FFF                     l747:
  9829  0FFF  0008               	return
  9830  1000                     __end_of___flmul:
  9831                           
  9832                           	psect	text30
  9833  0004                     __ptext30:	
  9834 ;; *************** function __Umul8_16 *****************
  9835 ;; Defined at:
  9836 ;;		line 4 in file "C:\Program Files\Microchip\xc8\v2.31\pic\sources\c99\common\Umul8_16.c"
  9837 ;; Parameters:    Size  Location     Type
  9838 ;;  multiplier      1    wreg     unsigned char 
  9839 ;;  multiplicand    1    0[COMMON] unsigned char 
  9840 ;; Auto vars:     Size  Location     Type
  9841 ;;  multiplier      1    8[COMMON] unsigned char 
  9842 ;;  word_mpld       2    6[COMMON] unsigned int 
  9843 ;;  product         2    4[COMMON] unsigned int 
  9844 ;; Return value:  Size  Location     Type
  9845 ;;                  2    0[COMMON] unsigned int 
  9846 ;; Registers used:
  9847 ;;		wreg, status,2, status,0
  9848 ;; Tracked objects:
  9849 ;;		On entry : 0/0
  9850 ;;		On exit  : 0/0
  9851 ;;		Unchanged: 0/0
  9852 ;; Data sizes:     COMMON   BANK0   BANK1   BANK2   BANK3   BANK4   BANK5   BANK6   BANK7   BANK8   BANK9  BANK10  BANK1
      +1  BANK12
  9853 ;;      Params:         2       0       0       0       0       0       0       0       0       0       0       0       
      +0       0
  9854 ;;      Locals:         5       0       0       0       0       0       0       0       0       0       0       0       
      +0       0
  9855 ;;      Temps:          2       0       0       0       0       0       0       0       0       0       0       0       
      +0       0
  9856 ;;      Totals:         9       0       0       0       0       0       0       0       0       0       0       0       
      +0       0
  9857 ;;Total ram usage:        9 bytes
  9858 ;; Hardware stack levels used:    1
  9859 ;; This function calls:
  9860 ;;		Nothing
  9861 ;; This function is called by:
  9862 ;;		___flmul
  9863 ;; This function uses a non-reentrant model
  9864 ;;
  9865                           
  9866                           
  9867                           ;psect for function __Umul8_16
  9868  0004                     __Umul8_16:
  9869                           
  9870                           ;incstack = 0
  9871                           ; Regs used in __Umul8_16: [wreg+status,2+status,0]
  9872                           ;__Umul8_16@multiplier stored from wreg
  9873  0004  00F8               	movwf	__Umul8_16@multiplier
  9874  0005                     l2655:
  9875  0005  01F4               	clrf	__Umul8_16@product
  9876  0006  01F5               	clrf	__Umul8_16@product+1
  9877  0007                     l2657:
  9878  0007  0870               	movf	__Umul8_16@multiplicand,w
  9879  0008  00F2               	movwf	??__Umul8_16
  9880  0009  01F3               	clrf	??__Umul8_16+1
  9881  000A  0872               	movf	??__Umul8_16,w
  9882  000B  00F6               	movwf	__Umul8_16@word_mpld
  9883  000C  0873               	movf	??__Umul8_16+1,w
  9884  000D  00F7               	movwf	__Umul8_16@word_mpld+1
  9885  000E                     l2659:
  9886  000E  1C78               	btfss	__Umul8_16@multiplier,0
  9887  000F  2811               	goto	u2971
  9888  0010  2812               	goto	u2970
  9889  0011                     u2971:
  9890  0011  2816               	goto	l766
  9891  0012                     u2970:
  9892  0012                     l2661:
  9893  0012  0876               	movf	__Umul8_16@word_mpld,w
  9894  0013  07F4               	addwf	__Umul8_16@product,f
  9895  0014  0877               	movf	__Umul8_16@word_mpld+1,w
  9896  0015  3DF5               	addwfc	__Umul8_16@product+1,f
  9897  0016                     l766:
  9898  0016  3001               	movlw	1
  9899  0017                     u2985:
  9900  0017  35F6               	lslf	__Umul8_16@word_mpld,f
  9901  0018  0DF7               	rlf	__Umul8_16@word_mpld+1,f
  9902  0019  0B89               	decfsz	9,f
  9903  001A  2817               	goto	u2985
  9904  001B  1003               	clrc
  9905  001C  0CF8               	rrf	__Umul8_16@multiplier,f
  9906  001D                     l2663:
  9907  001D  0878               	movf	__Umul8_16@multiplier,w
  9908  001E  1D03               	btfss	3,2
  9909  001F  2821               	goto	u2991
  9910  0020  2822               	goto	u2990
  9911  0021                     u2991:
  9912  0021  280E               	goto	l2659
  9913  0022                     u2990:
  9914  0022                     l2665:
  9915  0022  0875               	movf	__Umul8_16@product+1,w
  9916  0023  00F1               	movwf	?__Umul8_16+1
  9917  0024  0874               	movf	__Umul8_16@product,w
  9918  0025  00F0               	movwf	?__Umul8_16
  9919  0026                     l768:
  9920  0026  0008               	return
  9921  0027                     __end_of__Umul8_16:
  9922                           
  9923                           	psect	text31
  9924  168A                     __ptext31:	
  9925 ;; *************** function ___flge *****************
  9926 ;; Defined at:
  9927 ;;		line 4 in file "C:\Program Files\Microchip\xc8\v2.31\pic\sources\c99\common\flge.c"
  9928 ;; Parameters:    Size  Location     Type
  9929 ;;  ff1             4   21[BANK0 ] unsigned int 
  9930 ;;  ff2             4   25[BANK0 ] unsigned int 
  9931 ;; Auto vars:     Size  Location     Type
  9932 ;;		None
  9933 ;; Return value:  Size  Location     Type
  9934 ;;		None               void
  9935 ;; Registers used:
  9936 ;;		wreg, status,2, status,0
  9937 ;; Tracked objects:
  9938 ;;		On entry : 0/0
  9939 ;;		On exit  : 0/0
  9940 ;;		Unchanged: 0/0
  9941 ;; Data sizes:     COMMON   BANK0   BANK1   BANK2   BANK3   BANK4   BANK5   BANK6   BANK7   BANK8   BANK9  BANK10  BANK1
      +1  BANK12
  9942 ;;      Params:         0       8       0       0       0       0       0       0       0       0       0       0       
      +0       0
  9943 ;;      Locals:         0       0       0       0       0       0       0       0       0       0       0       0       
      +0       0
  9944 ;;      Temps:          0       4       0       0       0       0       0       0       0       0       0       0       
      +0       0
  9945 ;;      Totals:         0      12       0       0       0       0       0       0       0       0       0       0       
      +0       0
  9946 ;;Total ram usage:       12 bytes
  9947 ;; Hardware stack levels used:    1
  9948 ;; This function calls:
  9949 ;;		Nothing
  9950 ;; This function is called by:
  9951 ;;		_efgtoa
  9952 ;; This function uses a non-reentrant model
  9953 ;;
  9954                           
  9955                           
  9956                           ;psect for function ___flge
  9957  168A                     ___flge:
  9958  168A                     l2785:	
  9959                           ;incstack = 0
  9960                           ; Regs used in ___flge: [wreg+status,2+status,0]
  9961                           
  9962  168A  3000               	movlw	0
  9963  168B  0020               	movlb	0	; select bank0
  9964  168C  0535               	andwf	___flge@ff1,w
  9965  168D  00BD               	movwf	??___flge
  9966  168E  3000               	movlw	0
  9967  168F  0536               	andwf	___flge@ff1+1,w
  9968  1690  00BE               	movwf	??___flge+1
  9969  1691  3080               	movlw	128
  9970  1692  0537               	andwf	___flge@ff1+2,w
  9971  1693  00BF               	movwf	??___flge+2
  9972  1694  307F               	movlw	127
  9973  1695  0538               	andwf	___flge@ff1+3,w
  9974  1696  00C0               	movwf	??___flge+3
  9975  1697  0840               	movf	??___flge+3,w
  9976  1698  043F               	iorwf	??___flge+2,w
  9977  1699  043E               	iorwf	??___flge+1,w
  9978  169A  043D               	iorwf	??___flge,w
  9979  169B  1D03               	skipz
  9980  169C  2E9E               	goto	u3261
  9981  169D  2E9F               	goto	u3260
  9982  169E                     u3261:
  9983  169E  2EA7               	goto	l528
  9984  169F                     u3260:
  9985  169F                     l2787:
  9986  169F  3000               	movlw	0
  9987  16A0  00B8               	movwf	___flge@ff1+3
  9988  16A1  3000               	movlw	0
  9989  16A2  00B7               	movwf	___flge@ff1+2
  9990  16A3  3000               	movlw	0
  9991  16A4  00B6               	movwf	___flge@ff1+1
  9992  16A5  3000               	movlw	0
  9993  16A6  00B5               	movwf	___flge@ff1
  9994  16A7                     l528:
  9995  16A7  3000               	movlw	0
  9996  16A8  0539               	andwf	___flge@ff2,w
  9997  16A9  00BD               	movwf	??___flge
  9998  16AA  3000               	movlw	0
  9999  16AB  053A               	andwf	___flge@ff2+1,w
 10000  16AC  00BE               	movwf	??___flge+1
 10001  16AD  3080               	movlw	128
 10002  16AE  053B               	andwf	___flge@ff2+2,w
 10003  16AF  00BF               	movwf	??___flge+2
 10004  16B0  307F               	movlw	127
 10005  16B1  053C               	andwf	___flge@ff2+3,w
 10006  16B2  00C0               	movwf	??___flge+3
 10007  16B3  0840               	movf	??___flge+3,w
 10008  16B4  043F               	iorwf	??___flge+2,w
 10009  16B5  043E               	iorwf	??___flge+1,w
 10010  16B6  043D               	iorwf	??___flge,w
 10011  16B7  1D03               	skipz
 10012  16B8  2EBA               	goto	u3271
 10013  16B9  2EBB               	goto	u3270
 10014  16BA                     u3271:
 10015  16BA  2EC3               	goto	l2791
 10016  16BB                     u3270:
 10017  16BB                     l2789:
 10018  16BB  3000               	movlw	0
 10019  16BC  00BC               	movwf	___flge@ff2+3
 10020  16BD  3000               	movlw	0
 10021  16BE  00BB               	movwf	___flge@ff2+2
 10022  16BF  3000               	movlw	0
 10023  16C0  00BA               	movwf	___flge@ff2+1
 10024  16C1  3000               	movlw	0
 10025  16C2  00B9               	movwf	___flge@ff2
 10026  16C3                     l2791:
 10027  16C3  1FB8               	btfss	___flge@ff1+3,7
 10028  16C4  2EC6               	goto	u3281
 10029  16C5  2EC7               	goto	u3280
 10030  16C6                     u3281:
 10031  16C6  2EDF               	goto	l2795
 10032  16C7                     u3280:
 10033  16C7                     l2793:
 10034  16C7  3000               	movlw	0
 10035  16C8  00BD               	movwf	??___flge
 10036  16C9  3000               	movlw	0
 10037  16CA  00BE               	movwf	??___flge+1
 10038  16CB  3000               	movlw	0
 10039  16CC  00BF               	movwf	??___flge+2
 10040  16CD  3080               	movlw	128
 10041  16CE  00C0               	movwf	??___flge+3
 10042  16CF  0835               	movf	___flge@ff1,w
 10043  16D0  02BD               	subwf	??___flge,f
 10044  16D1  0836               	movf	___flge@ff1+1,w
 10045  16D2  3BBE               	subwfb	??___flge+1,f
 10046  16D3  0837               	movf	___flge@ff1+2,w
 10047  16D4  3BBF               	subwfb	??___flge+2,f
 10048  16D5  0838               	movf	___flge@ff1+3,w
 10049  16D6  3BC0               	subwfb	??___flge+3,f
 10050  16D7  0840               	movf	??___flge+3,w
 10051  16D8  00B8               	movwf	___flge@ff1+3
 10052  16D9  083F               	movf	??___flge+2,w
 10053  16DA  00B7               	movwf	___flge@ff1+2
 10054  16DB  083E               	movf	??___flge+1,w
 10055  16DC  00B6               	movwf	___flge@ff1+1
 10056  16DD  083D               	movf	??___flge,w
 10057  16DE  00B5               	movwf	___flge@ff1
 10058  16DF                     l2795:
 10059  16DF  1FBC               	btfss	___flge@ff2+3,7
 10060  16E0  2EE2               	goto	u3291
 10061  16E1  2EE3               	goto	u3290
 10062  16E2                     u3291:
 10063  16E2  2EFB               	goto	l531
 10064  16E3                     u3290:
 10065  16E3                     l2797:
 10066  16E3  3000               	movlw	0
 10067  16E4  00BD               	movwf	??___flge
 10068  16E5  3000               	movlw	0
 10069  16E6  00BE               	movwf	??___flge+1
 10070  16E7  3000               	movlw	0
 10071  16E8  00BF               	movwf	??___flge+2
 10072  16E9  3080               	movlw	128
 10073  16EA  00C0               	movwf	??___flge+3
 10074  16EB  0839               	movf	___flge@ff2,w
 10075  16EC  02BD               	subwf	??___flge,f
 10076  16ED  083A               	movf	___flge@ff2+1,w
 10077  16EE  3BBE               	subwfb	??___flge+1,f
 10078  16EF  083B               	movf	___flge@ff2+2,w
 10079  16F0  3BBF               	subwfb	??___flge+2,f
 10080  16F1  083C               	movf	___flge@ff2+3,w
 10081  16F2  3BC0               	subwfb	??___flge+3,f
 10082  16F3  0840               	movf	??___flge+3,w
 10083  16F4  00BC               	movwf	___flge@ff2+3
 10084  16F5  083F               	movf	??___flge+2,w
 10085  16F6  00BB               	movwf	___flge@ff2+2
 10086  16F7  083E               	movf	??___flge+1,w
 10087  16F8  00BA               	movwf	___flge@ff2+1
 10088  16F9  083D               	movf	??___flge,w
 10089  16FA  00B9               	movwf	___flge@ff2
 10090  16FB                     l531:
 10091  16FB  3080               	movlw	128
 10092  16FC  06B8               	xorwf	___flge@ff1+3,f
 10093  16FD  3080               	movlw	128
 10094  16FE  06BC               	xorwf	___flge@ff2+3,f
 10095  16FF  083C               	movf	___flge@ff2+3,w
 10096  1700  0238               	subwf	___flge@ff1+3,w
 10097  1701  1D03               	skipz
 10098  1702  2F0D               	goto	u3305
 10099  1703  083B               	movf	___flge@ff2+2,w
 10100  1704  0237               	subwf	___flge@ff1+2,w
 10101  1705  1D03               	skipz
 10102  1706  2F0D               	goto	u3305
 10103  1707  083A               	movf	___flge@ff2+1,w
 10104  1708  0236               	subwf	___flge@ff1+1,w
 10105  1709  1D03               	skipz
 10106  170A  2F0D               	goto	u3305
 10107  170B  0839               	movf	___flge@ff2,w
 10108  170C  0235               	subwf	___flge@ff1,w
 10109  170D                     u3305:
 10110  170D  1803               	skipnc
 10111  170E  2F10               	goto	u3301
 10112  170F  2F11               	goto	u3300
 10113  1710                     u3301:
 10114  1710  2F13               	goto	l2801
 10115  1711                     u3300:
 10116  1711                     l2799:
 10117  1711  1003               	clrc
 10118  1712  2F14               	goto	l536
 10119  1713                     l2801:
 10120  1713  1403               	setc
 10121  1714                     l536:
 10122  1714  0008               	return
 10123  1715                     __end_of___flge:
 10124                           
 10125                           	psect	text32
 10126  13E6                     __ptext32:	
 10127 ;; *************** function ___fleq *****************
 10128 ;; Defined at:
 10129 ;;		line 4 in file "C:\Program Files\Microchip\xc8\v2.31\pic\sources\c99\common\fleq.c"
 10130 ;; Parameters:    Size  Location     Type
 10131 ;;  ff1             4    0[COMMON] unsigned int 
 10132 ;;  ff2             4    4[COMMON] unsigned int 
 10133 ;; Auto vars:     Size  Location     Type
 10134 ;;		None
 10135 ;; Return value:  Size  Location     Type
 10136 ;;		None               void
 10137 ;; Registers used:
 10138 ;;		wreg, status,2, status,0
 10139 ;; Tracked objects:
 10140 ;;		On entry : 0/0
 10141 ;;		On exit  : 0/0
 10142 ;;		Unchanged: 0/0
 10143 ;; Data sizes:     COMMON   BANK0   BANK1   BANK2   BANK3   BANK4   BANK5   BANK6   BANK7   BANK8   BANK9  BANK10  BANK1
      +1  BANK12
 10144 ;;      Params:         8       0       0       0       0       0       0       0       0       0       0       0       
      +0       0
 10145 ;;      Locals:         0       0       0       0       0       0       0       0       0       0       0       0       
      +0       0
 10146 ;;      Temps:          4       0       0       0       0       0       0       0       0       0       0       0       
      +0       0
 10147 ;;      Totals:        12       0       0       0       0       0       0       0       0       0       0       0       
      +0       0
 10148 ;;Total ram usage:       12 bytes
 10149 ;; Hardware stack levels used:    1
 10150 ;; This function calls:
 10151 ;;		Nothing
 10152 ;; This function is called by:
 10153 ;;		_efgtoa
 10154 ;; This function uses a non-reentrant model
 10155 ;;
 10156                           
 10157                           
 10158                           ;psect for function ___fleq
 10159  13E6                     ___fleq:
 10160  13E6                     l2773:	
 10161                           ;incstack = 0
 10162                           ; Regs used in ___fleq: [wreg+status,2+status,0]
 10163                           
 10164  13E6  3000               	movlw	0
 10165  13E7  0570               	andwf	___fleq@ff1,w
 10166  13E8  00F8               	movwf	??___fleq
 10167  13E9  3000               	movlw	0
 10168  13EA  0571               	andwf	___fleq@ff1+1,w
 10169  13EB  00F9               	movwf	??___fleq+1
 10170  13EC  3080               	movlw	128
 10171  13ED  0572               	andwf	___fleq@ff1+2,w
 10172  13EE  00FA               	movwf	??___fleq+2
 10173  13EF  307F               	movlw	127
 10174  13F0  0573               	andwf	___fleq@ff1+3,w
 10175  13F1  00FB               	movwf	??___fleq+3
 10176  13F2  087B               	movf	??___fleq+3,w
 10177  13F3  047A               	iorwf	??___fleq+2,w
 10178  13F4  0479               	iorwf	??___fleq+1,w
 10179  13F5  0478               	iorwf	??___fleq,w
 10180  13F6  1D03               	skipz
 10181  13F7  2BF9               	goto	u3231
 10182  13F8  2BFA               	goto	u3230
 10183  13F9                     u3231:
 10184  13F9  2C02               	goto	l519
 10185  13FA                     u3230:
 10186  13FA                     l2775:
 10187  13FA  3000               	movlw	0
 10188  13FB  00F3               	movwf	___fleq@ff1+3
 10189  13FC  3000               	movlw	0
 10190  13FD  00F2               	movwf	___fleq@ff1+2
 10191  13FE  3000               	movlw	0
 10192  13FF  00F1               	movwf	___fleq@ff1+1
 10193  1400  3000               	movlw	0
 10194  1401  00F0               	movwf	___fleq@ff1
 10195  1402                     l519:
 10196  1402  3000               	movlw	0
 10197  1403  0574               	andwf	___fleq@ff2,w
 10198  1404  00F8               	movwf	??___fleq
 10199  1405  3000               	movlw	0
 10200  1406  0575               	andwf	___fleq@ff2+1,w
 10201  1407  00F9               	movwf	??___fleq+1
 10202  1408  3080               	movlw	128
 10203  1409  0576               	andwf	___fleq@ff2+2,w
 10204  140A  00FA               	movwf	??___fleq+2
 10205  140B  307F               	movlw	127
 10206  140C  0577               	andwf	___fleq@ff2+3,w
 10207  140D  00FB               	movwf	??___fleq+3
 10208  140E  087B               	movf	??___fleq+3,w
 10209  140F  047A               	iorwf	??___fleq+2,w
 10210  1410  0479               	iorwf	??___fleq+1,w
 10211  1411  0478               	iorwf	??___fleq,w
 10212  1412  1D03               	skipz
 10213  1413  2C15               	goto	u3241
 10214  1414  2C16               	goto	u3240
 10215  1415                     u3241:
 10216  1415  2C1E               	goto	l520
 10217  1416                     u3240:
 10218  1416                     l2777:
 10219  1416  3000               	movlw	0
 10220  1417  00F7               	movwf	___fleq@ff2+3
 10221  1418  3000               	movlw	0
 10222  1419  00F6               	movwf	___fleq@ff2+2
 10223  141A  3000               	movlw	0
 10224  141B  00F5               	movwf	___fleq@ff2+1
 10225  141C  3000               	movlw	0
 10226  141D  00F4               	movwf	___fleq@ff2
 10227  141E                     l520:
 10228  141E  0877               	movf	___fleq@ff2+3,w
 10229  141F  0673               	xorwf	___fleq@ff1+3,w
 10230  1420  1D03               	skipz
 10231  1421  2C2C               	goto	u3255
 10232  1422  0876               	movf	___fleq@ff2+2,w
 10233  1423  0672               	xorwf	___fleq@ff1+2,w
 10234  1424  1D03               	skipz
 10235  1425  2C2C               	goto	u3255
 10236  1426  0875               	movf	___fleq@ff2+1,w
 10237  1427  0671               	xorwf	___fleq@ff1+1,w
 10238  1428  1D03               	skipz
 10239  1429  2C2C               	goto	u3255
 10240  142A  0874               	movf	___fleq@ff2,w
 10241  142B  0670               	xorwf	___fleq@ff1,w
 10242  142C                     u3255:
 10243  142C  1903               	skipnz
 10244  142D  2C2F               	goto	u3251
 10245  142E  2C30               	goto	u3250
 10246  142F                     u3251:
 10247  142F  2C32               	goto	l2781
 10248  1430                     u3250:
 10249  1430                     l2779:
 10250  1430  1003               	clrc
 10251  1431  2C33               	goto	l525
 10252  1432                     l2781:
 10253  1432  1403               	setc
 10254  1433                     l525:
 10255  1433  0008               	return
 10256  1434                     __end_of___fleq:
 10257                           
 10258                           	psect	text33
 10259  09B6                     __ptext33:	
 10260 ;; *************** function ___fldiv *****************
 10261 ;; Defined at:
 10262 ;;		line 8 in file "C:\Program Files\Microchip\xc8\v2.31\pic\sources\c99\common\sprcdiv.c"
 10263 ;; Parameters:    Size  Location     Type
 10264 ;;  a               4    0[COMMON] unsigned int 
 10265 ;;  b               4    4[COMMON] unsigned int 
 10266 ;; Auto vars:     Size  Location     Type
 10267 ;;  grs             4    7[BANK0 ] unsigned long 
 10268 ;;  rem             4    0[BANK0 ] unsigned long 
 10269 ;;  new_exp         2    5[BANK0 ] int 
 10270 ;;  aexp            1   12[BANK0 ] unsigned char 
 10271 ;;  bexp            1   11[BANK0 ] unsigned char 
 10272 ;;  sign            1    4[BANK0 ] unsigned char 
 10273 ;; Return value:  Size  Location     Type
 10274 ;;                  4    0[COMMON] unsigned char 
 10275 ;; Registers used:
 10276 ;;		wreg, status,2, status,0
 10277 ;; Tracked objects:
 10278 ;;		On entry : 0/0
 10279 ;;		On exit  : 0/0
 10280 ;;		Unchanged: 0/0
 10281 ;; Data sizes:     COMMON   BANK0   BANK1   BANK2   BANK3   BANK4   BANK5   BANK6   BANK7   BANK8   BANK9  BANK10  BANK1
      +1  BANK12
 10282 ;;      Params:         8       0       0       0       0       0       0       0       0       0       0       0       
      +0       0
 10283 ;;      Locals:         0      13       0       0       0       0       0       0       0       0       0       0       
      +0       0
 10284 ;;      Temps:          5       0       0       0       0       0       0       0       0       0       0       0       
      +0       0
 10285 ;;      Totals:        13      13       0       0       0       0       0       0       0       0       0       0       
      +0       0
 10286 ;;Total ram usage:       26 bytes
 10287 ;; Hardware stack levels used:    1
 10288 ;; This function calls:
 10289 ;;		Nothing
 10290 ;; This function is called by:
 10291 ;;		_efgtoa
 10292 ;; This function uses a non-reentrant model
 10293 ;;
 10294                           
 10295                           
 10296                           ;psect for function ___fldiv
 10297  09B6                     ___fldiv:
 10298  09B6                     l2855:	
 10299                           ;incstack = 0
 10300                           ; Regs used in ___fldiv: [wreg+status,2+status,0]
 10301                           
 10302  09B6  0877               	movf	___fldiv@b+3,w
 10303  09B7  3980               	andlw	128
 10304  09B8  00F8               	movwf	??___fldiv
 10305  09B9  0878               	movf	??___fldiv,w
 10306  09BA  0020               	movlb	0	; select bank0
 10307  09BB  00A4               	movwf	___fldiv@sign
 10308  09BC                     l2857:
 10309  09BC  3577               	lslf	___fldiv@b+3,w
 10310  09BD  00F8               	movwf	??___fldiv
 10311  09BE  0878               	movf	??___fldiv,w
 10312  09BF  00AB               	movwf	___fldiv@bexp
 10313  09C0                     l2859:
 10314  09C0  1FF6               	btfss	___fldiv@b+2,7
 10315  09C1  29C3               	goto	u3421
 10316  09C2  29C4               	goto	u3420
 10317  09C3                     u3421:
 10318  09C3  29C5               	goto	l2863
 10319  09C4                     u3420:
 10320  09C4                     l2861:
 10321  09C4  142B               	bsf	___fldiv@bexp,0
 10322  09C5                     l2863:
 10323  09C5  082B               	movf	___fldiv@bexp,w
 10324  09C6  1903               	btfsc	3,2
 10325  09C7  29C9               	goto	u3431
 10326  09C8  29CA               	goto	u3430
 10327  09C9                     u3431:
 10328  09C9  29DA               	goto	l2873
 10329  09CA                     u3430:
 10330  09CA                     l2865:
 10331  09CA  0A2B               	incf	___fldiv@bexp,w
 10332  09CB  1D03               	btfss	3,2
 10333  09CC  29CE               	goto	u3441
 10334  09CD  29CF               	goto	u3440
 10335  09CE                     u3441:
 10336  09CE  29D7               	goto	l2869
 10337  09CF                     u3440:
 10338  09CF                     l2867:
 10339  09CF  3000               	movlw	0
 10340  09D0  00F7               	movwf	___fldiv@b+3
 10341  09D1  3000               	movlw	0
 10342  09D2  00F6               	movwf	___fldiv@b+2
 10343  09D3  3000               	movlw	0
 10344  09D4  00F5               	movwf	___fldiv@b+1
 10345  09D5  3000               	movlw	0
 10346  09D6  00F4               	movwf	___fldiv@b
 10347  09D7                     l2869:
 10348  09D7  17F6               	bsf	___fldiv@b+2,7
 10349  09D8                     l2871:
 10350  09D8  01F7               	clrf	___fldiv@b+3
 10351  09D9  29E2               	goto	l2875
 10352  09DA                     l2873:
 10353  09DA  3000               	movlw	0
 10354  09DB  00F7               	movwf	___fldiv@b+3
 10355  09DC  3000               	movlw	0
 10356  09DD  00F6               	movwf	___fldiv@b+2
 10357  09DE  3000               	movlw	0
 10358  09DF  00F5               	movwf	___fldiv@b+1
 10359  09E0  3000               	movlw	0
 10360  09E1  00F4               	movwf	___fldiv@b
 10361  09E2                     l2875:
 10362  09E2  0873               	movf	___fldiv@a+3,w
 10363  09E3  3980               	andlw	128
 10364  09E4  00F8               	movwf	??___fldiv
 10365  09E5  0878               	movf	??___fldiv,w
 10366  09E6  06A4               	xorwf	___fldiv@sign,f
 10367  09E7                     l2877:
 10368  09E7  3573               	lslf	___fldiv@a+3,w
 10369  09E8  00F8               	movwf	??___fldiv
 10370  09E9  0878               	movf	??___fldiv,w
 10371  09EA  00AC               	movwf	___fldiv@aexp
 10372  09EB                     l2879:
 10373  09EB  1FF2               	btfss	___fldiv@a+2,7
 10374  09EC  29EE               	goto	u3451
 10375  09ED  29EF               	goto	u3450
 10376  09EE                     u3451:
 10377  09EE  29F0               	goto	l2883
 10378  09EF                     u3450:
 10379  09EF                     l2881:
 10380  09EF  142C               	bsf	___fldiv@aexp,0
 10381  09F0                     l2883:
 10382  09F0  082C               	movf	___fldiv@aexp,w
 10383  09F1  1903               	btfsc	3,2
 10384  09F2  29F4               	goto	u3461
 10385  09F3  29F5               	goto	u3460
 10386  09F4                     u3461:
 10387  09F4  2A05               	goto	l2893
 10388  09F5                     u3460:
 10389  09F5                     l2885:
 10390  09F5  0A2C               	incf	___fldiv@aexp,w
 10391  09F6  1D03               	btfss	3,2
 10392  09F7  29F9               	goto	u3471
 10393  09F8  29FA               	goto	u3470
 10394  09F9                     u3471:
 10395  09F9  2A02               	goto	l2889
 10396  09FA                     u3470:
 10397  09FA                     l2887:
 10398  09FA  3000               	movlw	0
 10399  09FB  00F3               	movwf	___fldiv@a+3
 10400  09FC  3000               	movlw	0
 10401  09FD  00F2               	movwf	___fldiv@a+2
 10402  09FE  3000               	movlw	0
 10403  09FF  00F1               	movwf	___fldiv@a+1
 10404  0A00  3000               	movlw	0
 10405  0A01  00F0               	movwf	___fldiv@a
 10406  0A02                     l2889:
 10407  0A02  17F2               	bsf	___fldiv@a+2,7
 10408  0A03                     l2891:
 10409  0A03  01F3               	clrf	___fldiv@a+3
 10410  0A04  2A0D               	goto	l707
 10411  0A05                     l2893:
 10412  0A05  3000               	movlw	0
 10413  0A06  00F3               	movwf	___fldiv@a+3
 10414  0A07  3000               	movlw	0
 10415  0A08  00F2               	movwf	___fldiv@a+2
 10416  0A09  3000               	movlw	0
 10417  0A0A  00F1               	movwf	___fldiv@a+1
 10418  0A0B  3000               	movlw	0
 10419  0A0C  00F0               	movwf	___fldiv@a
 10420  0A0D                     l707:
 10421  0A0D  0873               	movf	___fldiv@a+3,w
 10422  0A0E  0472               	iorwf	___fldiv@a+2,w
 10423  0A0F  0471               	iorwf	___fldiv@a+1,w
 10424  0A10  0470               	iorwf	___fldiv@a,w
 10425  0A11  1D03               	skipz
 10426  0A12  2A14               	goto	u3481
 10427  0A13  2A15               	goto	u3480
 10428  0A14                     u3481:
 10429  0A14  2A2E               	goto	l2903
 10430  0A15                     u3480:
 10431  0A15                     l2895:
 10432  0A15  3000               	movlw	0
 10433  0A16  00F7               	movwf	___fldiv@b+3
 10434  0A17  3000               	movlw	0
 10435  0A18  00F6               	movwf	___fldiv@b+2
 10436  0A19  3000               	movlw	0
 10437  0A1A  00F5               	movwf	___fldiv@b+1
 10438  0A1B  3000               	movlw	0
 10439  0A1C  00F4               	movwf	___fldiv@b
 10440  0A1D  3080               	movlw	128
 10441  0A1E  04F6               	iorwf	___fldiv@b+2,f
 10442  0A1F  307F               	movlw	127
 10443  0A20  04F7               	iorwf	___fldiv@b+3,f
 10444  0A21                     l2897:
 10445  0A21  0824               	movf	___fldiv@sign,w
 10446  0A22  00F8               	movwf	??___fldiv
 10447  0A23  0878               	movf	??___fldiv,w
 10448  0A24  04F7               	iorwf	___fldiv@b+3,f
 10449  0A25                     l2899:
 10450  0A25  0877               	movf	___fldiv@b+3,w
 10451  0A26  00F3               	movwf	?___fldiv+3
 10452  0A27  0876               	movf	___fldiv@b+2,w
 10453  0A28  00F2               	movwf	?___fldiv+2
 10454  0A29  0875               	movf	___fldiv@b+1,w
 10455  0A2A  00F1               	movwf	?___fldiv+1
 10456  0A2B  0874               	movf	___fldiv@b,w
 10457  0A2C  00F0               	movwf	?___fldiv
 10458  0A2D  2B69               	goto	l709
 10459  0A2E                     l2903:
 10460  0A2E  082B               	movf	___fldiv@bexp,w
 10461  0A2F  1D03               	btfss	3,2
 10462  0A30  2A32               	goto	u3491
 10463  0A31  2A33               	goto	u3490
 10464  0A32                     u3491:
 10465  0A32  2A3C               	goto	l2909
 10466  0A33                     u3490:
 10467  0A33                     l2905:
 10468  0A33  3000               	movlw	0
 10469  0A34  00F3               	movwf	?___fldiv+3
 10470  0A35  3000               	movlw	0
 10471  0A36  00F2               	movwf	?___fldiv+2
 10472  0A37  3000               	movlw	0
 10473  0A38  00F1               	movwf	?___fldiv+1
 10474  0A39  3000               	movlw	0
 10475  0A3A  00F0               	movwf	?___fldiv
 10476  0A3B  2B69               	goto	l709
 10477  0A3C                     l2909:
 10478  0A3C  082B               	movf	___fldiv@bexp,w
 10479  0A3D  00F8               	movwf	??___fldiv
 10480  0A3E  01F9               	clrf	??___fldiv+1
 10481  0A3F  0879               	movf	??___fldiv+1,w
 10482  0A40  00FB               	movwf	??___fldiv+3
 10483  0A41  082C               	movf	___fldiv@aexp,w
 10484  0A42  0278               	subwf	??___fldiv,w
 10485  0A43  00FA               	movwf	??___fldiv+2
 10486  0A44  1C03               	skipc
 10487  0A45  03FB               	decf	??___fldiv+3,f
 10488  0A46  087A               	movf	??___fldiv+2,w
 10489  0A47  3E7F               	addlw	127
 10490  0A48  00A5               	movwf	___fldiv@new_exp
 10491  0A49  3000               	movlw	0
 10492  0A4A  3D7B               	addwfc	??___fldiv+3,w
 10493  0A4B  00A6               	movwf	___fldiv@new_exp+1
 10494  0A4C                     l2911:
 10495  0A4C  0877               	movf	___fldiv@b+3,w
 10496  0A4D  00A3               	movwf	___fldiv@rem+3
 10497  0A4E  0876               	movf	___fldiv@b+2,w
 10498  0A4F  00A2               	movwf	___fldiv@rem+2
 10499  0A50  0875               	movf	___fldiv@b+1,w
 10500  0A51  00A1               	movwf	___fldiv@rem+1
 10501  0A52  0874               	movf	___fldiv@b,w
 10502  0A53  00A0               	movwf	___fldiv@rem
 10503  0A54                     l2913:
 10504  0A54  3000               	movlw	0
 10505  0A55  00F7               	movwf	___fldiv@b+3
 10506  0A56  3000               	movlw	0
 10507  0A57  00F6               	movwf	___fldiv@b+2
 10508  0A58  3000               	movlw	0
 10509  0A59  00F5               	movwf	___fldiv@b+1
 10510  0A5A  3000               	movlw	0
 10511  0A5B  00F4               	movwf	___fldiv@b
 10512  0A5C                     l2915:
 10513  0A5C  3000               	movlw	0
 10514  0A5D  00AA               	movwf	___fldiv@grs+3
 10515  0A5E  3000               	movlw	0
 10516  0A5F  00A9               	movwf	___fldiv@grs+2
 10517  0A60  3000               	movlw	0
 10518  0A61  00A8               	movwf	___fldiv@grs+1
 10519  0A62  3000               	movlw	0
 10520  0A63  00A7               	movwf	___fldiv@grs
 10521  0A64                     l2917:
 10522  0A64  01AC               	clrf	___fldiv@aexp
 10523  0A65  2AA4               	goto	l2937
 10524  0A66                     l2919:
 10525  0A66  082C               	movf	___fldiv@aexp,w
 10526  0A67  1903               	btfsc	3,2
 10527  0A68  2A6A               	goto	u3501
 10528  0A69  2A6B               	goto	u3500
 10529  0A6A                     u3501:
 10530  0A6A  2A85               	goto	l2929
 10531  0A6B                     u3500:
 10532  0A6B                     l2921:
 10533  0A6B  3001               	movlw	1
 10534  0A6C                     u3515:
 10535  0A6C  35A0               	lslf	___fldiv@rem,f
 10536  0A6D  0DA1               	rlf	___fldiv@rem+1,f
 10537  0A6E  0DA2               	rlf	___fldiv@rem+2,f
 10538  0A6F  0DA3               	rlf	___fldiv@rem+3,f
 10539  0A70  0B89               	decfsz	9,f
 10540  0A71  2A6C               	goto	u3515
 10541  0A72  3001               	movlw	1
 10542  0A73                     u3525:
 10543  0A73  35F4               	lslf	___fldiv@b,f
 10544  0A74  0DF5               	rlf	___fldiv@b+1,f
 10545  0A75  0DF6               	rlf	___fldiv@b+2,f
 10546  0A76  0DF7               	rlf	___fldiv@b+3,f
 10547  0A77  0B89               	decfsz	9,f
 10548  0A78  2A73               	goto	u3525
 10549  0A79                     l2923:
 10550  0A79  1FAA               	btfss	___fldiv@grs+3,7
 10551  0A7A  2A7C               	goto	u3531
 10552  0A7B  2A7D               	goto	u3530
 10553  0A7C                     u3531:
 10554  0A7C  2A7E               	goto	l2927
 10555  0A7D                     u3530:
 10556  0A7D                     l2925:
 10557  0A7D  1474               	bsf	___fldiv@b,0
 10558  0A7E                     l2927:
 10559  0A7E  3001               	movlw	1
 10560  0A7F                     u3545:
 10561  0A7F  35A7               	lslf	___fldiv@grs,f
 10562  0A80  0DA8               	rlf	___fldiv@grs+1,f
 10563  0A81  0DA9               	rlf	___fldiv@grs+2,f
 10564  0A82  0DAA               	rlf	___fldiv@grs+3,f
 10565  0A83  0B89               	decfsz	9,f
 10566  0A84  2A7F               	goto	u3545
 10567  0A85                     l2929:
 10568  0A85  0873               	movf	___fldiv@a+3,w
 10569  0A86  0223               	subwf	___fldiv@rem+3,w
 10570  0A87  1D03               	skipz
 10571  0A88  2A93               	goto	u3555
 10572  0A89  0872               	movf	___fldiv@a+2,w
 10573  0A8A  0222               	subwf	___fldiv@rem+2,w
 10574  0A8B  1D03               	skipz
 10575  0A8C  2A93               	goto	u3555
 10576  0A8D  0871               	movf	___fldiv@a+1,w
 10577  0A8E  0221               	subwf	___fldiv@rem+1,w
 10578  0A8F  1D03               	skipz
 10579  0A90  2A93               	goto	u3555
 10580  0A91  0870               	movf	___fldiv@a,w
 10581  0A92  0220               	subwf	___fldiv@rem,w
 10582  0A93                     u3555:
 10583  0A93  1C03               	skipc
 10584  0A94  2A96               	goto	u3551
 10585  0A95  2A97               	goto	u3550
 10586  0A96                     u3551:
 10587  0A96  2AA0               	goto	l2935
 10588  0A97                     u3550:
 10589  0A97                     l2931:
 10590  0A97  172A               	bsf	___fldiv@grs+3,6
 10591  0A98                     l2933:
 10592  0A98  0870               	movf	___fldiv@a,w
 10593  0A99  02A0               	subwf	___fldiv@rem,f
 10594  0A9A  0871               	movf	___fldiv@a+1,w
 10595  0A9B  3BA1               	subwfb	___fldiv@rem+1,f
 10596  0A9C  0872               	movf	___fldiv@a+2,w
 10597  0A9D  3BA2               	subwfb	___fldiv@rem+2,f
 10598  0A9E  0873               	movf	___fldiv@a+3,w
 10599  0A9F  3BA3               	subwfb	___fldiv@rem+3,f
 10600  0AA0                     l2935:
 10601  0AA0  3001               	movlw	1
 10602  0AA1  00F8               	movwf	??___fldiv
 10603  0AA2  0878               	movf	??___fldiv,w
 10604  0AA3  07AC               	addwf	___fldiv@aexp,f
 10605  0AA4                     l2937:
 10606  0AA4  301A               	movlw	26
 10607  0AA5  022C               	subwf	___fldiv@aexp,w
 10608  0AA6  1C03               	skipc
 10609  0AA7  2AA9               	goto	u3561
 10610  0AA8  2AAA               	goto	u3560
 10611  0AA9                     u3561:
 10612  0AA9  2A66               	goto	l2919
 10613  0AAA                     u3560:
 10614  0AAA                     l2939:
 10615  0AAA  0823               	movf	___fldiv@rem+3,w
 10616  0AAB  0422               	iorwf	___fldiv@rem+2,w
 10617  0AAC  0421               	iorwf	___fldiv@rem+1,w
 10618  0AAD  0420               	iorwf	___fldiv@rem,w
 10619  0AAE  1903               	skipnz
 10620  0AAF  2AB1               	goto	u3571
 10621  0AB0  2AB2               	goto	u3570
 10622  0AB1                     u3571:
 10623  0AB1  2ACB               	goto	l2953
 10624  0AB2                     u3570:
 10625  0AB2                     l2941:
 10626  0AB2  1427               	bsf	___fldiv@grs,0
 10627  0AB3  2ACB               	goto	l2953
 10628  0AB4                     l2943:
 10629  0AB4  3001               	movlw	1
 10630  0AB5                     u3585:
 10631  0AB5  35F4               	lslf	___fldiv@b,f
 10632  0AB6  0DF5               	rlf	___fldiv@b+1,f
 10633  0AB7  0DF6               	rlf	___fldiv@b+2,f
 10634  0AB8  0DF7               	rlf	___fldiv@b+3,f
 10635  0AB9  0B89               	decfsz	9,f
 10636  0ABA  2AB5               	goto	u3585
 10637  0ABB                     l2945:
 10638  0ABB  1FAA               	btfss	___fldiv@grs+3,7
 10639  0ABC  2ABE               	goto	u3591
 10640  0ABD  2ABF               	goto	u3590
 10641  0ABE                     u3591:
 10642  0ABE  2AC0               	goto	l2949
 10643  0ABF                     u3590:
 10644  0ABF                     l2947:
 10645  0ABF  1474               	bsf	___fldiv@b,0
 10646  0AC0                     l2949:
 10647  0AC0  3001               	movlw	1
 10648  0AC1                     u3605:
 10649  0AC1  35A7               	lslf	___fldiv@grs,f
 10650  0AC2  0DA8               	rlf	___fldiv@grs+1,f
 10651  0AC3  0DA9               	rlf	___fldiv@grs+2,f
 10652  0AC4  0DAA               	rlf	___fldiv@grs+3,f
 10653  0AC5  0B89               	decfsz	9,f
 10654  0AC6  2AC1               	goto	u3605
 10655  0AC7                     l2951:
 10656  0AC7  30FF               	movlw	255
 10657  0AC8  07A5               	addwf	___fldiv@new_exp,f
 10658  0AC9  30FF               	movlw	255
 10659  0ACA  3DA6               	addwfc	___fldiv@new_exp+1,f
 10660  0ACB                     l2953:
 10661  0ACB  1FF6               	btfss	___fldiv@b+2,7
 10662  0ACC  2ACE               	goto	u3611
 10663  0ACD  2ACF               	goto	u3610
 10664  0ACE                     u3611:
 10665  0ACE  2AB4               	goto	l2943
 10666  0ACF                     u3610:
 10667  0ACF                     l2955:
 10668  0ACF  01AC               	clrf	___fldiv@aexp
 10669  0AD0                     l2957:
 10670  0AD0  1FAA               	btfss	___fldiv@grs+3,7
 10671  0AD1  2AD3               	goto	u3621
 10672  0AD2  2AD4               	goto	u3620
 10673  0AD3                     u3621:
 10674  0AD3  2AF0               	goto	l2965
 10675  0AD4                     u3620:
 10676  0AD4                     l2959:
 10677  0AD4  30FF               	movlw	255
 10678  0AD5  0527               	andwf	___fldiv@grs,w
 10679  0AD6  00F8               	movwf	??___fldiv
 10680  0AD7  30FF               	movlw	255
 10681  0AD8  0528               	andwf	___fldiv@grs+1,w
 10682  0AD9  00F9               	movwf	??___fldiv+1
 10683  0ADA  30FF               	movlw	255
 10684  0ADB  0529               	andwf	___fldiv@grs+2,w
 10685  0ADC  00FA               	movwf	??___fldiv+2
 10686  0ADD  307F               	movlw	127
 10687  0ADE  052A               	andwf	___fldiv@grs+3,w
 10688  0ADF  00FB               	movwf	??___fldiv+3
 10689  0AE0  087B               	movf	??___fldiv+3,w
 10690  0AE1  047A               	iorwf	??___fldiv+2,w
 10691  0AE2  0479               	iorwf	??___fldiv+1,w
 10692  0AE3  0478               	iorwf	??___fldiv,w
 10693  0AE4  1903               	skipnz
 10694  0AE5  2AE7               	goto	u3631
 10695  0AE6  2AE8               	goto	u3630
 10696  0AE7                     u3631:
 10697  0AE7  2AEB               	goto	l723
 10698  0AE8                     u3630:
 10699  0AE8                     l2961:
 10700  0AE8  01AC               	clrf	___fldiv@aexp
 10701  0AE9  0AAC               	incf	___fldiv@aexp,f
 10702  0AEA  2AF0               	goto	l2965
 10703  0AEB                     l723:
 10704  0AEB  1C74               	btfss	___fldiv@b,0
 10705  0AEC  2AEE               	goto	u3641
 10706  0AED  2AEF               	goto	u3640
 10707  0AEE                     u3641:
 10708  0AEE  2AF0               	goto	l2965
 10709  0AEF                     u3640:
 10710  0AEF  2AE8               	goto	l2961
 10711  0AF0                     l2965:
 10712  0AF0  082C               	movf	___fldiv@aexp,w
 10713  0AF1  1903               	btfsc	3,2
 10714  0AF2  2AF4               	goto	u3651
 10715  0AF3  2AF5               	goto	u3650
 10716  0AF4                     u3651:
 10717  0AF4  2B1D               	goto	l2975
 10718  0AF5                     u3650:
 10719  0AF5                     l2967:
 10720  0AF5  3001               	movlw	1
 10721  0AF6  07F4               	addwf	___fldiv@b,f
 10722  0AF7  3000               	movlw	0
 10723  0AF8  3DF5               	addwfc	___fldiv@b+1,f
 10724  0AF9  3000               	movlw	0
 10725  0AFA  3DF6               	addwfc	___fldiv@b+2,f
 10726  0AFB  3000               	movlw	0
 10727  0AFC  3DF7               	addwfc	___fldiv@b+3,f
 10728  0AFD                     l2969:
 10729  0AFD  1C77               	btfss	___fldiv@b+3,0
 10730  0AFE  2B00               	goto	u3661
 10731  0AFF  2B01               	goto	u3660
 10732  0B00                     u3661:
 10733  0B00  2B1D               	goto	l2975
 10734  0B01                     u3660:
 10735  0B01                     l2971:
 10736  0B01  0874               	movf	___fldiv@b,w
 10737  0B02  00F8               	movwf	??___fldiv
 10738  0B03  0875               	movf	___fldiv@b+1,w
 10739  0B04  00F9               	movwf	??___fldiv+1
 10740  0B05  0876               	movf	___fldiv@b+2,w
 10741  0B06  00FA               	movwf	??___fldiv+2
 10742  0B07  0877               	movf	___fldiv@b+3,w
 10743  0B08  00FB               	movwf	??___fldiv+3
 10744  0B09  3001               	movlw	1
 10745  0B0A  00FC               	movwf	??___fldiv+4
 10746  0B0B                     u3675:
 10747  0B0B  37FB               	asrf	??___fldiv+3,f
 10748  0B0C  0CFA               	rrf	??___fldiv+2,f
 10749  0B0D  0CF9               	rrf	??___fldiv+1,f
 10750  0B0E  0CF8               	rrf	??___fldiv,f
 10751  0B0F                     u3670:
 10752  0B0F  0BFC               	decfsz	??___fldiv+4,f
 10753  0B10  2B0B               	goto	u3675
 10754  0B11  087B               	movf	??___fldiv+3,w
 10755  0B12  00F7               	movwf	___fldiv@b+3
 10756  0B13  087A               	movf	??___fldiv+2,w
 10757  0B14  00F6               	movwf	___fldiv@b+2
 10758  0B15  0879               	movf	??___fldiv+1,w
 10759  0B16  00F5               	movwf	___fldiv@b+1
 10760  0B17  0878               	movf	??___fldiv,w
 10761  0B18  00F4               	movwf	___fldiv@b
 10762  0B19                     l2973:
 10763  0B19  3001               	movlw	1
 10764  0B1A  07A5               	addwf	___fldiv@new_exp,f
 10765  0B1B  3000               	movlw	0
 10766  0B1C  3DA6               	addwfc	___fldiv@new_exp+1,f
 10767  0B1D                     l2975:
 10768  0B1D  0826               	movf	___fldiv@new_exp+1,w
 10769  0B1E  3A80               	xorlw	128
 10770  0B1F  00F8               	movwf	??___fldiv
 10771  0B20  3080               	movlw	128
 10772  0B21  0278               	subwf	??___fldiv,w
 10773  0B22  1D03               	skipz
 10774  0B23  2B26               	goto	u3685
 10775  0B24  30FF               	movlw	255
 10776  0B25  0225               	subwf	___fldiv@new_exp,w
 10777  0B26                     u3685:
 10778  0B26  1C03               	skipc
 10779  0B27  2B29               	goto	u3681
 10780  0B28  2B2A               	goto	u3680
 10781  0B29                     u3681:
 10782  0B29  2B37               	goto	l728
 10783  0B2A                     u3680:
 10784  0B2A                     l2977:
 10785  0B2A  30FF               	movlw	255
 10786  0B2B  0020               	movlb	0	; select bank0
 10787  0B2C  00A5               	movwf	___fldiv@new_exp
 10788  0B2D  3000               	movlw	0
 10789  0B2E  00A6               	movwf	___fldiv@new_exp+1
 10790  0B2F  3000               	movlw	0
 10791  0B30  00F7               	movwf	___fldiv@b+3
 10792  0B31  3000               	movlw	0
 10793  0B32  00F6               	movwf	___fldiv@b+2
 10794  0B33  3000               	movlw	0
 10795  0B34  00F5               	movwf	___fldiv@b+1
 10796  0B35  3000               	movlw	0
 10797  0B36  00F4               	movwf	___fldiv@b
 10798  0B37                     l728:
 10799  0B37  0020               	movlb	0	; select bank0
 10800  0B38  0826               	movf	___fldiv@new_exp+1,w
 10801  0B39  3A80               	xorlw	128
 10802  0B3A  00F8               	movwf	??___fldiv
 10803  0B3B  3080               	movlw	128
 10804  0B3C  0278               	subwf	??___fldiv,w
 10805  0B3D  1D03               	skipz
 10806  0B3E  2B41               	goto	u3695
 10807  0B3F  3001               	movlw	1
 10808  0B40  0225               	subwf	___fldiv@new_exp,w
 10809  0B41                     u3695:
 10810  0B41  1803               	skipnc
 10811  0B42  2B44               	goto	u3691
 10812  0B43  2B45               	goto	u3690
 10813  0B44                     u3691:
 10814  0B44  2B51               	goto	l729
 10815  0B45                     u3690:
 10816  0B45                     l2979:
 10817  0B45  0020               	movlb	0	; select bank0
 10818  0B46  01A5               	clrf	___fldiv@new_exp
 10819  0B47  01A6               	clrf	___fldiv@new_exp+1
 10820  0B48                     l2981:
 10821  0B48  3000               	movlw	0
 10822  0B49  00F7               	movwf	___fldiv@b+3
 10823  0B4A  3000               	movlw	0
 10824  0B4B  00F6               	movwf	___fldiv@b+2
 10825  0B4C  3000               	movlw	0
 10826  0B4D  00F5               	movwf	___fldiv@b+1
 10827  0B4E  3000               	movlw	0
 10828  0B4F  00F4               	movwf	___fldiv@b
 10829  0B50                     l2983:
 10830  0B50  01A4               	clrf	___fldiv@sign
 10831  0B51                     l729:
 10832  0B51  0020               	movlb	0	; select bank0
 10833  0B52  0825               	movf	___fldiv@new_exp,w
 10834  0B53  00F8               	movwf	??___fldiv
 10835  0B54  0878               	movf	??___fldiv,w
 10836  0B55  00AB               	movwf	___fldiv@bexp
 10837  0B56                     l2985:
 10838  0B56  1C2B               	btfss	___fldiv@bexp,0
 10839  0B57  2B59               	goto	u3701
 10840  0B58  2B5A               	goto	u3700
 10841  0B59                     u3701:
 10842  0B59  2B5C               	goto	l2989
 10843  0B5A                     u3700:
 10844  0B5A                     l2987:
 10845  0B5A  17F6               	bsf	___fldiv@b+2,7
 10846  0B5B  2B60               	goto	l731
 10847  0B5C                     l2989:
 10848  0B5C  307F               	movlw	127
 10849  0B5D  00F8               	movwf	??___fldiv
 10850  0B5E  0878               	movf	??___fldiv,w
 10851  0B5F  05F6               	andwf	___fldiv@b+2,f
 10852  0B60                     l731:
 10853  0B60  362B               	lsrf	___fldiv@bexp,w
 10854  0B61  00F8               	movwf	??___fldiv
 10855  0B62  0878               	movf	??___fldiv,w
 10856  0B63  00F7               	movwf	___fldiv@b+3
 10857  0B64  0824               	movf	___fldiv@sign,w
 10858  0B65  00F8               	movwf	??___fldiv
 10859  0B66  0878               	movf	??___fldiv,w
 10860  0B67  04F7               	iorwf	___fldiv@b+3,f
 10861  0B68  2A25               	goto	l2899
 10862  0B69                     l709:
 10863  0B69  0008               	return
 10864  0B6A                     __end_of___fldiv:
 10865                           
 10866                           	psect	text34
 10867  1434                     __ptext34:	
 10868 ;; *************** function ___awmod *****************
 10869 ;; Defined at:
 10870 ;;		line 5 in file "C:\Program Files\Microchip\xc8\v2.31\pic\sources\c99\common\awmod.c"
 10871 ;; Parameters:    Size  Location     Type
 10872 ;;  divisor         2    0[COMMON] int 
 10873 ;;  dividend        2    2[COMMON] int 
 10874 ;; Auto vars:     Size  Location     Type
 10875 ;;  sign            1    6[COMMON] unsigned char 
 10876 ;;  counter         1    5[COMMON] unsigned char 
 10877 ;; Return value:  Size  Location     Type
 10878 ;;                  2    0[COMMON] int 
 10879 ;; Registers used:
 10880 ;;		wreg, status,2, status,0
 10881 ;; Tracked objects:
 10882 ;;		On entry : 0/0
 10883 ;;		On exit  : 0/0
 10884 ;;		Unchanged: 0/0
 10885 ;; Data sizes:     COMMON   BANK0   BANK1   BANK2   BANK3   BANK4   BANK5   BANK6   BANK7   BANK8   BANK9  BANK10  BANK1
      +1  BANK12
 10886 ;;      Params:         4       0       0       0       0       0       0       0       0       0       0       0       
      +0       0
 10887 ;;      Locals:         2       0       0       0       0       0       0       0       0       0       0       0       
      +0       0
 10888 ;;      Temps:          1       0       0       0       0       0       0       0       0       0       0       0       
      +0       0
 10889 ;;      Totals:         7       0       0       0       0       0       0       0       0       0       0       0       
      +0       0
 10890 ;;Total ram usage:        7 bytes
 10891 ;; Hardware stack levels used:    1
 10892 ;; This function calls:
 10893 ;;		Nothing
 10894 ;; This function is called by:
 10895 ;;		_efgtoa
 10896 ;; This function uses a non-reentrant model
 10897 ;;
 10898                           
 10899                           
 10900                           ;psect for function ___awmod
 10901  1434                     ___awmod:
 10902  1434                     l2735:	
 10903                           ;incstack = 0
 10904                           ; Regs used in ___awmod: [wreg+status,2+status,0]
 10905                           
 10906  1434  01F6               	clrf	___awmod@sign
 10907  1435                     l2737:
 10908  1435  1FF3               	btfss	___awmod@dividend+1,7
 10909  1436  2C38               	goto	u3141
 10910  1437  2C39               	goto	u3140
 10911  1438                     u3141:
 10912  1438  2C40               	goto	l2743
 10913  1439                     u3140:
 10914  1439                     l2739:
 10915  1439  09F2               	comf	___awmod@dividend,f
 10916  143A  09F3               	comf	___awmod@dividend+1,f
 10917  143B  0AF2               	incf	___awmod@dividend,f
 10918  143C  1903               	skipnz
 10919  143D  0AF3               	incf	___awmod@dividend+1,f
 10920  143E                     l2741:
 10921  143E  01F6               	clrf	___awmod@sign
 10922  143F  0AF6               	incf	___awmod@sign,f
 10923  1440                     l2743:
 10924  1440  1FF1               	btfss	___awmod@divisor+1,7
 10925  1441  2C43               	goto	u3151
 10926  1442  2C44               	goto	u3150
 10927  1443                     u3151:
 10928  1443  2C49               	goto	l2747
 10929  1444                     u3150:
 10930  1444                     l2745:
 10931  1444  09F0               	comf	___awmod@divisor,f
 10932  1445  09F1               	comf	___awmod@divisor+1,f
 10933  1446  0AF0               	incf	___awmod@divisor,f
 10934  1447  1903               	skipnz
 10935  1448  0AF1               	incf	___awmod@divisor+1,f
 10936  1449                     l2747:
 10937  1449  0870               	movf	___awmod@divisor,w
 10938  144A  0471               	iorwf	___awmod@divisor+1,w
 10939  144B  1903               	btfsc	3,2
 10940  144C  2C4E               	goto	u3161
 10941  144D  2C4F               	goto	u3160
 10942  144E                     u3161:
 10943  144E  2C78               	goto	l2765
 10944  144F                     u3160:
 10945  144F                     l2749:
 10946  144F  01F5               	clrf	___awmod@counter
 10947  1450  0AF5               	incf	___awmod@counter,f
 10948  1451  2C5B               	goto	l2755
 10949  1452                     l2751:
 10950  1452  3001               	movlw	1
 10951  1453                     u3175:
 10952  1453  35F0               	lslf	___awmod@divisor,f
 10953  1454  0DF1               	rlf	___awmod@divisor+1,f
 10954  1455  0B89               	decfsz	9,f
 10955  1456  2C53               	goto	u3175
 10956  1457                     l2753:
 10957  1457  3001               	movlw	1
 10958  1458  00F4               	movwf	??___awmod
 10959  1459  0874               	movf	??___awmod,w
 10960  145A  07F5               	addwf	___awmod@counter,f
 10961  145B                     l2755:
 10962  145B  1FF1               	btfss	___awmod@divisor+1,7
 10963  145C  2C5E               	goto	u3181
 10964  145D  2C5F               	goto	u3180
 10965  145E                     u3181:
 10966  145E  2C52               	goto	l2751
 10967  145F                     u3180:
 10968  145F                     l2757:
 10969  145F  0871               	movf	___awmod@divisor+1,w
 10970  1460  0273               	subwf	___awmod@dividend+1,w
 10971  1461  1D03               	skipz
 10972  1462  2C65               	goto	u3195
 10973  1463  0870               	movf	___awmod@divisor,w
 10974  1464  0272               	subwf	___awmod@dividend,w
 10975  1465                     u3195:
 10976  1465  1C03               	skipc
 10977  1466  2C68               	goto	u3191
 10978  1467  2C69               	goto	u3190
 10979  1468                     u3191:
 10980  1468  2C6D               	goto	l2761
 10981  1469                     u3190:
 10982  1469                     l2759:
 10983  1469  0870               	movf	___awmod@divisor,w
 10984  146A  02F2               	subwf	___awmod@dividend,f
 10985  146B  0871               	movf	___awmod@divisor+1,w
 10986  146C  3BF3               	subwfb	___awmod@dividend+1,f
 10987  146D                     l2761:
 10988  146D  3001               	movlw	1
 10989  146E                     u3205:
 10990  146E  36F1               	lsrf	___awmod@divisor+1,f
 10991  146F  0CF0               	rrf	___awmod@divisor,f
 10992  1470  0B89               	decfsz	9,f
 10993  1471  2C6E               	goto	u3205
 10994  1472                     l2763:
 10995  1472  3001               	movlw	1
 10996  1473  02F5               	subwf	___awmod@counter,f
 10997  1474  1D03               	btfss	3,2
 10998  1475  2C77               	goto	u3211
 10999  1476  2C78               	goto	u3210
 11000  1477                     u3211:
 11001  1477  2C5F               	goto	l2757
 11002  1478                     u3210:
 11003  1478                     l2765:
 11004  1478  0876               	movf	___awmod@sign,w
 11005  1479  1903               	btfsc	3,2
 11006  147A  2C7C               	goto	u3221
 11007  147B  2C7D               	goto	u3220
 11008  147C                     u3221:
 11009  147C  2C82               	goto	l2769
 11010  147D                     u3220:
 11011  147D                     l2767:
 11012  147D  09F2               	comf	___awmod@dividend,f
 11013  147E  09F3               	comf	___awmod@dividend+1,f
 11014  147F  0AF2               	incf	___awmod@dividend,f
 11015  1480  1903               	skipnz
 11016  1481  0AF3               	incf	___awmod@dividend+1,f
 11017  1482                     l2769:
 11018  1482  0873               	movf	___awmod@dividend+1,w
 11019  1483  00F1               	movwf	?___awmod+1
 11020  1484  0872               	movf	___awmod@dividend,w
 11021  1485  00F0               	movwf	?___awmod
 11022  1486                     l516:
 11023  1486  0008               	return
 11024  1487                     __end_of___awmod:
 11025                           
 11026                           	psect	text35
 11027  1538                     __ptext35:	
 11028 ;; *************** function ___awdiv *****************
 11029 ;; Defined at:
 11030 ;;		line 5 in file "C:\Program Files\Microchip\xc8\v2.31\pic\sources\c99\common\awdiv.c"
 11031 ;; Parameters:    Size  Location     Type
 11032 ;;  divisor         2    0[COMMON] int 
 11033 ;;  dividend        2    2[COMMON] int 
 11034 ;; Auto vars:     Size  Location     Type
 11035 ;;  quotient        2    7[COMMON] int 
 11036 ;;  sign            1    6[COMMON] unsigned char 
 11037 ;;  counter         1    5[COMMON] unsigned char 
 11038 ;; Return value:  Size  Location     Type
 11039 ;;                  2    0[COMMON] int 
 11040 ;; Registers used:
 11041 ;;		wreg, status,2, status,0
 11042 ;; Tracked objects:
 11043 ;;		On entry : 0/0
 11044 ;;		On exit  : 0/0
 11045 ;;		Unchanged: 0/0
 11046 ;; Data sizes:     COMMON   BANK0   BANK1   BANK2   BANK3   BANK4   BANK5   BANK6   BANK7   BANK8   BANK9  BANK10  BANK1
      +1  BANK12
 11047 ;;      Params:         4       0       0       0       0       0       0       0       0       0       0       0       
      +0       0
 11048 ;;      Locals:         4       0       0       0       0       0       0       0       0       0       0       0       
      +0       0
 11049 ;;      Temps:          1       0       0       0       0       0       0       0       0       0       0       0       
      +0       0
 11050 ;;      Totals:         9       0       0       0       0       0       0       0       0       0       0       0       
      +0       0
 11051 ;;Total ram usage:        9 bytes
 11052 ;; Hardware stack levels used:    1
 11053 ;; This function calls:
 11054 ;;		Nothing
 11055 ;; This function is called by:
 11056 ;;		_efgtoa
 11057 ;; This function uses a non-reentrant model
 11058 ;;
 11059                           
 11060                           
 11061                           ;psect for function ___awdiv
 11062  1538                     ___awdiv:
 11063  1538                     l2691:	
 11064                           ;incstack = 0
 11065                           ; Regs used in ___awdiv: [wreg+status,2+status,0]
 11066                           
 11067  1538  01F6               	clrf	___awdiv@sign
 11068  1539                     l2693:
 11069  1539  1FF1               	btfss	___awdiv@divisor+1,7
 11070  153A  2D3C               	goto	u3041
 11071  153B  2D3D               	goto	u3040
 11072  153C                     u3041:
 11073  153C  2D44               	goto	l2699
 11074  153D                     u3040:
 11075  153D                     l2695:
 11076  153D  09F0               	comf	___awdiv@divisor,f
 11077  153E  09F1               	comf	___awdiv@divisor+1,f
 11078  153F  0AF0               	incf	___awdiv@divisor,f
 11079  1540  1903               	skipnz
 11080  1541  0AF1               	incf	___awdiv@divisor+1,f
 11081  1542                     l2697:
 11082  1542  01F6               	clrf	___awdiv@sign
 11083  1543  0AF6               	incf	___awdiv@sign,f
 11084  1544                     l2699:
 11085  1544  1FF3               	btfss	___awdiv@dividend+1,7
 11086  1545  2D47               	goto	u3051
 11087  1546  2D48               	goto	u3050
 11088  1547                     u3051:
 11089  1547  2D51               	goto	l2705
 11090  1548                     u3050:
 11091  1548                     l2701:
 11092  1548  09F2               	comf	___awdiv@dividend,f
 11093  1549  09F3               	comf	___awdiv@dividend+1,f
 11094  154A  0AF2               	incf	___awdiv@dividend,f
 11095  154B  1903               	skipnz
 11096  154C  0AF3               	incf	___awdiv@dividend+1,f
 11097  154D                     l2703:
 11098  154D  3001               	movlw	1
 11099  154E  00F4               	movwf	??___awdiv
 11100  154F  0874               	movf	??___awdiv,w
 11101  1550  06F6               	xorwf	___awdiv@sign,f
 11102  1551                     l2705:
 11103  1551  01F7               	clrf	___awdiv@quotient
 11104  1552  01F8               	clrf	___awdiv@quotient+1
 11105  1553                     l2707:
 11106  1553  0870               	movf	___awdiv@divisor,w
 11107  1554  0471               	iorwf	___awdiv@divisor+1,w
 11108  1555  1903               	btfsc	3,2
 11109  1556  2D58               	goto	u3061
 11110  1557  2D59               	goto	u3060
 11111  1558                     u3061:
 11112  1558  2D88               	goto	l2727
 11113  1559                     u3060:
 11114  1559                     l2709:
 11115  1559  01F5               	clrf	___awdiv@counter
 11116  155A  0AF5               	incf	___awdiv@counter,f
 11117  155B  2D65               	goto	l2715
 11118  155C                     l2711:
 11119  155C  3001               	movlw	1
 11120  155D                     u3075:
 11121  155D  35F0               	lslf	___awdiv@divisor,f
 11122  155E  0DF1               	rlf	___awdiv@divisor+1,f
 11123  155F  0B89               	decfsz	9,f
 11124  1560  2D5D               	goto	u3075
 11125  1561                     l2713:
 11126  1561  3001               	movlw	1
 11127  1562  00F4               	movwf	??___awdiv
 11128  1563  0874               	movf	??___awdiv,w
 11129  1564  07F5               	addwf	___awdiv@counter,f
 11130  1565                     l2715:
 11131  1565  1FF1               	btfss	___awdiv@divisor+1,7
 11132  1566  2D68               	goto	u3081
 11133  1567  2D69               	goto	u3080
 11134  1568                     u3081:
 11135  1568  2D5C               	goto	l2711
 11136  1569                     u3080:
 11137  1569                     l2717:
 11138  1569  3001               	movlw	1
 11139  156A                     u3095:
 11140  156A  35F7               	lslf	___awdiv@quotient,f
 11141  156B  0DF8               	rlf	___awdiv@quotient+1,f
 11142  156C  0B89               	decfsz	9,f
 11143  156D  2D6A               	goto	u3095
 11144  156E  0871               	movf	___awdiv@divisor+1,w
 11145  156F  0273               	subwf	___awdiv@dividend+1,w
 11146  1570  1D03               	skipz
 11147  1571  2D74               	goto	u3105
 11148  1572  0870               	movf	___awdiv@divisor,w
 11149  1573  0272               	subwf	___awdiv@dividend,w
 11150  1574                     u3105:
 11151  1574  1C03               	skipc
 11152  1575  2D77               	goto	u3101
 11153  1576  2D78               	goto	u3100
 11154  1577                     u3101:
 11155  1577  2D7D               	goto	l2723
 11156  1578                     u3100:
 11157  1578                     l2719:
 11158  1578  0870               	movf	___awdiv@divisor,w
 11159  1579  02F2               	subwf	___awdiv@dividend,f
 11160  157A  0871               	movf	___awdiv@divisor+1,w
 11161  157B  3BF3               	subwfb	___awdiv@dividend+1,f
 11162  157C                     l2721:
 11163  157C  1477               	bsf	___awdiv@quotient,0
 11164  157D                     l2723:
 11165  157D  3001               	movlw	1
 11166  157E                     u3115:
 11167  157E  36F1               	lsrf	___awdiv@divisor+1,f
 11168  157F  0CF0               	rrf	___awdiv@divisor,f
 11169  1580  0B89               	decfsz	9,f
 11170  1581  2D7E               	goto	u3115
 11171  1582                     l2725:
 11172  1582  3001               	movlw	1
 11173  1583  02F5               	subwf	___awdiv@counter,f
 11174  1584  1D03               	btfss	3,2
 11175  1585  2D87               	goto	u3121
 11176  1586  2D88               	goto	u3120
 11177  1587                     u3121:
 11178  1587  2D69               	goto	l2717
 11179  1588                     u3120:
 11180  1588                     l2727:
 11181  1588  0876               	movf	___awdiv@sign,w
 11182  1589  1903               	btfsc	3,2
 11183  158A  2D8C               	goto	u3131
 11184  158B  2D8D               	goto	u3130
 11185  158C                     u3131:
 11186  158C  2D92               	goto	l2731
 11187  158D                     u3130:
 11188  158D                     l2729:
 11189  158D  09F7               	comf	___awdiv@quotient,f
 11190  158E  09F8               	comf	___awdiv@quotient+1,f
 11191  158F  0AF7               	incf	___awdiv@quotient,f
 11192  1590  1903               	skipnz
 11193  1591  0AF8               	incf	___awdiv@quotient+1,f
 11194  1592                     l2731:
 11195  1592  0878               	movf	___awdiv@quotient+1,w
 11196  1593  00F1               	movwf	?___awdiv+1
 11197  1594  0877               	movf	___awdiv@quotient,w
 11198  1595  00F0               	movwf	?___awdiv
 11199  1596                     l503:
 11200  1596  0008               	return
 11201  1597                     __end_of___awdiv:
 11202                           
 11203                           	psect	text36
 11204  11B5                     __ptext36:	
 11205 ;; *************** function _SYSTEM_Initialize *****************
 11206 ;; Defined at:
 11207 ;;		line 50 in file "mcc_generated_files/mcc.c"
 11208 ;; Parameters:    Size  Location     Type
 11209 ;;		None
 11210 ;; Auto vars:     Size  Location     Type
 11211 ;;		None
 11212 ;; Return value:  Size  Location     Type
 11213 ;;                  1    wreg      void 
 11214 ;; Registers used:
 11215 ;;		wreg, status,2, status,0, pclath, cstack
 11216 ;; Tracked objects:
 11217 ;;		On entry : 0/0
 11218 ;;		On exit  : 0/0
 11219 ;;		Unchanged: 0/0
 11220 ;; Data sizes:     COMMON   BANK0   BANK1   BANK2   BANK3   BANK4   BANK5   BANK6   BANK7   BANK8   BANK9  BANK10  BANK1
      +1  BANK12
 11221 ;;      Params:         0       0       0       0       0       0       0       0       0       0       0       0       
      +0       0
 11222 ;;      Locals:         0       0       0       0       0       0       0       0       0       0       0       0       
      +0       0
 11223 ;;      Temps:          0       0       0       0       0       0       0       0       0       0       0       0       
      +0       0
 11224 ;;      Totals:         0       0       0       0       0       0       0       0       0       0       0       0       
      +0       0
 11225 ;;Total ram usage:        0 bytes
 11226 ;; Hardware stack levels used:    1
 11227 ;; Hardware stack levels required when called:    2
 11228 ;; This function calls:
 11229 ;;		_EUSART_Initialize
 11230 ;;		_OSCILLATOR_Initialize
 11231 ;;		_PIN_MANAGER_Initialize
 11232 ;;		_WDT_Initialize
 11233 ;; This function is called by:
 11234 ;;		_main
 11235 ;; This function uses a non-reentrant model
 11236 ;;
 11237                           
 11238                           
 11239                           ;psect for function _SYSTEM_Initialize
 11240  11B5                     _SYSTEM_Initialize:
 11241  11B5                     l3713:	
 11242                           ;incstack = 0
 11243                           ; Regs used in _SYSTEM_Initialize: [wreg+status,2+status,0+pclath+cstack]
 11244                           
 11245                           
 11246                           ;mcc_generated_files/mcc.c: 53:     PIN_MANAGER_Initialize();
 11247  11B5  3193  239F  3191   	fcall	_PIN_MANAGER_Initialize
 11248                           
 11249                           ;mcc_generated_files/mcc.c: 54:     OSCILLATOR_Initialize();
 11250  11B8  3191  2187  3191   	fcall	_OSCILLATOR_Initialize
 11251                           
 11252                           ;mcc_generated_files/mcc.c: 55:     WDT_Initialize();
 11253  11BB  3191  2165  3191   	fcall	_WDT_Initialize
 11254                           
 11255                           ;mcc_generated_files/mcc.c: 56:     EUSART_Initialize();
 11256  11BE  3192  22BF  3191   	fcall	_EUSART_Initialize
 11257  11C1                     l19:
 11258  11C1  0008               	return
 11259  11C2                     __end_of_SYSTEM_Initialize:
 11260                           
 11261                           	psect	text37
 11262  1165                     __ptext37:	
 11263 ;; *************** function _WDT_Initialize *****************
 11264 ;; Defined at:
 11265 ;;		line 69 in file "mcc_generated_files/mcc.c"
 11266 ;; Parameters:    Size  Location     Type
 11267 ;;		None
 11268 ;; Auto vars:     Size  Location     Type
 11269 ;;		None
 11270 ;; Return value:  Size  Location     Type
 11271 ;;                  1    wreg      void 
 11272 ;; Registers used:
 11273 ;;		wreg
 11274 ;; Tracked objects:
 11275 ;;		On entry : 0/0
 11276 ;;		On exit  : 0/0
 11277 ;;		Unchanged: 0/0
 11278 ;; Data sizes:     COMMON   BANK0   BANK1   BANK2   BANK3   BANK4   BANK5   BANK6   BANK7   BANK8   BANK9  BANK10  BANK1
      +1  BANK12
 11279 ;;      Params:         0       0       0       0       0       0       0       0       0       0       0       0       
      +0       0
 11280 ;;      Locals:         0       0       0       0       0       0       0       0       0       0       0       0       
      +0       0
 11281 ;;      Temps:          0       0       0       0       0       0       0       0       0       0       0       0       
      +0       0
 11282 ;;      Totals:         0       0       0       0       0       0       0       0       0       0       0       0       
      +0       0
 11283 ;;Total ram usage:        0 bytes
 11284 ;; Hardware stack levels used:    1
 11285 ;; This function calls:
 11286 ;;		Nothing
 11287 ;; This function is called by:
 11288 ;;		_SYSTEM_Initialize
 11289 ;; This function uses a non-reentrant model
 11290 ;;
 11291                           
 11292                           
 11293                           ;psect for function _WDT_Initialize
 11294  1165                     _WDT_Initialize:
 11295  1165                     l3693:	
 11296                           ;incstack = 0
 11297                           ; Regs used in _WDT_Initialize: [wreg]
 11298                           
 11299                           
 11300                           ;mcc_generated_files/mcc.c: 72:     WDTCON = 0x16;
 11301  1165  3016               	movlw	22
 11302  1166  0021               	movlb	1	; select bank1
 11303  1167  0097               	movwf	23	;volatile
 11304  1168                     l25:
 11305  1168  0008               	return
 11306  1169                     __end_of_WDT_Initialize:
 11307                           
 11308                           	psect	text38
 11309  139F                     __ptext38:	
 11310 ;; *************** function _PIN_MANAGER_Initialize *****************
 11311 ;; Defined at:
 11312 ;;		line 55 in file "mcc_generated_files/pin_manager.c"
 11313 ;; Parameters:    Size  Location     Type
 11314 ;;		None
 11315 ;; Auto vars:     Size  Location     Type
 11316 ;;		None
 11317 ;; Return value:  Size  Location     Type
 11318 ;;                  1    wreg      void 
 11319 ;; Registers used:
 11320 ;;		wreg, status,2
 11321 ;; Tracked objects:
 11322 ;;		On entry : 0/0
 11323 ;;		On exit  : 0/0
 11324 ;;		Unchanged: 0/0
 11325 ;; Data sizes:     COMMON   BANK0   BANK1   BANK2   BANK3   BANK4   BANK5   BANK6   BANK7   BANK8   BANK9  BANK10  BANK1
      +1  BANK12
 11326 ;;      Params:         0       0       0       0       0       0       0       0       0       0       0       0       
      +0       0
 11327 ;;      Locals:         0       0       0       0       0       0       0       0       0       0       0       0       
      +0       0
 11328 ;;      Temps:          0       0       0       0       0       0       0       0       0       0       0       0       
      +0       0
 11329 ;;      Totals:         0       0       0       0       0       0       0       0       0       0       0       0       
      +0       0
 11330 ;;Total ram usage:        0 bytes
 11331 ;; Hardware stack levels used:    1
 11332 ;; This function calls:
 11333 ;;		Nothing
 11334 ;; This function is called by:
 11335 ;;		_SYSTEM_Initialize
 11336 ;; This function uses a non-reentrant model
 11337 ;;
 11338                           
 11339                           
 11340                           ;psect for function _PIN_MANAGER_Initialize
 11341  139F                     _PIN_MANAGER_Initialize:
 11342  139F                     l3639:	
 11343                           ;incstack = 0
 11344                           ; Regs used in _PIN_MANAGER_Initialize: [wreg+status,2]
 11345                           
 11346                           
 11347                           ;mcc_generated_files/pin_manager.c: 60:     LATE = 0x00;
 11348  139F  0022               	movlb	2	; select bank2
 11349  13A0  0190               	clrf	16	;volatile
 11350                           
 11351                           ;mcc_generated_files/pin_manager.c: 61:     LATD = 0x00;
 11352  13A1  018F               	clrf	15	;volatile
 11353                           
 11354                           ;mcc_generated_files/pin_manager.c: 62:     LATA = 0x00;
 11355  13A2  018C               	clrf	12	;volatile
 11356                           
 11357                           ;mcc_generated_files/pin_manager.c: 63:     LATB = 0x00;
 11358  13A3  018D               	clrf	13	;volatile
 11359                           
 11360                           ;mcc_generated_files/pin_manager.c: 64:     LATC = 0x00;
 11361  13A4  018E               	clrf	14	;volatile
 11362  13A5                     l3641:
 11363                           
 11364                           ;mcc_generated_files/pin_manager.c: 69:     TRISE = 0x0F;
 11365  13A5  300F               	movlw	15
 11366  13A6  0021               	movlb	1	; select bank1
 11367  13A7  0090               	movwf	16	;volatile
 11368  13A8                     l3643:
 11369                           
 11370                           ;mcc_generated_files/pin_manager.c: 70:     TRISA = 0xFF;
 11371  13A8  30FF               	movlw	255
 11372  13A9  008C               	movwf	12	;volatile
 11373  13AA                     l3645:
 11374                           
 11375                           ;mcc_generated_files/pin_manager.c: 71:     TRISB = 0xFF;
 11376  13AA  30FF               	movlw	255
 11377  13AB  008D               	movwf	13	;volatile
 11378  13AC                     l3647:
 11379                           
 11380                           ;mcc_generated_files/pin_manager.c: 72:     TRISC = 0xBF;
 11381  13AC  30BF               	movlw	191
 11382  13AD  008E               	movwf	14	;volatile
 11383  13AE                     l3649:
 11384                           
 11385                           ;mcc_generated_files/pin_manager.c: 73:     TRISD = 0xFF;
 11386  13AE  30FF               	movlw	255
 11387  13AF  008F               	movwf	15	;volatile
 11388  13B0                     l3651:
 11389                           
 11390                           ;mcc_generated_files/pin_manager.c: 78:     ANSELD = 0xFF;
 11391  13B0  30FF               	movlw	255
 11392  13B1  0023               	movlb	3	; select bank3
 11393  13B2  008F               	movwf	15	;volatile
 11394  13B3                     l3653:
 11395                           
 11396                           ;mcc_generated_files/pin_manager.c: 79:     ANSELC = 0x7C;
 11397  13B3  307C               	movlw	124
 11398  13B4  008E               	movwf	14	;volatile
 11399  13B5                     l3655:
 11400                           
 11401                           ;mcc_generated_files/pin_manager.c: 80:     ANSELB = 0x3F;
 11402  13B5  303F               	movlw	63
 11403  13B6  008D               	movwf	13	;volatile
 11404  13B7                     l3657:
 11405                           
 11406                           ;mcc_generated_files/pin_manager.c: 81:     ANSELE = 0x07;
 11407  13B7  3007               	movlw	7
 11408  13B8  0090               	movwf	16	;volatile
 11409  13B9                     l3659:
 11410                           
 11411                           ;mcc_generated_files/pin_manager.c: 82:     ANSELA = 0x3F;
 11412  13B9  303F               	movlw	63
 11413  13BA  008C               	movwf	12	;volatile
 11414                           
 11415                           ;mcc_generated_files/pin_manager.c: 87:     WPUD = 0x00;
 11416  13BB  0024               	movlb	4	; select bank4
 11417  13BC  018F               	clrf	15	;volatile
 11418                           
 11419                           ;mcc_generated_files/pin_manager.c: 88:     WPUE = 0x00;
 11420  13BD  0190               	clrf	16	;volatile
 11421                           
 11422                           ;mcc_generated_files/pin_manager.c: 89:     WPUB = 0x00;
 11423  13BE  018D               	clrf	13	;volatile
 11424                           
 11425                           ;mcc_generated_files/pin_manager.c: 90:     WPUA = 0x00;
 11426  13BF  018C               	clrf	12	;volatile
 11427                           
 11428                           ;mcc_generated_files/pin_manager.c: 91:     WPUC = 0x00;
 11429  13C0  018E               	clrf	14	;volatile
 11430  13C1                     l3661:
 11431                           
 11432                           ;mcc_generated_files/pin_manager.c: 92:     OPTION_REGbits.nWPUEN = 1;
 11433  13C1  0021               	movlb	1	; select bank1
 11434  13C2  1795               	bsf	21,7	;volatile
 11435                           
 11436                           ;mcc_generated_files/pin_manager.c: 97:     ODCONE = 0x00;
 11437  13C3  0025               	movlb	5	; select bank5
 11438  13C4  0190               	clrf	16	;volatile
 11439                           
 11440                           ;mcc_generated_files/pin_manager.c: 98:     ODCONA = 0x00;
 11441  13C5  018C               	clrf	12	;volatile
 11442                           
 11443                           ;mcc_generated_files/pin_manager.c: 99:     ODCONB = 0x00;
 11444  13C6  018D               	clrf	13	;volatile
 11445                           
 11446                           ;mcc_generated_files/pin_manager.c: 100:     ODCONC = 0x00;
 11447  13C7  018E               	clrf	14	;volatile
 11448                           
 11449                           ;mcc_generated_files/pin_manager.c: 101:     ODCOND = 0x00;
 11450  13C8  018F               	clrf	15	;volatile
 11451  13C9                     l3663:
 11452                           
 11453                           ;mcc_generated_files/pin_manager.c: 106:     SLRCONA = 0xFF;
 11454  13C9  30FF               	movlw	255
 11455  13CA  0026               	movlb	6	; select bank6
 11456  13CB  008C               	movwf	12	;volatile
 11457  13CC                     l3665:
 11458                           
 11459                           ;mcc_generated_files/pin_manager.c: 107:     SLRCONB = 0xFF;
 11460  13CC  30FF               	movlw	255
 11461  13CD  008D               	movwf	13	;volatile
 11462  13CE                     l3667:
 11463                           
 11464                           ;mcc_generated_files/pin_manager.c: 108:     SLRCONC = 0xFF;
 11465  13CE  30FF               	movlw	255
 11466  13CF  008E               	movwf	14	;volatile
 11467  13D0                     l3669:
 11468                           
 11469                           ;mcc_generated_files/pin_manager.c: 109:     SLRCOND = 0xFF;
 11470  13D0  30FF               	movlw	255
 11471  13D1  008F               	movwf	15	;volatile
 11472  13D2                     l3671:
 11473                           
 11474                           ;mcc_generated_files/pin_manager.c: 110:     SLRCONE = 0x07;
 11475  13D2  3007               	movlw	7
 11476  13D3  0090               	movwf	16	;volatile
 11477  13D4                     l3673:
 11478                           
 11479                           ;mcc_generated_files/pin_manager.c: 115:     INLVLA = 0xFF;
 11480  13D4  30FF               	movlw	255
 11481  13D5  0027               	movlb	7	; select bank7
 11482  13D6  008C               	movwf	12	;volatile
 11483  13D7                     l3675:
 11484                           
 11485                           ;mcc_generated_files/pin_manager.c: 116:     INLVLB = 0xFF;
 11486  13D7  30FF               	movlw	255
 11487  13D8  008D               	movwf	13	;volatile
 11488  13D9                     l3677:
 11489                           
 11490                           ;mcc_generated_files/pin_manager.c: 117:     INLVLC = 0xFF;
 11491  13D9  30FF               	movlw	255
 11492  13DA  008E               	movwf	14	;volatile
 11493  13DB                     l3679:
 11494                           
 11495                           ;mcc_generated_files/pin_manager.c: 118:     INLVLD = 0xFF;
 11496  13DB  30FF               	movlw	255
 11497  13DC  008F               	movwf	15	;volatile
 11498  13DD                     l3681:
 11499                           
 11500                           ;mcc_generated_files/pin_manager.c: 119:     INLVLE = 0x0F;
 11501  13DD  300F               	movlw	15
 11502  13DE  0090               	movwf	16	;volatile
 11503  13DF                     l3683:
 11504                           
 11505                           ;mcc_generated_files/pin_manager.c: 128:     RXPPS = 0x17;
 11506  13DF  3017               	movlw	23
 11507  13E0  003C               	movlb	28	; select bank28
 11508  13E1  00A4               	movwf	36	;volatile
 11509  13E2                     l3685:
 11510                           
 11511                           ;mcc_generated_files/pin_manager.c: 129:     RC6PPS = 0x14;
 11512  13E2  3014               	movlw	20
 11513  13E3  003D               	movlb	29	; select bank29
 11514  13E4  00A6               	movwf	38	;volatile
 11515  13E5                     l104:
 11516  13E5  0008               	return
 11517  13E6                     __end_of_PIN_MANAGER_Initialize:
 11518                           
 11519                           	psect	text39
 11520  1187                     __ptext39:	
 11521 ;; *************** function _OSCILLATOR_Initialize *****************
 11522 ;; Defined at:
 11523 ;;		line 59 in file "mcc_generated_files/mcc.c"
 11524 ;; Parameters:    Size  Location     Type
 11525 ;;		None
 11526 ;; Auto vars:     Size  Location     Type
 11527 ;;		None
 11528 ;; Return value:  Size  Location     Type
 11529 ;;                  1    wreg      void 
 11530 ;; Registers used:
 11531 ;;		wreg, status,2
 11532 ;; Tracked objects:
 11533 ;;		On entry : 0/0
 11534 ;;		On exit  : 0/0
 11535 ;;		Unchanged: 0/0
 11536 ;; Data sizes:     COMMON   BANK0   BANK1   BANK2   BANK3   BANK4   BANK5   BANK6   BANK7   BANK8   BANK9  BANK10  BANK1
      +1  BANK12
 11537 ;;      Params:         0       0       0       0       0       0       0       0       0       0       0       0       
      +0       0
 11538 ;;      Locals:         0       0       0       0       0       0       0       0       0       0       0       0       
      +0       0
 11539 ;;      Temps:          0       0       0       0       0       0       0       0       0       0       0       0       
      +0       0
 11540 ;;      Totals:         0       0       0       0       0       0       0       0       0       0       0       0       
      +0       0
 11541 ;;Total ram usage:        0 bytes
 11542 ;; Hardware stack levels used:    1
 11543 ;; This function calls:
 11544 ;;		Nothing
 11545 ;; This function is called by:
 11546 ;;		_SYSTEM_Initialize
 11547 ;; This function uses a non-reentrant model
 11548 ;;
 11549                           
 11550                           
 11551                           ;psect for function _OSCILLATOR_Initialize
 11552  1187                     _OSCILLATOR_Initialize:
 11553  1187                     l3687:	
 11554                           ;incstack = 0
 11555                           ; Regs used in _OSCILLATOR_Initialize: [wreg+status,2]
 11556                           
 11557                           
 11558                           ;mcc_generated_files/mcc.c: 62:     OSCCON = 0x38;
 11559  1187  3038               	movlw	56
 11560  1188  0021               	movlb	1	; select bank1
 11561  1189  0099               	movwf	25	;volatile
 11562  118A                     l3689:
 11563                           
 11564                           ;mcc_generated_files/mcc.c: 64:     OSCTUNE = 0x00;
 11565  118A  0198               	clrf	24	;volatile
 11566  118B                     l3691:
 11567                           
 11568                           ;mcc_generated_files/mcc.c: 66:     BORCON = 0x00;
 11569  118B  0022               	movlb	2	; select bank2
 11570  118C  0196               	clrf	22	;volatile
 11571  118D                     l22:
 11572  118D  0008               	return
 11573  118E                     __end_of_OSCILLATOR_Initialize:
 11574                           
 11575                           	psect	text40
 11576  12BF                     __ptext40:	
 11577 ;; *************** function _EUSART_Initialize *****************
 11578 ;; Defined at:
 11579 ;;		line 66 in file "mcc_generated_files/eusart.c"
 11580 ;; Parameters:    Size  Location     Type
 11581 ;;		None
 11582 ;; Auto vars:     Size  Location     Type
 11583 ;;		None
 11584 ;; Return value:  Size  Location     Type
 11585 ;;                  1    wreg      void 
 11586 ;; Registers used:
 11587 ;;		wreg, status,2, status,0, pclath, cstack
 11588 ;; Tracked objects:
 11589 ;;		On entry : 0/0
 11590 ;;		On exit  : 0/0
 11591 ;;		Unchanged: 0/0
 11592 ;; Data sizes:     COMMON   BANK0   BANK1   BANK2   BANK3   BANK4   BANK5   BANK6   BANK7   BANK8   BANK9  BANK10  BANK1
      +1  BANK12
 11593 ;;      Params:         0       0       0       0       0       0       0       0       0       0       0       0       
      +0       0
 11594 ;;      Locals:         0       0       0       0       0       0       0       0       0       0       0       0       
      +0       0
 11595 ;;      Temps:          0       0       0       0       0       0       0       0       0       0       0       0       
      +0       0
 11596 ;;      Totals:         0       0       0       0       0       0       0       0       0       0       0       0       
      +0       0
 11597 ;;Total ram usage:        0 bytes
 11598 ;; Hardware stack levels used:    1
 11599 ;; Hardware stack levels required when called:    1
 11600 ;; This function calls:
 11601 ;;		_EUSART_SetErrorHandler
 11602 ;;		_EUSART_SetFramingErrorHandler
 11603 ;;		_EUSART_SetOverrunErrorHandler
 11604 ;; This function is called by:
 11605 ;;		_SYSTEM_Initialize
 11606 ;; This function uses a non-reentrant model
 11607 ;;
 11608                           
 11609                           
 11610                           ;psect for function _EUSART_Initialize
 11611  12BF                     _EUSART_Initialize:
 11612  12BF                     l3695:	
 11613                           ;incstack = 0
 11614                           ; Regs used in _EUSART_Initialize: [wreg+status,2+status,0+pclath+cstack]
 11615                           
 11616                           
 11617                           ;mcc_generated_files/eusart.c: 71:     BAUD1CON = 0x08;
 11618  12BF  3008               	movlw	8
 11619  12C0  0023               	movlb	3	; select bank3
 11620  12C1  009F               	movwf	31	;volatile
 11621                           
 11622                           ;mcc_generated_files/eusart.c: 74:     RC1STA = 0x90;
 11623  12C2  3090               	movlw	144
 11624  12C3  009D               	movwf	29	;volatile
 11625                           
 11626                           ;mcc_generated_files/eusart.c: 77:     TX1STA = 0x24;
 11627  12C4  3024               	movlw	36
 11628  12C5  009E               	movwf	30	;volatile
 11629                           
 11630                           ;mcc_generated_files/eusart.c: 80:     SP1BRGL = 0x0C;
 11631  12C6  300C               	movlw	12
 11632  12C7  009B               	movwf	27	;volatile
 11633  12C8                     l3697:
 11634                           
 11635                           ;mcc_generated_files/eusart.c: 83:     SP1BRGH = 0x00;
 11636  12C8  019C               	clrf	28	;volatile
 11637  12C9                     l3699:
 11638                           
 11639                           ;mcc_generated_files/eusart.c: 86:     EUSART_SetFramingErrorHandler(EUSART_DefaultFrami
      +                          ngErrorHandler);
 11640  12C9  3000               	movlw	0
 11641  12CA  00F0               	movwf	EUSART_SetFramingErrorHandler@interruptHandler
 11642  12CB  3000               	movlw	0
 11643  12CC  00F1               	movwf	EUSART_SetFramingErrorHandler@interruptHandler+1
 11644  12CD  3191  216F  3192   	fcall	_EUSART_SetFramingErrorHandler
 11645  12D0                     l3701:
 11646                           
 11647                           ;mcc_generated_files/eusart.c: 87:     EUSART_SetOverrunErrorHandler(EUSART_DefaultOverr
      +                          unErrorHandler);
 11648  12D0  3000               	movlw	0
 11649  12D1  00F0               	movwf	EUSART_SetOverrunErrorHandler@interruptHandler
 11650  12D2  3000               	movlw	0
 11651  12D3  00F1               	movwf	EUSART_SetOverrunErrorHandler@interruptHandler+1
 11652  12D4  3191  2175  3192   	fcall	_EUSART_SetOverrunErrorHandler
 11653  12D7                     l3703:
 11654                           
 11655                           ;mcc_generated_files/eusart.c: 88:     EUSART_SetErrorHandler(EUSART_DefaultErrorHandler
      +                          );
 11656  12D7  3000               	movlw	0
 11657  12D8  00F0               	movwf	EUSART_SetErrorHandler@interruptHandler
 11658  12D9  3000               	movlw	0
 11659  12DA  00F1               	movwf	EUSART_SetErrorHandler@interruptHandler+1
 11660  12DB  3191  2169  3192   	fcall	_EUSART_SetErrorHandler
 11661  12DE                     l3705:
 11662                           
 11663                           ;mcc_generated_files/eusart.c: 90:     eusartRxLastError.status = 0;
 11664  12DE  0020               	movlb	0	; select bank0
 11665  12DF  01EF               	clrf	_eusartRxLastError	;volatile
 11666  12E0                     l150:
 11667  12E0  0008               	return
 11668  12E1                     __end_of_EUSART_Initialize:
 11669                           
 11670                           	psect	text41
 11671  1175                     __ptext41:	
 11672 ;; *************** function _EUSART_SetOverrunErrorHandler *****************
 11673 ;; Defined at:
 11674 ;;		line 170 in file "mcc_generated_files/eusart.c"
 11675 ;; Parameters:    Size  Location     Type
 11676 ;;  interruptHan    2    0[COMMON] PTR FTN()void 
 11677 ;;		 -> EUSART_DefaultOverrunErrorHandler(1), 
 11678 ;; Auto vars:     Size  Location     Type
 11679 ;;		None
 11680 ;; Return value:  Size  Location     Type
 11681 ;;                  1    wreg      void 
 11682 ;; Registers used:
 11683 ;;		wreg
 11684 ;; Tracked objects:
 11685 ;;		On entry : 0/0
 11686 ;;		On exit  : 0/0
 11687 ;;		Unchanged: 0/0
 11688 ;; Data sizes:     COMMON   BANK0   BANK1   BANK2   BANK3   BANK4   BANK5   BANK6   BANK7   BANK8   BANK9  BANK10  BANK1
      +1  BANK12
 11689 ;;      Params:         2       0       0       0       0       0       0       0       0       0       0       0       
      +0       0
 11690 ;;      Locals:         0       0       0       0       0       0       0       0       0       0       0       0       
      +0       0
 11691 ;;      Temps:          0       0       0       0       0       0       0       0       0       0       0       0       
      +0       0
 11692 ;;      Totals:         2       0       0       0       0       0       0       0       0       0       0       0       
      +0       0
 11693 ;;Total ram usage:        2 bytes
 11694 ;; Hardware stack levels used:    1
 11695 ;; This function calls:
 11696 ;;		Nothing
 11697 ;; This function is called by:
 11698 ;;		_EUSART_Initialize
 11699 ;; This function uses a non-reentrant model
 11700 ;;
 11701                           
 11702                           
 11703                           ;psect for function _EUSART_SetOverrunErrorHandler
 11704  1175                     _EUSART_SetOverrunErrorHandler:
 11705  1175                     l3623:	
 11706                           ;incstack = 0
 11707                           ; Regs used in _EUSART_SetOverrunErrorHandler: [wreg]
 11708                           
 11709                           
 11710                           ;mcc_generated_files/eusart.c: 171:     EUSART_OverrunErrorHandler = interruptHandler;
 11711  1175  0871               	movf	EUSART_SetOverrunErrorHandler@interruptHandler+1,w
 11712  1176  0022               	movlb	2	; select bank2
 11713  1177  00BD               	movwf	(_EUSART_OverrunErrorHandler+1)^(0+256)
 11714  1178  0870               	movf	EUSART_SetOverrunErrorHandler@interruptHandler,w
 11715  1179  00BC               	movwf	_EUSART_OverrunErrorHandler^(0+256)
 11716  117A                     l198:
 11717  117A  0008               	return
 11718  117B                     __end_of_EUSART_SetOverrunErrorHandler:
 11719                           
 11720                           	psect	text42
 11721  116F                     __ptext42:	
 11722 ;; *************** function _EUSART_SetFramingErrorHandler *****************
 11723 ;; Defined at:
 11724 ;;		line 166 in file "mcc_generated_files/eusart.c"
 11725 ;; Parameters:    Size  Location     Type
 11726 ;;  interruptHan    2    0[COMMON] PTR FTN()void 
 11727 ;;		 -> EUSART_DefaultFramingErrorHandler(1), 
 11728 ;; Auto vars:     Size  Location     Type
 11729 ;;		None
 11730 ;; Return value:  Size  Location     Type
 11731 ;;                  1    wreg      void 
 11732 ;; Registers used:
 11733 ;;		wreg
 11734 ;; Tracked objects:
 11735 ;;		On entry : 0/0
 11736 ;;		On exit  : 0/0
 11737 ;;		Unchanged: 0/0
 11738 ;; Data sizes:     COMMON   BANK0   BANK1   BANK2   BANK3   BANK4   BANK5   BANK6   BANK7   BANK8   BANK9  BANK10  BANK1
      +1  BANK12
 11739 ;;      Params:         2       0       0       0       0       0       0       0       0       0       0       0       
      +0       0
 11740 ;;      Locals:         0       0       0       0       0       0       0       0       0       0       0       0       
      +0       0
 11741 ;;      Temps:          0       0       0       0       0       0       0       0       0       0       0       0       
      +0       0
 11742 ;;      Totals:         2       0       0       0       0       0       0       0       0       0       0       0       
      +0       0
 11743 ;;Total ram usage:        2 bytes
 11744 ;; Hardware stack levels used:    1
 11745 ;; This function calls:
 11746 ;;		Nothing
 11747 ;; This function is called by:
 11748 ;;		_EUSART_Initialize
 11749 ;; This function uses a non-reentrant model
 11750 ;;
 11751                           
 11752                           
 11753                           ;psect for function _EUSART_SetFramingErrorHandler
 11754  116F                     _EUSART_SetFramingErrorHandler:
 11755  116F                     l3621:	
 11756                           ;incstack = 0
 11757                           ; Regs used in _EUSART_SetFramingErrorHandler: [wreg]
 11758                           
 11759                           
 11760                           ;mcc_generated_files/eusart.c: 167:     EUSART_FramingErrorHandler = interruptHandler;
 11761  116F  0871               	movf	EUSART_SetFramingErrorHandler@interruptHandler+1,w
 11762  1170  0021               	movlb	1	; select bank1
 11763  1171  00EE               	movwf	(_EUSART_FramingErrorHandler+1)^(0+128)
 11764  1172  0870               	movf	EUSART_SetFramingErrorHandler@interruptHandler,w
 11765  1173  00ED               	movwf	_EUSART_FramingErrorHandler^(0+128)
 11766  1174                     l195:
 11767  1174  0008               	return
 11768  1175                     __end_of_EUSART_SetFramingErrorHandler:
 11769                           
 11770                           	psect	text43
 11771  1169                     __ptext43:	
 11772 ;; *************** function _EUSART_SetErrorHandler *****************
 11773 ;; Defined at:
 11774 ;;		line 174 in file "mcc_generated_files/eusart.c"
 11775 ;; Parameters:    Size  Location     Type
 11776 ;;  interruptHan    2    0[COMMON] PTR FTN()void 
 11777 ;;		 -> EUSART_DefaultErrorHandler(1), 
 11778 ;; Auto vars:     Size  Location     Type
 11779 ;;		None
 11780 ;; Return value:  Size  Location     Type
 11781 ;;                  1    wreg      void 
 11782 ;; Registers used:
 11783 ;;		wreg
 11784 ;; Tracked objects:
 11785 ;;		On entry : 0/0
 11786 ;;		On exit  : 0/0
 11787 ;;		Unchanged: 0/0
 11788 ;; Data sizes:     COMMON   BANK0   BANK1   BANK2   BANK3   BANK4   BANK5   BANK6   BANK7   BANK8   BANK9  BANK10  BANK1
      +1  BANK12
 11789 ;;      Params:         2       0       0       0       0       0       0       0       0       0       0       0       
      +0       0
 11790 ;;      Locals:         0       0       0       0       0       0       0       0       0       0       0       0       
      +0       0
 11791 ;;      Temps:          0       0       0       0       0       0       0       0       0       0       0       0       
      +0       0
 11792 ;;      Totals:         2       0       0       0       0       0       0       0       0       0       0       0       
      +0       0
 11793 ;;Total ram usage:        2 bytes
 11794 ;; Hardware stack levels used:    1
 11795 ;; This function calls:
 11796 ;;		Nothing
 11797 ;; This function is called by:
 11798 ;;		_EUSART_Initialize
 11799 ;; This function uses a non-reentrant model
 11800 ;;
 11801                           
 11802                           
 11803                           ;psect for function _EUSART_SetErrorHandler
 11804  1169                     _EUSART_SetErrorHandler:
 11805  1169                     l3625:	
 11806                           ;incstack = 0
 11807                           ; Regs used in _EUSART_SetErrorHandler: [wreg]
 11808                           
 11809                           
 11810                           ;mcc_generated_files/eusart.c: 175:     EUSART_ErrorHandler = interruptHandler;
 11811  1169  0871               	movf	EUSART_SetErrorHandler@interruptHandler+1,w
 11812  116A  0022               	movlb	2	; select bank2
 11813  116B  00BB               	movwf	(_EUSART_ErrorHandler+1)^(0+256)
 11814  116C  0870               	movf	EUSART_SetErrorHandler@interruptHandler,w
 11815  116D  00BA               	movwf	_EUSART_ErrorHandler^(0+256)
 11816  116E                     l201:
 11817  116E  0008               	return
 11818  116F                     __end_of_EUSART_SetErrorHandler:
 11819  007E                     btemp	set	126	;btemp
 11820  007E                     wtemp0	set	126
 11821                           
 11822                           	psect	config
 11823                           
 11824                           ;Config register CONFIG1 @ 0x8007
 11825                           ;	Oscillator Selection Bits
 11826                           ;	FOSC = INTOSC, INTOSC oscillator: I/O function on CLKIN pin
 11827                           ;	Watchdog Timer Enable
 11828                           ;	WDTE = OFF, WDT disabled
 11829                           ;	Power-up Timer Enable
 11830                           ;	PWRTE = OFF, PWRT disabled
 11831                           ;	MCLR Pin Function Select
 11832                           ;	MCLRE = ON, MCLR/VPP pin function is MCLR
 11833                           ;	Flash Program Memory Code Protection
 11834                           ;	CP = OFF, Program memory code protection is disabled
 11835                           ;	Brown-out Reset Enable
 11836                           ;	BOREN = ON, Brown-out Reset enabled
 11837                           ;	Clock Out Enable
 11838                           ;	CLKOUTEN = OFF, CLKOUT function is disabled. I/O or oscillator function on the CLKOUT 
      +                          pin
 11839                           ;	Internal/External Switchover Mode
 11840                           ;	IESO = ON, Internal/External Switchover Mode is enabled
 11841                           ;	Fail-Safe Clock Monitor Enable
 11842                           ;	FCMEN = ON, Fail-Safe Clock Monitor is enabled
 11843  8007                     	org	32775
 11844  8007  3FE4               	dw	16356
 11845                           
 11846                           ;Config register CONFIG2 @ 0x8008
 11847                           ;	Flash Memory Self-Write Protection
 11848                           ;	WRT = OFF, Write protection off
 11849                           ;	Peripheral Pin Select one-way control
 11850                           ;	PPS1WAY = ON, The PPSLOCK bit cannot be cleared once it is set by software
 11851                           ;	Zero-cross detect disable
 11852                           ;	ZCDDIS = ON, Zero-cross detect circuit is disabled at POR and can be enabled with ZCDS
      +                          EN bit.
 11853                           ;	Phase Lock Loop enable
 11854                           ;	PLLEN = OFF, 4x PLL is enabled when software sets the SPLLEN bit
 11855                           ;	Stack Overflow/Underflow Reset Enable
 11856                           ;	STVREN = ON, Stack Overflow or Underflow will cause a Reset
 11857                           ;	Brown-out Reset Voltage Selection
 11858                           ;	BORV = LO, Brown-out Reset Voltage (Vbor), low trip point selected.
 11859                           ;	Low-Power Brown Out Reset
 11860                           ;	LPBOR = OFF, Low-Power BOR is disabled
 11861                           ;	Low-Voltage Programming Enable
 11862                           ;	LVP = ON, Low-voltage programming enabled
 11863  8008                     	org	32776
 11864  8008  3EFF               	dw	16127

Data Sizes:
    Strings     258
    Constant    0
    Data        0
    BSS         97
    Persistent  38
    Stack       0

Auto Spaces:
    Space          Size  Autos    Used
    COMMON           14     14      14
    BANK0            80     79      80
    BANK1            80     61      79
    BANK2            80     26      30
    BANK3            80      0      80
    BANK4            80      0       0
    BANK5            80      0       0
    BANK6            80      0       0
    BANK7            80      0       0
    BANK8            80      0       0
    BANK9            80      0       0
    BANK10           80      0       0
    BANK11           80      0       0
    BANK12           48      0       0

Pointer List with Targets:

    strncmp@_r	PTR const unsigned char  size(2) Largest target is 3
		 -> STR_28(CODE[3]), 

    strncmp@r	PTR const unsigned char  size(2) Largest target is 3
		 -> STR_28(CODE[3]), 

    strncmp@_l	PTR const unsigned char  size(1) Largest target is 3
		 -> vfpfcnvrt@ct(BANK0[3]), 

    strncmp@l	PTR const unsigned char  size(1) Largest target is 3
		 -> vfpfcnvrt@ct(BANK0[3]), 

    strlen@s	PTR const unsigned char  size(1) Largest target is 80
		 -> dbuf(BANK3[80]), 

    strlen@a	PTR const unsigned char  size(1) Largest target is 80
		 -> dbuf(BANK3[80]), 

    strcpy@dest	PTR unsigned char  size(1) Largest target is 80
		 -> dbuf(BANK3[80]), 

    strcpy@d	PTR unsigned char  size(1) Largest target is 80
		 -> dbuf(BANK3[80]), 

    strcpy@src	PTR const unsigned char  size(2) Largest target is 80
		 -> STR_23(CODE[4]), STR_22(CODE[4]), STR_19(CODE[4]), STR_18(CODE[4]), 
		 -> dbuf(BANK3[80]), 

    strcpy@s	PTR const unsigned char  size(2) Largest target is 80
		 -> STR_23(CODE[4]), STR_22(CODE[4]), STR_19(CODE[4]), STR_18(CODE[4]), 
		 -> dbuf(BANK3[80]), 

    fputs@s	PTR const unsigned char  size(1) Largest target is 80
		 -> dbuf(BANK3[80]), 

    fputs@fp	PTR struct _IO_FILE size(1) Largest target is 0
		 -> NULL(NULL[0]), 

    S809_IO_FILE$buffer	PTR unsigned char  size(1) Largest target is 0

    fputc@fp.buffer	PTR unsigned char  size(1) Largest target is 0

    fputc@fp	PTR struct _IO_FILE size(1) Largest target is 0
		 -> NULL(NULL[0]), 

    vfprintf@ap	PTR PTR void  size(1) Largest target is 1
		 -> printf@ap(BANK0[1]), 

    vfprintf@fp	PTR struct _IO_FILE size(1) Largest target is 0
		 -> NULL(NULL[0]), 

    vfprintf@fmt	PTR const unsigned char  size(2) Largest target is 30
		 -> STR_17(CODE[9]), STR_16(CODE[9]), STR_15(CODE[9]), STR_14(CODE[9]), 
		 -> STR_13(CODE[9]), STR_12(CODE[9]), STR_11(CODE[9]), STR_10(CODE[9]), 
		 -> STR_9(CODE[21]), STR_8(CODE[21]), STR_7(CODE[29]), STR_6(CODE[21]), 
		 -> STR_5(CODE[22]), STR_4(CODE[22]), STR_3(CODE[22]), STR_2(CODE[30]), 
		 -> STR_1(CODE[24]), 

    vfprintf@cfmt	PTR unsigned char  size(2) Largest target is 30
		 -> STR_17(CODE[9]), STR_16(CODE[9]), STR_15(CODE[9]), STR_14(CODE[9]), 
		 -> STR_13(CODE[9]), STR_12(CODE[9]), STR_11(CODE[9]), STR_10(CODE[9]), 
		 -> STR_9(CODE[21]), STR_8(CODE[21]), STR_7(CODE[29]), STR_6(CODE[21]), 
		 -> STR_5(CODE[22]), STR_4(CODE[22]), STR_3(CODE[22]), STR_2(CODE[30]), 
		 -> STR_1(CODE[24]), 

    vfpfcnvrt@fp	PTR struct _IO_FILE size(1) Largest target is 0
		 -> NULL(NULL[0]), 

    vfpfcnvrt@ap	PTR PTR void  size(1) Largest target is 1
		 -> printf@ap(BANK0[1]), 

    vfpfcnvrt@fmt	PTR PTR unsigned char  size(1) Largest target is 2
		 -> vfprintf@cfmt(BANK0[2]), 

    efgtoa@fp	PTR struct _IO_FILE size(1) Largest target is 0
		 -> NULL(NULL[0]), 

    sp__strcpy	PTR unsigned char  size(1) Largest target is 80
		 -> dbuf(BANK3[80]), 

    pad@fp	PTR struct _IO_FILE size(1) Largest target is 0
		 -> NULL(NULL[0]), 

    pad@buf	PTR unsigned char  size(1) Largest target is 80
		 -> dbuf(BANK3[80]), 

    printf@fmt	PTR const unsigned char  size(2) Largest target is 30
		 -> STR_17(CODE[9]), STR_16(CODE[9]), STR_15(CODE[9]), STR_14(CODE[9]), 
		 -> STR_13(CODE[9]), STR_12(CODE[9]), STR_11(CODE[9]), STR_10(CODE[9]), 
		 -> STR_9(CODE[21]), STR_8(CODE[21]), STR_7(CODE[29]), STR_6(CODE[21]), 
		 -> STR_5(CODE[22]), STR_4(CODE[22]), STR_3(CODE[22]), STR_2(CODE[30]), 
		 -> STR_1(CODE[24]), 

    printf@ap	PTR void [1] size(1) Largest target is 2
		 -> ?_printf(BANK0[2]), 

    initialize_led@led.set_color	PTR FTN(float ,)void  size(2) Largest target is 1
		 -> set_color(), 

    initialize_led@led.set_brightness	PTR FTN(float ,)void  size(2) Largest target is 1
		 -> set_brightness(), 

    initialize_led@led.turn_red	PTR FTN()void  size(2) Largest target is 1
		 -> turn_red(), 

    initialize_led@led.turn_green	PTR FTN()void  size(2) Largest target is 1
		 -> turn_green(), 

    initialize_led@led.turn_blue	PTR FTN()void  size(2) Largest target is 1
		 -> turn_blue(), 

    initialize_lcd_screen@lcd_screen_var.demo3	PTR FTN()void  size(2) Largest target is 1
		 -> demo3(), 

    initialize_lcd_screen@lcd_screen_var.demo2	PTR FTN()void  size(2) Largest target is 1
		 -> demo2(), 

    initialize_lcd_screen@lcd_screen_var.demo1	PTR FTN()void  size(2) Largest target is 1
		 -> demo1(), 

    initialize_lcd_screen@lcd_screen_var	PTR struct lcd_screen size(1) Largest target is 6
		 -> main@lcd_screen(BANK2[6]), 

    initialize_temp@sensor_var.close	PTR FTN()void  size(2) Largest target is 1
		 -> close@temp_sensor$F422(), close(), 

    initialize_temp@sensor_var.read	PTR FTN()float  size(2) Largest target is 4
		 -> read@temp_sensor$F420(), read(), 

    initialize_temp@sensor_var.open	PTR FTN()_Bool  size(2) Largest target is 1
		 -> open@temp_sensor$F416(), open(), 

    initialize_temp@sensor_var	PTR struct sensor size(1) Largest target is 6
		 -> main@temp_sensor(BANK2[6]), 

    initialize_light@sensor_var.close	PTR FTN()void  size(2) Largest target is 1
		 -> close@temp_sensor$F422(), close(), 

    initialize_light@sensor_var.read	PTR FTN()float  size(2) Largest target is 4
		 -> read@temp_sensor$F420(), read(), 

    initialize_light@sensor_var.open	PTR FTN()_Bool  size(2) Largest target is 1
		 -> open@temp_sensor$F416(), open(), 

    initialize_light@sensor_var	PTR struct sensor size(1) Largest target is 6
		 -> main@light_sensor(BANK2[6]), 

    S316led$set_color	PTR FTN(float ,)void  size(2) Largest target is 1
		 -> set_color(), 

    led.set_color	PTR FTN(float ,)void  size(2) Largest target is 1
		 -> set_color(), 

    S316led$set_brightness	PTR FTN(float ,)void  size(2) Largest target is 1
		 -> set_brightness(), 

    led.set_brightness	PTR FTN(float ,)void  size(2) Largest target is 1
		 -> set_brightness(), 

    S316led$turn_red	PTR FTN()void  size(2) Largest target is 1
		 -> turn_red(), 

    led.turn_red	PTR FTN()void  size(2) Largest target is 1
		 -> turn_red(), 

    S316led$turn_green	PTR FTN()void  size(2) Largest target is 1
		 -> turn_green(), 

    led.turn_green	PTR FTN()void  size(2) Largest target is 1
		 -> turn_green(), 

    S316led$turn_blue	PTR FTN()void  size(2) Largest target is 1
		 -> turn_blue(), 

    led.turn_blue	PTR FTN()void  size(2) Largest target is 1
		 -> turn_blue(), 

    S307lcd_screen$demo3	PTR FTN()void  size(2) Largest target is 1
		 -> demo3(), 

    lcd_screen.demo3	PTR FTN()void  size(2) Largest target is 1
		 -> demo3(), 

    S307lcd_screen$demo2	PTR FTN()void  size(2) Largest target is 1
		 -> demo2(), 

    lcd_screen.demo2	PTR FTN()void  size(2) Largest target is 1
		 -> demo2(), 

    S307lcd_screen$demo1	PTR FTN()void  size(2) Largest target is 1
		 -> demo1(), 

    lcd_screen.demo1	PTR FTN()void  size(2) Largest target is 1
		 -> demo1(), 

    temp_sensor.close	PTR FTN()void  size(2) Largest target is 1
		 -> close@temp_sensor$F422(), close(), 

    temp_sensor.read	PTR FTN()float  size(2) Largest target is 4
		 -> read@temp_sensor$F420(), read(), 

    temp_sensor.open	PTR FTN()_Bool  size(2) Largest target is 1
		 -> open@temp_sensor$F416(), open(), 

    S300sensor$close	PTR FTN()void  size(2) Largest target is 1
		 -> close@temp_sensor$F422(), close(), 

    light_sensor.close	PTR FTN()void  size(2) Largest target is 1
		 -> close@temp_sensor$F422(), close(), 

    S300sensor$read	PTR FTN()float  size(2) Largest target is 4
		 -> read@temp_sensor$F420(), read(), 

    light_sensor.read	PTR FTN()float  size(2) Largest target is 4
		 -> read@temp_sensor$F420(), read(), 

    S300sensor$open	PTR FTN()_Bool  size(2) Largest target is 1
		 -> open@temp_sensor$F416(), open(), 

    light_sensor.open	PTR FTN()_Bool  size(2) Largest target is 1
		 -> open@temp_sensor$F416(), open(), 

    EUSART_SetErrorHandler@interruptHandler	PTR FTN()void  size(2) Largest target is 1
		 -> EUSART_DefaultErrorHandler(), 

    EUSART_ErrorHandler	PTR FTN()void  size(2) Largest target is 1
		 -> Absolute function(), EUSART_DefaultErrorHandler(), 

    EUSART_SetOverrunErrorHandler@interruptHandler	PTR FTN()void  size(2) Largest target is 1
		 -> EUSART_DefaultOverrunErrorHandler(), 

    EUSART_OverrunErrorHandler	PTR FTN()void  size(2) Largest target is 1
		 -> Absolute function(), EUSART_DefaultOverrunErrorHandler(), 

    EUSART_SetFramingErrorHandler@interruptHandler	PTR FTN()void  size(2) Largest target is 1
		 -> EUSART_DefaultFramingErrorHandler(), 

    EUSART_FramingErrorHandler	PTR FTN()void  size(2) Largest target is 1
		 -> Absolute function(), EUSART_DefaultFramingErrorHandler(), 


Critical Paths under _main in COMMON

    _vfpfcnvrt->_tolower
    _efgtoa->___flmul
    _efgtoa->_tolower
    _tolower->_isupper
    _pad->_fputs
    _fputs->_fputc
    _fputc->_putch
    _putch->_EUSART_Write
    _floorf->___fldiv
    ___flsub->___flmul
    ___flmul->__Umul8_16
    ___flge->___flmul
    _EUSART_Initialize->_EUSART_SetErrorHandler
    _EUSART_Initialize->_EUSART_SetFramingErrorHandler
    _EUSART_Initialize->_EUSART_SetOverrunErrorHandler

Critical Paths under _main in BANK0

    _main->_printf
    _read@temp_sensor$F420->_printf
    _read->_printf
    _demo3->_printf
    _demo2->_printf
    _demo1->_printf
    _printf->_vfprintf
    _vfprintf->_vfpfcnvrt
    _vfpfcnvrt->_efgtoa
    _efgtoa->___flge
    _efgtoa->_floorf
    _pad->_fputs
    _floorf->___fldiv
    ___flsub->___flmul
    ___flge->___flmul

Critical Paths under _main in BANK1

    _main->_read
    _main->_read@temp_sensor$F420
    _vfpfcnvrt->_efgtoa

Critical Paths under _main in BANK2

    None.

Critical Paths under _main in BANK3

    None.

Critical Paths under _main in BANK4

    None.

Critical Paths under _main in BANK5

    None.

Critical Paths under _main in BANK6

    None.

Critical Paths under _main in BANK7

    None.

Critical Paths under _main in BANK8

    None.

Critical Paths under _main in BANK9

    None.

Critical Paths under _main in BANK10

    None.

Critical Paths under _main in BANK11

    None.

Critical Paths under _main in BANK12

    None.

Call Graph Tables:

 ---------------------------------------------------------------------------------
 (Depth) Function   	        Calls       Base Space   Used Autos Params    Refs
 ---------------------------------------------------------------------------------
 (0) _main                                                36    36      0  162361
                                              0 BANK2     26    26      0
                  _SYSTEM_Initialize
                              _demo1 *
                              _demo2 *
                              _demo3 *
              _initialize_lcd_screen
                   _initialize_light
                    _initialize_temp
                             _printf
                               _read *
              _read@temp_sensor$F420 *
 ---------------------------------------------------------------------------------
 (1) _read@temp_sensor$F420                                4     0      4   26921
                                             57 BANK1      4     0      4
                             _printf
 ---------------------------------------------------------------------------------
 (1) _read                                                 4     0      4   26921
                                             57 BANK1      4     0      4
                             _printf
 ---------------------------------------------------------------------------------
 (1) _initialize_temp                                      1     1      0      99
                                              0 COMMON     1     1      0
 ---------------------------------------------------------------------------------
 (1) _initialize_light                                     1     1      0      99
                                              0 COMMON     1     1      0
 ---------------------------------------------------------------------------------
 (1) _initialize_lcd_screen                                1     1      0      99
                                              0 COMMON     1     1      0
 ---------------------------------------------------------------------------------
 (1) _demo3                                                0     0      0   26921
                             _printf
 ---------------------------------------------------------------------------------
 (1) _demo2                                                0     0      0   26921
                             _printf
 ---------------------------------------------------------------------------------
 (1) _demo1                                                0     0      0   26921
                             _printf
 ---------------------------------------------------------------------------------
 (2) _printf                                              10     4      6   26921
                                             69 BANK0     10     4      6
                           _vfprintf
 ---------------------------------------------------------------------------------
 (3) _vfprintf                                             8     5      3   25571
                                             61 BANK0      8     5      3
                          _vfpfcnvrt
 ---------------------------------------------------------------------------------
 (4) _vfpfcnvrt                                           43    41      2   25236
                                             42 BANK0     19    17      2
                             _efgtoa
                              _fputc
                            _isupper
                            _strncmp
                            _tolower
 ---------------------------------------------------------------------------------
 (5) _strncmp                                              9     5      4     410
                                              0 COMMON     9     5      4
 ---------------------------------------------------------------------------------
 (5) _efgtoa                                              66    61      5   21639
                                             33 BANK0      9     4      5
                                              0 BANK1     57    57      0
                            ___awdiv
                            ___awmod
                            ___fladd
                            ___fldiv
                             ___fleq
                             ___flge
                            ___flmul
                            ___flneg
                            ___flsub
                            ___fltol
                      ___fpclassifyf
                             _floorf
                            _isupper
                                _pad
                             _strcpy
                            _tolower
 ---------------------------------------------------------------------------------
 (5) _tolower                                              8     6      2     944
                                              6 COMMON     8     6      2
                            _isupper
 ---------------------------------------------------------------------------------
 (6) _isupper                                              6     4      2     465
                                              0 COMMON     6     4      2
 ---------------------------------------------------------------------------------
 (6) _strcpy                                               8     6      2     641
                                              0 COMMON     8     6      2
 ---------------------------------------------------------------------------------
 (6) _pad                                                  9     6      3    2914
                                              4 BANK0      9     6      3
                              _fputc
                              _fputs
                             _strlen
 ---------------------------------------------------------------------------------
 (7) _strlen                                               5     3      2     123
                                              0 COMMON     5     3      2
 ---------------------------------------------------------------------------------
 (7) _fputs                                                8     7      1    1127
                                             10 COMMON     4     3      1
                                              0 BANK0      4     4      0
                              _fputc
 ---------------------------------------------------------------------------------
 (5) _fputc                                                8     5      3     812
                                              2 COMMON     8     5      3
                              _putch
 ---------------------------------------------------------------------------------
 (6) _putch                                                1     1      0      44
                                              1 COMMON     1     1      0
                       _EUSART_Write
 ---------------------------------------------------------------------------------
 (7) _EUSART_Write                                         1     1      0      22
                                              0 COMMON     1     1      0
 ---------------------------------------------------------------------------------
 (6) _floorf                                              20    16      4     490
                                             13 BANK0     20    16      4
                            ___fldiv (ARG)
 ---------------------------------------------------------------------------------
 (6) ___fpclassifyf                                       16    12      4     287
                                              0 COMMON    10     6      4
                                              0 BANK0      6     6      0
 ---------------------------------------------------------------------------------
 (6) ___fltol                                             11     7      4     381
                                              0 COMMON    11     7      4
 ---------------------------------------------------------------------------------
 (6) ___flsub                                              8     0      8    2637
                                             21 BANK0      8     0      8
                            ___fladd
                            ___flmul (ARG)
 ---------------------------------------------------------------------------------
 (7) ___fladd                                             20    12      8    2288
                                              0 COMMON    12     4      8
                                              0 BANK0      8     8      0
 ---------------------------------------------------------------------------------
 (6) ___flneg                                              4     0      4     121
                                              0 COMMON     4     0      4
 ---------------------------------------------------------------------------------
 (6) ___flmul                                             26    18      8    3329
                                              9 COMMON     5     5      0
                                              0 BANK0     21    13      8
                          __Umul8_16
 ---------------------------------------------------------------------------------
 (7) __Umul8_16                                            9     7      2     799
                                              0 COMMON     9     7      2
 ---------------------------------------------------------------------------------
 (6) ___flge                                              12     4      8     942
                                             21 BANK0     12     4      8
                            ___flmul (ARG)
 ---------------------------------------------------------------------------------
 (6) ___fleq                                              12     4      8     394
                                              0 COMMON    12     4      8
 ---------------------------------------------------------------------------------
 (6) ___fldiv                                             26    18      8    1881
                                              0 COMMON    13     5      8
                                              0 BANK0     13    13      0
 ---------------------------------------------------------------------------------
 (6) ___awmod                                              7     3      4     448
                                              0 COMMON     7     3      4
 ---------------------------------------------------------------------------------
 (6) ___awdiv                                              9     5      4     452
                                              0 COMMON     9     5      4
 ---------------------------------------------------------------------------------
 (1) _SYSTEM_Initialize                                    0     0      0     294
                  _EUSART_Initialize
              _OSCILLATOR_Initialize
             _PIN_MANAGER_Initialize
                     _WDT_Initialize
 ---------------------------------------------------------------------------------
 (2) _WDT_Initialize                                       0     0      0       0
 ---------------------------------------------------------------------------------
 (2) _PIN_MANAGER_Initialize                               0     0      0       0
 ---------------------------------------------------------------------------------
 (2) _OSCILLATOR_Initialize                                0     0      0       0
 ---------------------------------------------------------------------------------
 (2) _EUSART_Initialize                                    0     0      0     294
             _EUSART_SetErrorHandler
      _EUSART_SetFramingErrorHandler
      _EUSART_SetOverrunErrorHandler
 ---------------------------------------------------------------------------------
 (3) _EUSART_SetOverrunErrorHandler                        2     0      2      98
                                              0 COMMON     2     0      2
 ---------------------------------------------------------------------------------
 (3) _EUSART_SetFramingErrorHandler                        2     0      2      98
                                              0 COMMON     2     0      2
 ---------------------------------------------------------------------------------
 (3) _EUSART_SetErrorHandler                               2     0      2      98
                                              0 COMMON     2     0      2
 ---------------------------------------------------------------------------------
 Estimated maximum stack depth 7
 ---------------------------------------------------------------------------------

 Call Graph Graphs:

 _main (ROOT)
   _SYSTEM_Initialize
     _EUSART_Initialize
       _EUSART_SetErrorHandler
       _EUSART_SetFramingErrorHandler
       _EUSART_SetOverrunErrorHandler
     _OSCILLATOR_Initialize
     _PIN_MANAGER_Initialize
     _WDT_Initialize
   _demo1 *
     _printf
       _vfprintf
         _vfpfcnvrt
           _efgtoa
             ___awdiv
             ___awmod
             ___fladd
             ___fldiv
             ___fleq
             ___flge
               ___flmul (ARG)
                 __Umul8_16
             ___flmul
               __Umul8_16
             ___flneg
             ___flsub
               ___fladd
               ___flmul (ARG)
                 __Umul8_16
             ___fltol
             ___fpclassifyf
             _floorf
               ___fldiv (ARG)
             _isupper
             _pad
               _fputc
                 _putch
                   _EUSART_Write
               _fputs
                 _fputc
                   _putch
                     _EUSART_Write
               _strlen
             _strcpy
             _tolower
               _isupper
           _fputc
             _putch
               _EUSART_Write
           _isupper
           _strncmp
           _tolower
             _isupper
   _demo2 *
     _printf
       _vfprintf
         _vfpfcnvrt
           _efgtoa
             ___awdiv
             ___awmod
             ___fladd
             ___fldiv
             ___fleq
             ___flge
               ___flmul (ARG)
                 __Umul8_16
             ___flmul
               __Umul8_16
             ___flneg
             ___flsub
               ___fladd
               ___flmul (ARG)
                 __Umul8_16
             ___fltol
             ___fpclassifyf
             _floorf
               ___fldiv (ARG)
             _isupper
             _pad
               _fputc
                 _putch
                   _EUSART_Write
               _fputs
                 _fputc
                   _putch
                     _EUSART_Write
               _strlen
             _strcpy
             _tolower
               _isupper
           _fputc
             _putch
               _EUSART_Write
           _isupper
           _strncmp
           _tolower
             _isupper
   _demo3 *
     _printf
       _vfprintf
         _vfpfcnvrt
           _efgtoa
             ___awdiv
             ___awmod
             ___fladd
             ___fldiv
             ___fleq
             ___flge
               ___flmul (ARG)
                 __Umul8_16
             ___flmul
               __Umul8_16
             ___flneg
             ___flsub
               ___fladd
               ___flmul (ARG)
                 __Umul8_16
             ___fltol
             ___fpclassifyf
             _floorf
               ___fldiv (ARG)
             _isupper
             _pad
               _fputc
                 _putch
                   _EUSART_Write
               _fputs
                 _fputc
                   _putch
                     _EUSART_Write
               _strlen
             _strcpy
             _tolower
               _isupper
           _fputc
             _putch
               _EUSART_Write
           _isupper
           _strncmp
           _tolower
             _isupper
   _initialize_lcd_screen *
   _initialize_light *
   _initialize_temp *
   _printf *
     _vfprintf
       _vfpfcnvrt
         _efgtoa
           ___awdiv
           ___awmod
           ___fladd
           ___fldiv
           ___fleq
           ___flge
             ___flmul (ARG)
               __Umul8_16
           ___flmul
             __Umul8_16
           ___flneg
           ___flsub
             ___fladd
             ___flmul (ARG)
               __Umul8_16
           ___fltol
           ___fpclassifyf
           _floorf
             ___fldiv (ARG)
           _isupper
           _pad
             _fputc
               _putch
                 _EUSART_Write
             _fputs
               _fputc
                 _putch
                   _EUSART_Write
             _strlen
           _strcpy
           _tolower
             _isupper
         _fputc
           _putch
             _EUSART_Write
         _isupper
         _strncmp
         _tolower
           _isupper
   _read *
     _printf
       _vfprintf
         _vfpfcnvrt
           _efgtoa
             ___awdiv
             ___awmod
             ___fladd
             ___fldiv
             ___fleq
             ___flge
               ___flmul (ARG)
                 __Umul8_16
             ___flmul
               __Umul8_16
             ___flneg
             ___flsub
               ___fladd
               ___flmul (ARG)
                 __Umul8_16
             ___fltol
             ___fpclassifyf
             _floorf
               ___fldiv (ARG)
             _isupper
             _pad
               _fputc
                 _putch
                   _EUSART_Write
               _fputs
                 _fputc
                   _putch
                     _EUSART_Write
               _strlen
             _strcpy
             _tolower
               _isupper
           _fputc
             _putch
               _EUSART_Write
           _isupper
           _strncmp
           _tolower
             _isupper
   _read@temp_sensor$F420 *
     _printf
       _vfprintf
         _vfpfcnvrt
           _efgtoa
             ___awdiv
             ___awmod
             ___fladd
             ___fldiv
             ___fleq
             ___flge
               ___flmul (ARG)
                 __Umul8_16
             ___flmul
               __Umul8_16
             ___flneg
             ___flsub
               ___fladd
               ___flmul (ARG)
                 __Umul8_16
             ___fltol
             ___fpclassifyf
             _floorf
               ___fldiv (ARG)
             _isupper
             _pad
               _fputc
                 _putch
                   _EUSART_Write
               _fputs
                 _fputc
                   _putch
                     _EUSART_Write
               _strlen
             _strcpy
             _tolower
               _isupper
           _fputc
             _putch
               _EUSART_Write
           _isupper
           _strncmp
           _tolower
             _isupper

 Address spaces:
Name               Size   Autos  Total    Cost      Usage
BIGRAM             3F0      0       0       0        0.0%
NULL                 0      0       0       0        0.0%
CODE                 0      0       0       0        0.0%
BITCOMMON            E      0       0       1        0.0%
BITSFR0              0      0       0       1        0.0%
SFR0                 0      0       0       1        0.0%
COMMON               E      E       E       2      100.0%
BITSFR1              0      0       0       2        0.0%
SFR1                 0      0       0       2        0.0%
BITSFR2              0      0       0       3        0.0%
SFR2                 0      0       0       3        0.0%
STACK                0      0       0       3        0.0%
BITBANK0            50      0       0       4        0.0%
BITSFR3              0      0       0       4        0.0%
SFR3                 0      0       0       4        0.0%
BANK0               50     4F      50       5      100.0%
BITSFR4              0      0       0       5        0.0%
SFR4                 0      0       0       5        0.0%
BITBANK1            50      0       0       6        0.0%
BITSFR5              0      0       0       6        0.0%
SFR5                 0      0       0       6        0.0%
BANK1               50     3D      4F       7       98.8%
BITSFR6              0      0       0       7        0.0%
SFR6                 0      0       0       7        0.0%
BITBANK2            50      0       0       8        0.0%
BITSFR7              0      0       0       8        0.0%
SFR7                 0      0       0       8        0.0%
BANK2               50     1A      1E       9       37.5%
BITSFR8              0      0       0       9        0.0%
SFR8                 0      0       0       9        0.0%
BITBANK3            50      0       0      10        0.0%
BITSFR9              0      0       0      10        0.0%
SFR9                 0      0       0      10        0.0%
BANK3               50      0      50      11      100.0%
BITSFR10             0      0       0      11        0.0%
SFR10                0      0       0      11        0.0%
BITBANK4            50      0       0      12        0.0%
BITSFR11             0      0       0      12        0.0%
SFR11                0      0       0      12        0.0%
BANK4               50      0       0      13        0.0%
BITSFR12             0      0       0      13        0.0%
SFR12                0      0       0      13        0.0%
BITBANK5            50      0       0      14        0.0%
BITSFR13             0      0       0      14        0.0%
SFR13                0      0       0      14        0.0%
BANK5               50      0       0      15        0.0%
BITSFR14             0      0       0      15        0.0%
SFR14                0      0       0      15        0.0%
BITBANK6            50      0       0      16        0.0%
BITSFR15             0      0       0      16        0.0%
SFR15                0      0       0      16        0.0%
BANK6               50      0       0      17        0.0%
BITSFR16             0      0       0      17        0.0%
SFR16                0      0       0      17        0.0%
BITBANK7            50      0       0      18        0.0%
BITSFR17             0      0       0      18        0.0%
SFR17                0      0       0      18        0.0%
BANK7               50      0       0      19        0.0%
BITSFR18             0      0       0      19        0.0%
SFR18                0      0       0      19        0.0%
BITSFR19             0      0       0      20        0.0%
SFR19                0      0       0      20        0.0%
ABS                  0      0     11B      20        0.0%
BITBANK8            50      0       0      21        0.0%
BITSFR20             0      0       0      21        0.0%
SFR20                0      0       0      21        0.0%
BANK8               50      0       0      22        0.0%
BITSFR21             0      0       0      22        0.0%
SFR21                0      0       0      22        0.0%
BITBANK9            50      0       0      23        0.0%
BITSFR22             0      0       0      23        0.0%
SFR22                0      0       0      23        0.0%
BANK9               50      0       0      24        0.0%
BITSFR23             0      0       0      24        0.0%
SFR23                0      0       0      24        0.0%
BITBANK10           50      0       0      25        0.0%
BITSFR24             0      0       0      25        0.0%
SFR24                0      0       0      25        0.0%
BANK10              50      0       0      26        0.0%
BITSFR25             0      0       0      26        0.0%
SFR25                0      0       0      26        0.0%
BITBANK11           50      0       0      27        0.0%
BITSFR26             0      0       0      27        0.0%
SFR26                0      0       0      27        0.0%
BANK11              50      0       0      28        0.0%
BITSFR27             0      0       0      28        0.0%
SFR27                0      0       0      28        0.0%
BITBANK12           30      0       0      29        0.0%
BITSFR28             0      0       0      29        0.0%
SFR28                0      0       0      29        0.0%
BANK12              30      0       0      30        0.0%
BITSFR29             0      0       0      30        0.0%
SFR29                0      0       0      30        0.0%
BITSFR30             0      0       0      31        0.0%
SFR30                0      0       0      31        0.0%
DATA                 0      0     11B      31        0.0%
BITSFR31             0      0       0      32        0.0%
SFR31                0      0       0      32        0.0%


Microchip Technology PIC Macro Assembler V2.31 build 20201012212115 
Symbol Table                                                                                   Sat Feb 27 12:43:02 2021

                                 ___fldiv@aexp 002C                                   ___fldiv@bexp 002B  
                                 ___fldiv@sign 0024                                             l22 118D  
                                           l25 1168                                             l19 11C1  
                                 ___awdiv@sign 0076                          _initialize_lcd_screen 122A  
                          __Umul8_16@word_mpld 0076                                            l104 13E5  
                                          l201 116E                                            l150 12E0  
                                          l233 1261                                            l242 11E5  
                                          l227 11F7                                            l253 1196  
                                          l174 11A1                                            l262 1245  
                                          l503 1596                                            l183 1180  
                                          l520 141E                                            l256 119F  
                                          l248 127D                                            l177 11A9  
                                          l195 1174                                            l531 16FB  
                                          l259 0808                                            l516 1486  
                                          l540 11B4                                            l525 1433  
                                          l198 117A                                            l519 1402  
                                          l551 15F5                                            l536 1714  
                                          l528 16A7                                            l544 160A  
                                          l554 160A                                            l731 0B60  
                                          l723 0AEB                                            l707 0A0D  
                                          l651 0BC8                                            l709 0B69  
                                          l813 11D3                                            l655 0C6A  
                                          l728 0B37                                            l672 0CFF  
                                          l664 0DA8                                            l729 0B51  
                                          l753 0F7B                                            l657 0C45  
                                          l682 0D43                                            l850 14FB  
                                          l914 0570                                            l747 0FFF  
                                          l676 0D21                                            l693 0D9E  
                                          l685 0D7B                                            l853 151D  
                                          l766 0016                                            l694 0DA8  
                                          l854 152B                                            l759 0FF3  
                                          l855 1537                                            l919 0586  
                                          l768 0026                                            l697 129D  
                                          l873 07EA                                            l955 09B5  
                                          l990 17F7                                            l888 0311  
                                          l985 1756                                            l889 02F6  
                                          l969 135F                                            l986 17FF  
                                          l979 1689                                            l899 0354  
                                          l996 120F                                            _pad 14DF  
               ?_EUSART_SetFramingErrorHandler 0070                                   ___awmod@sign 0076  
                                          wreg 0009                         _close@temp_sensor$F422 0000  
                                 ___flmul@aexp 002D                                   ___flmul@bexp 002E  
                                 ___flmul@sign 0028                                   ___flmul@temp 0033  
                                 ___flmul@prod 002F                                   ___fltol@exp1 007A  
                                         l1011 139E                                           l1031 1229  
                                         l1025 12BE                                           l1050 1305  
                                         l1019 132E                                           l1035 14DE  
                                         l1045 1305                                           l3001 0DB7  
                                         l3011 0DCC                                           l3003 0DB8  
                                         l3021 0DE2                                           l3013 0DD4  
                                         l3005 0DBD                                           l3111 0FA9  
                                         l3103 0F80                                           l3031 0DFE  
                                         l3023 0DE7                                           l3015 0DD9  
                                         l3007 0DC2                                           l3121 0FDB  
                                         l3105 0F85                                           l3113 0FAD  
                                         l3041 0E1E                                           l3033 0E03  
                                         l3025 0DEC                                           l3017 0DDD  
                                         l3009 0DCA                                           l3201 175B  
                                         l3131 0FF7                                           l3123 0FDD  
                                         l3115 0FBA                                           l3107 0F8D  
                                         l3051 0E79                                           l3043 0E2B  
                                         l3035 0E08                                           l3027 0DF4  
                                         l3019 0DE1                                           l3211 17A7  
                                         l3203 1773                                           l3125 0FEA  
                                         l3117 0FC4                                           l3109 0F91  
                                         l3061 0EAE                                           l3053 0E86  
                                         l3045 0E45                                           l3029 0DF6  
                                         l2501 0BBE                                           l3213 17B8  
                                         l3141 14F4                                           l3301 024B  
                                         l3127 0FEE                                           l3119 0FD2  
                                         l3071 0EF1                                           l3063 0EB5  
                                         l3055 0E8D                                           l3047 0E52  
                                         l3039 0E11                                           l2511 0BDA  
                                         l2503 0BC0                                           l3215 17CF  
                                         l3207 1788                                           l3151 1522  
                                         l3143 14F9                                           l3135 14E1  
                                         l3311 02E0                                           l3303 0287  
                                         l3231 00EE                                           l3223 00B9  
                                         l3129 0FEF                                           l3081 0F44  
                                         l3073 0F05                                           l3065 0EC9  
                                         l3057 0E9A                                           l3049 0E6C  
                                         l2601 0D15                                           l2521 0BEE  
                                         l2513 0BDE                                           l2505 0BCE  
                                         l3161 163E                                           l3217 17D8  
                                         l3209 179F                                           l2441 11A1  
                                         l3145 14FE                                           l3137 14E6  
                                         l3401 05D1                                           l3321 030B  
                                         l3313 02E6                                           l3305 02A4  
                                         l3241 0113                                           l3233 0102  
                                         l3225 00BB                                           l3083 0F4B  
                                         l3091 0F5B                                           l3075 0F1A  
                                         l3067 0ED0                                           l3059 0EA1  
                                         l2611 0D2A                                           l2603 0D1C  
                                         l2531 0C02                                           l2523 0BF2  
                                         l2515 0BE2                                           l2507 0BD2  
                                         l3171 1665                                           l3163 1655  
                                         l3155 160B                                           l3219 17EF  
                                         l2443 11A6                                           l2451 136A  
                                         l3147 150A                                           l3139 14EF  
                                         l3411 05EC                                           l3403 05D7  
                                         l3331 032B                                           l3315 02EC  
                                         l3307 02A8                                           l3251 012D  
                                         l3243 0119                                           l3235 0105  
                                         l3227 00CB                                           l2701 1548  
                                         l3093 0F5F                                           l3085 0F4F  
                                         l3077 0F31                                           l3069 0EE4  
                                         l2621 0D3A                                           l2613 0D2F  
                                         l2605 0D20                                           l2541 0C13  
                                         l2533 0C06                                           l2525 0BF6  
                                         l2517 0BE6                                           l2509 0BD6  
                                         l2461 0B6A                                           l3165 165A  
                                         l3157 1623                                           l2445 117C  
                                         l2453 136F                                           l3149 150F  
                                         l3181 12A7                                           l3501 0789  
                                         l3421 060A                                           l3413 05F0  
                                         l3405 05DD                                           l3341 0364  
                                         l3333 0347                                           l3317 02F2  
                                         l3309 02CF                                           l3261 0164  
                                         l3245 011E                                           l3253 0131  
                                         l3237 0109                                           l3229 00E9  
                                         l2711 155C                                           l2703 154D  
                                         l3095 0F60                                           l3087 0F50  
                                         l3079 0F38                                           l2631 0D55  
                                         l2623 0D40                                           l2607 0D25  
                                         l2615 0D31                                           l2551 0C56  
                                         l2543 0C2A                                           l2535 0C0A  
                                         l2527 0BFA                                           l2519 0BEA  
                                         l2471 0B7E                                           l2463 0B70  
                                         l3175 1685                                           l3159 1638  
                                         l2455 1379                                           l2447 1360  
                                         l3183 12E1                                           l3511 07B4  
                                         l3503 078D                                           l3431 0629  
                                         l3423 0616                                           l3415 05FC  
                                         l3407 05E1                                           l3351 037E  
                                         l3343 0368                                           l3335 034E  
                                         l3327 0316                                           l3319 0305  
                                         l3263 016E                                           l3255 0142  
                                         l3271 0194                                           l3247 0122  
                                         l3239 010F                                           l2721 157C  
                                         l2713 1561                                           l2705 1551  
                                         l2801 1713                                           l3097 0F64  
                                         l3089 0F57                                           l2641 0D8D  
                                         l2633 0D59                                           l2609 0D28  
                                         l2617 0D35                                           l2561 0C73  
                                         l2553 0C57                                           l2545 0C49  
                                         l2537 0C0E                                           l2529 0BFE  
                                         l2481 0B96                                           l2473 0B83  
                                         l2465 0B74                                           l3169 165F  
                                         l3193 1715                                           l2457 1396  
                                         l2449 1365                                           l3513 07B8  
                                         l3441 06A9                                           l3433 0636  
                                         l3425 061B                                           l3417 0601  
                                         l3409 05E6                                           l3361 0394  
                                         l3353 0380                                           l3345 036C  
                                         l3337 0358                                           l3329 031C  
                                         l3281 01D2                                           l3273 01A6  
                                         l3265 0177                                           l3249 0128  
                                         l3601 0976                                           l2731 1592  
                                         l2723 157D                                           l2715 1565  
                                         l2707 1553                                           l3099 0F78  
                                         l2651 0DA3                                           l2643 0D92  
                                         l2635 0D77                                           l2627 0D48  
                                         l2619 0D36                                           l2571 0C8C  
                                         l2555 0C60                                           l2547 0C50  
                                         l2539 0C12                                           l2491 0BAA  
                                         l2483 0B9B                                           l2475 0B8B  
                                         l2467 0B78                                           l3195 172D  
                                         l3179 129F                                           l3187 12F8  
                                         l3515 07C4                                           l3507 07A9  
                                         l3451 06DA                                           l3443 06AD  
                                         l3435 063B                                           l3427 061F  
                                         l3419 0605                                           l3371 04AF  
                                         l3363 039D                                           l3355 0386  
                                         l3347 0372                                           l3339 035E  
                                         l3291 0201                                           l3283 01DB  
                                         l3267 017C                                           l3259 015E  
                                         l3531 149F                                           l3523 1488  
                                         l3603 0981                                           l3621 116F  
                                         l3701 12D0                                           l2725 1582  
                                         l2717 1569                                           l2709 1559  
                                         l2741 143E                                           l2661 0012  
                                         l2805 11AA                                           l2653 0DA7  
                                         l2645 0D93                                           l2637 0D80  
                                         l2629 0D4D                                           l2581 0CA3  
                                         l2573 0C93                                           l2565 0C7C  
                                         l2549 0C52                                           l2557 0C64  
                                         l2493 0BAB                                           l2485 0BA1  
                                         l2477 0B8C                                           l2469 0B79  
                                         l2821 15BE                                           l2813 1597  
                                         l3197 1748                                           l3189 12FE  
                                         l3517 07C9                                           l3509 07AF  
                                         l3461 06FB                                           l3453 06DE  
                                         l3429 0623                                           l3437 063F  
                                         l3445 06B1                                           l3381 04FB  
                                         l3373 04B9                                           l3365 0447  
                                         l3349 0376                                           l3357 038A  
                                         l3293 0203                                           l3285 01E0  
                                         l3277 01C2                                           l3541 14BC  
                                         l3533 14A3                                           l3525 1490  
                                         l3613 0992                                           l3623 1175  
                                         l3703 12D7                                           l2719 1578  
                                         l2727 1588                                           l2751 1452  
                                         l2743 1440                                           l2735 1434  
                                         l2911 0A4C                                           l2903 0A2E  
                                         l2663 001D                                           l2655 0005  
                                         l2807 11B2                                           l2647 0D97  
                                         l2639 0D85                                           l2591 0CEE  
                                         l2575 0C95                                           l2567 0C84  
                                         l2559 0C6E                                           l2583 0CA8  
                                         l2495 0BB0                                           l2487 0BA2  
                                         l2479 0B8E                                           l2823 15BF  
                                         l2815 15A2                                           l3199 1755  
                                         l2671 130B                                           l3471 070F  
                                         l3463 06FF                                           l3519 07D3  
                                         l3455 06EA                                           l3447 06C3  
                                         l3439 068D                                           l3391 0579  
                                         l3383 0535                                           l3375 04D1  
                                         l3367 044B                                           l3359 038C  
                                         l3279 01C8                                           l3543 14C2  
                                         l3535 14A7                                           l3527 149C  
                                         l3615 09AB                                           l3607 0987  
                                         l3551 081C                                           l3631 1339  
                                         l3625 1169                                           l3705 12DE  
                                         l3641 13A5                                           l3713 11B5  
                                         l2729 158D                                           l2761 146D  
                                         l2753 1457                                           l2745 1444  
                                         l2737 1435                                           l2921 0A6B  
                                         l2913 0A54                                           l2905 0A33  
                                         l2665 0022                                           l2657 0007  
                                         l2809 11B4                                           l2649 0D99  
                                         l2585 0CBF                                           l2593 0CF7  
                                         l2577 0C99                                           l2569 0C88  
                                         l2497 0BB5                                           l2489 0BA6  
                                         l2825 15C7                                           l2673 1319  
                                         l2681 121A                                           l3481 0747  
                                         l3473 0714                                           l3465 0705  
                                         l3457 06EF                                           l3449 06D3  
                                         l3393 057F                                           l3385 053A  
                                         l3377 04D6                                           l3369 045D  
                                         l3297 021B                                           l3289 01F8  
                                         l3545 14D1                                           l3537 14AB  
                                         l3609 098F                                           l3561 084D  
                                         l3553 0824                                           l3633 134D  
                                         l3651 13B0                                           l3643 13A8  
                                         l2691 1538                                           l2763 1472  
                                         l2755 145B                                           l2747 1449  
                                         l2739 1439                                           l2931 0A97  
                                         l2923 0A79                                           l2915 0A5C  
                                         l2659 000E                                           l2595 0D07  
                                         l2587 0CE3                                           l2579 0C9A  
                                         l2499 0BBD                                           l2851 1281  
                                         l2843 15EC                                           l2835 15D5  
                                         l2827 15C9                                           l2819 15AB  
                                         l2675 131E                                           l2683 1223  
                                         l3491 0769                                           l3483 074B  
                                         l3475 0719                                           l3467 0707  
                                         l3459 06F5                                           l3395 0584  
                                         l3387 0566                                           l3379 04DE  
                                         l3299 0247                                           l3539 14B3  
                                         l3571 08A1                                           l3563 086A  
                                         l3555 0829                                           l3635 1357  
                                         l3627 1331                                           l3707 11C2  
                                         l3731 122B                                           l3661 13C1  
                                         l3653 13B3                                           l3645 13AA  
                                         l2693 1539                                           l2757 145F  
                                         l2749 144F                                           l2765 1478  
                                         l2941 0AB2                                           l2933 0A98  
                                         l2925 0A7D                                           l2917 0A64  
                                         l2909 0A3C                                           l2861 09C4  
                                         l2781 1432                                           l2773 13E6  
                                         l2597 0D0C                                           l2589 0CE9  
                                         l2845 15FA                                           l2829 15CD  
                                         l2837 15E5                                           l2669 1308  
                                         l2677 1211                                           l3493 076F  
                                         l3477 071E                                           l3485 074F  
                                         l3469 070B                                           l3397 058D  
                                         l3389 056C                                           l3581 08E1  
                                         l3573 08A9                                           l3565 086F  
                                         l3557 082D                                           l3549 080B  
                                         l3629 1335                                           l3709 11C7  
                                         l3741 11DC                                           l3733 11E6  
                                         ?_pad 0024                                           l3671 13D2  
                                         l3663 13C9                                           l3655 13B5  
                                         l3647 13AC                                           l3639 139F  
                                         l2695 153D                                           l2767 147D  
                                         l2759 1469                                           l2951 0AC7  
                                         l2943 0AB4                                           l2935 0AA0  
                                         l2927 0A7E                                           l2919 0A66  
                                         l2871 09D8                                           l2863 09C5  
                                         l2855 09B6                                           l2775 13FA  
                                         l2791 16C3                                           l2847 15FF  
                                         l2679 1216                                           l2687 11F8  
                                         l3495 0774                                           l3487 0755  
                                         l3479 0736                                           l3399 05CD  
                                         l3591 093E                                           l3575 08B9  
                                         l3567 088C                                           l3559 0848  
                                         l3727 1247                                           l3735 11EE  
                                         l3681 13DD                                           l3673 13D4  
                                         l3665 13CC                                           l3657 13B7  
                                         l3649 13AE                                           l2697 1542  
                                         l2769 1482                                           l2961 0AE8  
                                         l2945 0ABB                                           l2953 0ACB  
                                         l2929 0A85                                           l2937 0AA4  
                                         l2881 09EF                                           l2865 09CA  
                                         l2873 09DA                                           l2857 09BC  
                                         l2777 1416                                           l2793 16C7  
                                         l2785 168A                                           l2849 127E  
                                         l3497 0778                                           l3489 0764  
                                         l3593 0946                                           l3585 0917  
                                         l3569 0892                                           l3745 118E  
                                         l3729 1263                                           l3761 0032  
                                         l3691 118B                                           l3683 13DF  
                                         l3675 13D7                                           l3667 13CE  
                                         l3659 13B9                                           l2699 1544  
                                         l2971 0B01                                           l2955 0ACF  
                                         l2947 0ABF                                           l2939 0AAA  
                                         l2891 0A03                                           l2883 09F0  
                                         l2875 09E2                                           l2867 09CF  
                                         l2859 09C0                                           l2779 1430  
                                         l2795 16DF                                           l2787 169F  
                                         l3499 0784                                           l3587 091D  
                                         l3579 08CF                                           l3747 1197  
                                         l3739 11D4                                           l3771 006A  
                                         l3763 0036                                           l3755 0027  
                                         l3685 13E2                                           l3677 13D9  
                                         l3669 13D0                                           l3693 1165  
                                         l2981 0B48                                           l2973 0B19  
                                         l2965 0AF0                                           l2957 0AD0  
                                         l2949 0AC0                                           l2885 09F5  
                                         l2893 0A05                                           l2877 09E7  
                                         l2869 09D7                                           l2797 16E3  
                                         l2789 16BB                                           l3589 092E  
                                         l3597 095C                                           l3749 0800  
                                         l3773 0084                                           l3765 003C  
                                         l3757 002A                                           l3695 12BF  
                                         l3687 1187                                           l3679 13DB  
                                         l2983 0B50                                           l2967 0AF5  
                                         l2975 0B1D                                           l2959 0AD4  
                                         l2895 0A15                                           l2887 09FA  
                                         l2879 09EB                                           l2799 1711  
                                         l3599 096E                                           l3775 009C  
                                         l3767 0046                                           l3759 002E  
                                         l3697 12C8                                           l3689 118A  
                                         l2985 0B56                                           l2977 0B2A  
                                         l2969 0AFD                                           l2897 0A21  
                                         l2889 0A02                                           l3769 0050  
                                         l3699 12C9                                           l2987 0B5A  
                                         l2979 0B45                                           l2899 0A25  
                                         l2995 0DA9                                           l2989 0B5C  
                                         l2997 0DAF                                           l2999 0DB3  
                                         STR_1 183B                                           STR_2 1800  
                                         STR_3 1853                                           STR_4 187F  
                                         STR_5 1869                                           STR_6 1895  
                                         STR_7 181E                                           STR_8 18BF  
                                         STR_9 18AA                                           u3000 132E  
                                         u3001 132D                                           u3010 1223  
                                         u3011 1222                                           u3100 1578  
                                         u3020 1208                                           u3101 1577  
                                         u3021 1206                                           _LATA 010C  
                                         u3030 1209                                           _LATB 010D  
                                         _LATC 010E                                           u3120 1588  
                                         u3040 153D                                           u4000 1522  
                                         _LATD 010F                                           u3121 1587  
                                         u3105 1574                                           u3041 153C  
                                         u4001 1521                                           _LATE 0110  
                                         u3130 158D                                           u3050 1548  
                                         u3210 1478                                           u4010 1630  
                                         u3131 158C                                           u3115 157E  
                                         u3051 1547                                           u3211 1477  
                                         u3060 1559                                           u3220 147D  
                                         u3140 1439                                           u3300 1711  
                                         u4020 163E                                           u2500 1365  
                                         u4100 12F1                                           u3061 1558  
                                         u3221 147C                                           u3205 146E  
                                         u3141 1438                                           u3301 1710  
                                         u4021 163D                                           u2501 1364  
                                         u4101 12EF                                           u3150 1444  
                                         u3230 13FA                                           u3310 11B2  
                                         u4030 164B                                           u2510 136A  
                                         u4110 12F2                                           u3151 1443  
                                         u3231 13F9                                           u3311 11B1  
                                         u4015 162C                                           u2511 1369  
                                         u3080 1569                                           u3160 144F  
                                         u3240 1416                                           u2600 0BB5  
                                         u3400 15FA                                           u3320 15A2  
                                         u4040 1655                                           u4200 17C5  
                                         u2520 1379                                           u4120 12FE  
                                         u3081 1568                                           u3161 144E  
                                         u3241 1415                                           u3305 170D  
                                         u2601 0BB4                                           u3401 15F9  
                                         u3321 15A1                                           u4041 1654  
                                         u2521 1378                                           u4121 12FD  
                                         u3250 1430                                           u2610 0BCE  
                                         u3410 15FF                                           u3330 15B8  
                                         u4050 1665                                           u4210 17CF  
                                         u4130 173A                                           u2530 1396  
                                         u3075 155D                                           u3251 142F  
                                         u2611 0BCD                                           u3411 15FE  
                                         u4051 1664                                           u4035 1647  
                                         u4211 17CE                                           u2531 1395  
                                         u3180 145F                                           u3500 0A6B  
                                         u3420 09C4                                           u3260 169F  
                                         u2700 0C6E                                           u2620 0BD2  
                                         u2540 0B78                                           u3340 15CD  
                                         u4060 1672                                           u4220 17E5  
                                         u4140 1755                                           u4300 0155  
                                         u3181 145E                                           u3501 0A6A  
                                         u3421 09C3                                           u3261 169E  
                                         u2701 0C6D                                           u2621 0BD1  
                                         u2541 0B77                                           u3341 15CC  
                                         u4205 17C1                                           u4141 1754  
                                         u3190 1469                                           u3430 09CA  
                                         u3270 16BB                                           u2710 0C73  
                                         u2630 0C2A                                           u2550 0B7E  
                                         u3350 15D4                                           u4070 167D  
                                         u4230 17EF                                           u4150 175B  
                                         u4310 0164                                           u3095 156A  
                                         u3191 1468                                           u3175 1453  
                                         u3431 09C9                                           u3255 142C  
                                         u3271 16BA                                           u2711 0C72  
                                         u2631 0C29                                           u2551 0B7D  
                                         u3351 15D3                                           u3335 15B4  
                                         u4071 167B                                           u4231 17EE  
                                         u4151 175A                                           u4135 1736  
                                         u2535 1392                                           u4311 0163  
                                         u3440 09CF                                           u3280 16C7  
                                         u2720 0C88                                           u2640 0C33  
                                         u2560 0B83                                           u4080 167E  
                                         u4160 1769                                           u4400 02F2  
                                         u4320 01A6                                           u4240 00E9  
                                         u3441 09CE                                           u3281 16C6  
                                         u2721 0C87                                           u2641 0C31  
                                         u2561 0B82                                           u4065 166E  
                                         u4225 17E1                                           u4145 1751  
                                         u4401 02F1                                           u4321 01A5  
                                         u4241 00E8                                           u3610 0ACF  
                                         u3530 0A7D                                           u3450 09EF  
                                         u3290 16E3                                           u2810 0D20  
                                         u2730 0C8C                                           u2650 0C34  
                                         u2570 0BA1                                           u3370 15E4  
                                         u4170 1787                                           u2490 11A6  
                                         u4090 12BE                                           u4410 0305  
                                         u4330 01B8                                           u4250 010F  
                                         u3195 1465                                           u3611 0ACE  
                                         u3531 0A7C                                           u3515 0A6C  
                                         u3451 09EE                                           u3291 16E2  
                                         u2811 0D1F                                           u2731 0C8B  
                                         u2635 0C26                                           u2571 0BA0  
                                         u3371 15E3                                           u4171 1786  
                                         u2491 11A5                                           u4091 12BD  
                                         u4411 0304                                           u4331 01B6  
                                         u4251 010E                                           u3700 0B5A  
                                         u3620 0AD4                                           u3460 09F5  
                                         u2900 0D68                                           u2820 0D25  
                                         u2740 0C99                                           u2660 0C49  
                                         u2580 0BAA                                           u3380 15EB  
                                         u4180 1795                                           u4500 0376  
                                         u4420 0315                                           u4340 01B9  
                                         u4260 0113                                           u3701 0B59  
                                         u3621 0AD3                                           u3605 0AC1  
                                         u3525 0A73                                           u3461 09F4  
                                         u2821 0D24                                           u2805 0D16  
                                         u2741 0C98                                           u2661 0C48  
                                         u2581 0BA9                                           u3381 15EA  
                                         u3365 15D6                                           u4165 1765  
                                         u4501 0375                                           u4421 0314  
                                         u4261 0112                                           u3630 0AE8  
                                         u3550 0A97                                           u3470 09FA  
                                         u3710 0DB7                                           u2910 0D77  
                                         u2830 0D2F                                           u2670 0C56  
                                         u2590 0BB0                                           u4190 179F  
                                         u4510 0386                                           u4430 031C  
                                         u4350 01C8                                           u4270 0119  
                                         u3631 0AE7                                           u3551 0A96  
                                         u3471 09F9                                           u3711 0DB6  
                                         u2911 0D76                                           u2831 0D2E  
                                         u2671 0C55                                           u2591 0BAF  
                                         u4191 179E                                           u4511 0385  
                                         u4431 031B                                           u4415 0301  
                                         u4351 01C7                                           u4271 0118  
                                         u3640 0AEF                                           u3560 0AAA  
                                         u3480 0A15                                           u3720 0DBD  
                                         u2920 0D80                                           u2840 0D35  
                                         u2760 0CBF                                           u4600 05D7  
                                         u4520 045D                                           u4440 032B  
                                         u4360 021A                                           u4280 0142  
                                         u3641 0AEE                                           u3561 0AA9  
                                         u3545 0A7F                                           u3481 0A14  
                                         u3721 0DBC                                           u2921 0D7F  
                                         u2905 0D64                                           u2841 0D34  
                                         u2761 0CBE                                           u4185 1791  
                                         u4601 05D6                                           u4521 045C  
                                         u4441 032A                                           u4361 0219  
                                         u4281 0141                                           u3650 0AF5  
                                         u3570 0AB2                                           u3490 0A33  
                                         u3810 0F10                                           u3730 0DC2  
                                         u2930 0D85                                           u2850 0D3A  
                                         u2770 0CEE                                           u2690 0C6A  
                                         u4610 05DD                                           u4530 04AF  
                                         u4450 0347                                           u4370 0286  
                                         u4290 0154                                           u3651 0AF4  
                                         u3571 0AB1                                           u3555 0A93  
                                         u3491 0A32                                           u3731 0DC1  
                                         u2931 0D84                                           u2851 0D39  
                                         u2771 0CED                                           u2763 0CBB  
                                         u2755 0C9D                                           u2691 0C69  
                                         u3395 15ED                                           u4611 05DC  
                                         u4531 04AE                                           u4451 0346  
                                         u4371 0285                                           u4291 0152  
                                         u3660 0B01                                           u3900 0F7F  
                                         u3820 0F27                                           u3740 0DE1  
                                         u2940 0D92                                           u2860 0D40  
                                         u2780 0D07                                           u4700 06FB  
                                         u4620 05E1                                           u4540 04D1  
                                         u4460 035E                                           u4380 02CF  
                                         u3661 0B00                                           u3901 0F7E  
                                         u3805 0EB6                                           u3741 0DE0  
                                         u2941 0D91                                           u2861 0D3F  
                                         u2781 0D06                                           u2685 0C5A  
                                         u4701 06FA                                           u4621 05E0  
                                         u4541 04D0                                           u4525 0459  
                                         u4461 035D                                           u4445 0327  
                                         u4381 02CE                                           u3670 0B0F  
                                         u3590 0ABF                                           u3910 0F85  
                                         u3750 0DE7                                           u2950 0D97  
                                         u2870 0D47                                           u2790 0D0C  
                                         u4710 070B                                           u4630 05EC  
                                         u4550 04D6                                           u4470 0364  
                                         u4390 02EC                                           u3591 0ABE  
                                         u3911 0F84                                           u3815 0F0C  
                                         u3751 0DE6                                           u2951 0D96  
                                         u2871 0D46                                           u2791 0D0B  
                                         u4711 070A                                           u4631 05EB  
                                         u4551 04D5                                           u4471 0363  
                                         u4455 0343                                           u4391 02EB  
                                         u3680 0B2A                                           u3920 0F91  
                                         u3760 0DEC                                           u2960 0DA7  
                                         u2880 0D4D                                           u4720 0755  
                                         u4640 05F0                                           u4560 0535  
                                         u4480 0368                                           u4800 14BC  
                                         u3681 0B29                                           u3585 0AB5  
                                         u3921 0F90                                           u3825 0F23  
                                         u3761 0DEB                                           u2961 0DA6  
                                         u2881 0D4C                                           u4721 0754  
                                         u4641 05EF                                           u4561 0534  
                                         u4481 0367                                           u4801 14BB  
                                         u3690 0B45                                           u2970 0012  
                                         u3930 0F9F                                           u3850 0F4F  
                                         u3770 0E03                                           u2890 0D59  
                                         u4730 0764                                           u4650 0629  
                                         u4570 056C                                           u4490 0372  
                                         u4810 14C2                                           u3691 0B44  
                                         u3675 0B0B                                           u2971 0011  
                                         u3851 0F4E                                           u3835 0F32  
                                         u3771 0E02                                           u2891 0D58  
                                         u4731 0763                                           u4651 0628  
                                         u4571 056B                                           u4491 0371  
                                         u4811 14C1                                           u3940 0FBA  
                                         u3780 0E08                                           u4740 076F  
                                         u4660 06C3                                           u4580 057F  
                                         u4820 14D1                                           u4900 091D  
                                         u3685 0B26                                           u3941 0FB9  
                                         u3845 0F45                                           u3781 0E07  
                                         u4741 076E                                           u4661 06C2  
                                         u4581 057E                                           u4821 14D0  
                                         u4901 091C                                           u2990 0022  
                                         u3950 0FD2                                           u3870 0F5F  
                                         u4750 079F                                           u4670 06D3  
                                         u4590 05D1                                           u4910 096E  
                                         u4830 081C                                           u3695 0B41  
                                         u2991 0021                                           u3951 0FD1  
                                         u3935 0F9B                                           u3871 0F5E  
                                         u4751 079D                                           u4735 0760  
                                         u4671 06D2                                           u4591 05D0  
                                         u4911 096D                                           u4831 081B  
                                         u3960 0FEE                                           u3880 0F64  
                                         u4760 07A0                                           u4680 06DA  
                                         u4840 084D                                           u4920 1357  
                                         u2985 0017                                           u3961 0FED  
                                         u3945 0FB6                                           u3881 0F63  
                                         u3865 0F51                                           u4681 06D9  
                                         u4665 06BF                                           u4841 084C  
                                         u4921 1356                                           u3890 0F78  
                                         u3970 14E6                                           u4770 07AF  
                                         u4690 06DE                                           u4850 086F  
                                         u3955 0FCE                                           u3891 0F77  
                                         u3795 0E87                                           u3971 14E5  
                                         u4771 07AE                                           u4691 06DD  
                                         u4675 06CF                                           u4851 086E  
                                         u3980 14F4                                           u4780 149C  
                                         u4860 0892                                           u3981 14F3  
                                         u4781 149B                                           u4861 0891  
                                         u3990 151D                                           u4790 14B3  
                                         u4870 08E1                                           u3991 151C  
                                         u4791 14B2                                           u4871 08E0  
                                         u4880 0910                                           u4881 090E  
                                         u4890 0911                                           u3995 1519  
                                         _WPUA 020C                                           _WPUB 020D  
                                         _WPUC 020E                                           _WPUD 020F  
                                         _WPUE 0210                        ??_read@temp_sensor$F420 007E  
                                         _dbuf 01A0                                           _main 0027  
                                         _read 11E6                                           _open 0000  
                                         _prec 00E9                                           _nout 00E5  
                                         pad@i 0028                                           pad@p 0025  
                                         fsr0h 0005                                           fsr1h 0007  
                                         indf0 0000                                           fsr0l 0004  
                                         indf1 0001                                           fsr1l 0006  
                                         pad@w 002A                                           btemp 007E  
                                ___fpclassifyf 160B                                           start 0002  
                              ___fldiv@new_exp 0025                                   _tolower$1035 007C  
                                        ??_pad 0027                                  ?_EUSART_Write 0070  
               __size_of_OSCILLATOR_Initialize 0007                  __end_of_OSCILLATOR_Initialize 118E  
                                ___fltol@sign1 0079                                __end_of___fladd 0DA9  
                                        ?_main 0070                                          ?_read 00D9  
                              __end_of___fldiv 0B6A                                __end_of___awdiv 1597  
                              __end_of___flneg 11B5                                          STR_10 18D4  
                                        STR_11 18DD                                          STR_12 18E6  
                                        STR_22 18F3                                          STR_23 18FB  
                                        STR_26 18FF                                          STR_18 18EF  
                                        STR_19 18F7                                          STR_28 18FF  
                              __end_of___awmod 1487                                __end_of___flmul 1000  
                              __end_of___flsub 129E                                __end_of___fltol 160B  
                              ___awdiv@divisor 0070                                ___awdiv@counter 0075  
                                 vfpfcnvrt@fmt 004A                                          _TRISA 008C  
                                        _TRISB 008D                                          _TRISC 008E  
                                        _TRISD 008F                                          _TRISE 0090  
                                        _RXPPS 0E24                              ??_initialize_temp 0070  
                                        _demo1 118E                                          _demo2 1197  
                                        _demo3 0800                                          _flags 00EB  
                                        _close 0000                                 _WDT_Initialize 1165  
                                        _fputc 1360                                          _fputs 1306  
                                        pad@fp 002C                                          _width 00E7  
                                        _putch 117B                                __end_of_isupper 1210  
                                        pclath 000A                                          status 0003  
                                        wtemp0 007E                                 ?___fpclassifyf 0070  
                              __end_of_tolower 1306                                __end_of_strncmp 14DF  
                              __initialization 07EB                                   __end_of_main 00B7  
                                 __end_of_read 11F8                         ?_initialize_lcd_screen 0070  
                               ??_EUSART_Write 0070                      initialize_temp@sensor_var 0070  
                                       ??_main 007E                                         ??_read 007E  
                       __end_of_WDT_Initialize 1169                                         ?_demo1 0070  
                                       ?_demo2 0070                                         ?_demo3 0070  
            _EUSART_DefaultFramingErrorHandler 0000                     _EUSART_OverrunErrorHandler 013C  
                                       ?_fputc 0072                                         ?_fputs 007A  
                             ___awdiv@dividend 0072                                         _ANSELA 018C  
                                       ?_putch 0070                                         _ANSELB 018D  
                                       _ANSELC 018E                                         _ANSELD 018F  
                                       _ANSELE 0190                                         _BORCON 0116  
                                       _RC1REG 0199                                         _RC1STA 019D  
                                       _ODCONA 028C                                         _ODCONB 028D  
                                       _RC6PPS 0EA6                                         _ODCONC 028E  
                                       _ODCOND 028F                                         _ODCONE 0290  
                                       _INLVLA 038C                                         _INLVLB 038D  
                                       _INLVLC 038E                                         _INLVLD 038F  
                                       _INLVLE 0390                                         _OSCCON 0099  
                                       _TX1REG 019A                                         _WDTCON 0097  
                                       _TX1STA 019E                              ?_initialize_light 0070  
                           ??_initialize_light 0070                                   vfprintf@cfmt 0063  
                                       ___flge 168A                                         ___fleq 13E6  
                                    ??___fladd 0020                                      ??___fldiv 0078  
                                    ??___awdiv 0074                                      ??___flneg 0074  
                                    ??___awmod 0074                                      ??___flmul 0079  
                                    ??___flsub 007E                                      ??___fltol 0074  
                                       _efgtoa 00B7                                         _floorf 1715  
                             ___awdiv@quotient 0077                                ___awmod@divisor 0070  
                              ___awmod@counter 0075                                         _printf 11C2  
                                       pad@buf 0024                                         _strcpy 129E  
                                       _strlen 1210                                         fputc@c 0072  
                                       fputs@c 0020                                         fputs@i 0021  
                                       fputs@s 0023                             __size_of__Umul8_16 0023  
                              ___fpclassifyf@e 0020                                ___fpclassifyf@u 0022  
                              ___fpclassifyf@x 0070                                ?_WDT_Initialize 0070  
                                    ??_isupper 0072                               __end_of_vfprintf 1360  
                                    ??_tolower 0078                                      ??_strncmp 0074  
          initialize_lcd_screen@lcd_screen_var 0070                                     ___flge@ff1 0035  
                                   ___flge@ff2 0039                                ??___fpclassifyf 0074  
                            _SYSTEM_Initialize 11B5                                     ___fleq@ff1 0070  
                                   ___fleq@ff2 0074                        __end_of__initialization 07FD  
                                   ___flneg@f1 0070                             ?_SYSTEM_Initialize 0070  
                                   ___fltol@f1 0070                     initialize_light@sensor_var 0070  
                               __pcstackCOMMON 0070                            ??_SYSTEM_Initialize 0072  
                                __end_of_demo1 1197                                  __end_of_demo2 11A0  
                                __end_of_demo3 0809                                  __end_of_fputc 139F  
                                __end_of_fputs 132F                                  __end_of_putch 1181  
                               _OPTION_REGbits 0095                ??_EUSART_SetOverrunErrorHandler 0072  
                                      ??_demo1 007E                                        ??_demo2 007E  
                                      ??_demo3 007E                                        ??_fputc 0075  
                    __end_of_SYSTEM_Initialize 11C2                                        ??_fputs 007B  
                                      ??_putch 0071                                     __pbssBANK0 006F  
                                   __pbssBANK1 00DD                                     __pbssBANK3 01A0  
                         __end_of_EUSART_Write 11AA                 __size_of_read@temp_sensor$F420 0012  
                __end_of_read@temp_sensor$F420 11E6                              __end_of__Umul8_16 0027  
                                   _efgtoa$921 00A4                                     _efgtoa$915 00A0  
                                   _efgtoa$916 00A2                                     _efgtoa$925 00A6  
                                   _efgtoa$926 00A8                                     _efgtoa$927 00AA  
                                   __pmaintext 0027                                 main@lcd_screen 0134  
                                      ?___flge 0035                                        ?___fleq 0070  
                                      ?_efgtoa 0041                                        ?_floorf 002D  
                              _initialize_temp 1262                                        ?_printf 0065  
                                      ?_strcpy 0070                                        ?_strlen 0070  
                                      _SP1BRGH 019C                                        _SP1BRGL 019B  
                           __size_of_vfpfcnvrt 01AD                                        _OSCTUNE 0098  
                                      _SLRCONA 030C                                        _SLRCONB 030D  
                                      _SLRCONC 030E                                        _SLRCOND 030F  
                                      _SLRCONE 0310                       ??_EUSART_SetErrorHandler 0072  
                      ??_initialize_lcd_screen 0070                                __size_of___flge 008B  
                              __size_of___fleq 004E                                        ___fladd 0B6A  
                                      ___fldiv 09B6                                        ___awdiv 1538  
                                      ___flneg 11AA                                        ___awmod 1434  
                                      ___flmul 0DA9                                        ___flsub 127E  
                                      ___fltol 1597                                      ?_vfprintf 005D  
                              __size_of_efgtoa 0734                                __size_of_floorf 00EB  
                                      __ptext1 11E6                                        __ptext2 11D4  
                                      __ptext3 1262                                        __ptext4 1246  
                                      __ptext5 122A                                        __ptext6 0800  
                                      __ptext7 1197                                        __ptext8 118E  
                                      __ptext9 11C2                                __size_of_printf 0012  
                              __size_of_strcpy 0021                                __size_of_strlen 001A  
                        _OSCILLATOR_Initialize 1187                                   __size_of_pad 0059  
                             ___awmod@dividend 0072                       ??_PIN_MANAGER_Initialize 0070  
                                      _isupper 11F8                                        efgtoa@c 0045  
                                      efgtoa@d 00B8                                        efgtoa@e 00D1  
                                      efgtoa@f 0041                                        efgtoa@g 00CD  
                                      efgtoa@h 00C3                                        efgtoa@i 00CB  
                                      efgtoa@l 00C7                                        efgtoa@m 00B2  
                                      efgtoa@n 00D3                                        efgtoa@p 00BC  
                                      efgtoa@t 00AC                                        efgtoa@u 00D5  
                                      efgtoa@w 00BF                                 _set_brightness 0000  
                   __size_of_SYSTEM_Initialize 000D                                        _tolower 12E1  
                                      clrloop0 1182                                 main@temp_value 0124  
                                      _strncmp 1487                           end_of_initialization 07FD  
                                      floorf@e 003B                                        floorf@m 0037  
                                      floorf@u 003D                                        floorf@x 002D  
        __end_of_EUSART_SetOverrunErrorHandler 117B         __size_of_EUSART_SetOverrunErrorHandler 0006  
                _EUSART_SetOverrunErrorHandler 1175                                        fputc@fp 0074  
                                      fputs@fp 007A                              _EUSART_Initialize 12BF  
                      __end_of_initialize_temp 127E                             ?_EUSART_Initialize 0070  
                            __end_of_vfpfcnvrt 09B6                                     efgtoa@mode 00C2  
                                   efgtoa@sign 00BA                                     ??_vfprintf 0060  
                                      strcpy@d 0076                                        strlen@a 0073  
                                      strcpy@s 0074                                        strlen@s 0074  
                          ??_EUSART_Initialize 0072                               ??_WDT_Initialize 0070  
                    __size_of_initialize_light 001C                                    ___fladd@grs 007B  
                        __size_of_EUSART_Write 000A                                    ___fldiv@grs 0027  
                                  ___fldiv@rem 0020                               main@light_sensor 0128  
              __size_of_EUSART_SetErrorHandler 0006                                    ___flmul@grs 0029  
                    __end_of_EUSART_Initialize 12E1                                 __end_of___flge 1715  
                               __end_of___fleq 1434                     _EUSART_DefaultErrorHandler 0000  
                                  vfpfcnvrt@ap 004B                                    vfpfcnvrt@ct 0058  
                                  vfpfcnvrt@fp 005C                                     _turn_green 0000  
                               __end_of_efgtoa 07EB                                   _EUSART_Write 11A0  
                               __end_of_floorf 1800                         ?_OSCILLATOR_Initialize 0070  
                                   floorf@F527 00DD                                 __end_of_printf 11D4  
                               __end_of_strcpy 12BF                                 __end_of_strlen 122A  
                          start_initialization 07EB                __size_of_PIN_MANAGER_Initialize 0047  
                                  __end_of_pad 1538                                    putch@txData 0071  
                        __end_of___fpclassifyf 168A                 ?_EUSART_SetOverrunErrorHandler 0070  
                             ?_initialize_temp 0070                                    vfprintf@fmt 005D  
                   _EUSART_FramingErrorHandler 00ED                                       ??___flge 003D  
                                     ??___fleq 0078                         _EUSART_SetErrorHandler 1169  
                                     ??_efgtoa 0046                                      __Umul8_16 0004  
                                     ??_floorf 0031                                       ??_printf 006B  
                                     ??_strcpy 0072                                       ??_strlen 0072  
                                    ___fladd@a 0074                                      ___fladd@b 0070  
                                    ___fldiv@a 0070                                      ___fldiv@b 0074  
                                    ___flmul@a 0024                                      ___flmul@b 0020  
                                    ___flsub@a 0035                                      ___flsub@b 0039  
                                    ___latbits 0002                                  __pcstackBANK0 0020  
                                __pcstackBANK1 00A0                                  __pcstackBANK2 0120  
                   __size_of_EUSART_Initialize 0022                                      __pnvBANK1 00ED  
                                    __pnvBANK2 013A                         _PIN_MANAGER_Initialize 139F  
                        _read@temp_sensor$F420 11D4                 __size_of_initialize_lcd_screen 001C  
                __end_of_initialize_lcd_screen 1246                                       ?___fladd 0070  
                                     ?___fldiv 0070                                       ?___awdiv 0070  
                                     ?___flneg 0070                                       ?___awmod 0070  
                                     ?___flmul 0020                                       ?___flsub 0035  
                                     ?___fltol 0070                                     ?__Umul8_16 0070  
                            __size_of_vfprintf 0031                               _initialize_light 1246  
                                     _BAUD1CON 019F                                       ?_isupper 0070  
                               __size_of_demo1 0009                                 __size_of_demo2 0009  
                               __size_of_demo3 0009                                       ?_tolower 0076  
                               __size_of_fputc 003F                                 __size_of_fputs 0029  
                                     ?_strncmp 0070                                 __size_of_putch 0006  
       EUSART_SetErrorHandler@interruptHandler 0070                                      clear_ram0 1181  
                            _eusartRxLastError 006F                                       _PIR1bits 0011  
              ??_EUSART_SetFramingErrorHandler 0072                                      _set_color 0000  
            _EUSART_DefaultOverrunErrorHandler 0000                                      _vfpfcnvrt 0809  
                              main@light_value 0120                                     vfpfcnvrt@c 005B  
                                   vfpfcnvrt@f 0054                                      _turn_blue 0000  
                       ?_read@temp_sensor$F420 00D9                                     vfprintf@ap 005F  
                                   vfprintf@fp 0062                        ??_OSCILLATOR_Initialize 0070  
                                  ??__Umul8_16 0072                            _EUSART_ErrorHandler 013A  
                             __size_of___fladd 023F                               __size_of___fldiv 01B4  
                             __size_of___awdiv 005F                               __size_of___flneg 000B  
                             __size_of___awmod 0053                               __size_of___flmul 0257  
                             __size_of___flsub 0020                               __size_of___fltol 0074  
                                   ?_vfpfcnvrt 004A                             ___fpclassifyf@F465 00E1  
                                     __ptext10 132F                                       __ptext11 0809  
                                     __ptext20 1360                                       __ptext12 1487  
                                     __ptext21 117B                                       __ptext13 00B7  
                                     __ptext30 0004                                       __ptext22 11A0  
                                     __ptext14 12E1                                       __ptext31 168A  
                                     __ptext23 1715                                       __ptext15 11F8  
                                     __ptext40 12BF                                       __ptext32 13E6  
                                     __ptext24 160B                                       __ptext16 129E  
                                     __ptext41 1175                                       __ptext33 09B6  
                                     __ptext25 1597                                       __ptext17 14DF  
                                     __ptext42 116F                                       __ptext34 1434  
                                     __ptext26 127E                                       __ptext18 1210  
                                     __ptext43 1169                                       __ptext35 1538  
                                     __ptext27 0B6A                                       __ptext19 1306  
                                     __ptext36 11B5                                       __ptext28 11AA  
                                     __ptext37 1165                                       __ptext29 0DA9  
                                     __ptext38 139F                                       __ptext39 1187  
                             __size_of_isupper 0018                               __size_of_tolower 0025  
                                   strcpy@dest 0077                               __size_of_strncmp 0058  
                                __size_of_main 0090                                  __size_of_read 0012  
                      ?_EUSART_SetErrorHandler 0070                                     _RC1STAbits 019D  
                                     efgtoa@fp 00BE                                       efgtoa@ne 00B0  
                                     efgtoa@pp 00AE                                       efgtoa@ou 00B4  
EUSART_SetOverrunErrorHandler@interruptHandler 0070                                       _vfprintf 132F  
                                    printf@fmt 0065          __end_of_EUSART_SetFramingErrorHandler 1175  
       __size_of_EUSART_SetFramingErrorHandler 0006                  _EUSART_SetFramingErrorHandler 116F  
                              main@temp_sensor 012E                                       _turn_red 0000  
                               __pstringtext10 18D4                                 __pstringtext11 18DD  
                               __pstringtext12 18E6                                 __pstringtext13 18EF  
                               __pstringtext14 18F3                                 __pstringtext15 18F7  
                               __pstringtext16 18FB                                 __pstringtext17 18FF  
                               __pstringtext18 0000                        __size_of_WDT_Initialize 0004  
                      ?_PIN_MANAGER_Initialize 0070                 __end_of_EUSART_SetErrorHandler 116F  
                     __end_of_initialize_light 1262                                      strcpy@src 0070  
                                     isupper@c 0070                                      strncmp@_l 0075  
                                    strncmp@_r 0070                                    efgtoa@nmode 00C1  
                                     printf@ap 006E  EUSART_SetFramingErrorHandler@interruptHandler 0070  
                                  ??_vfpfcnvrt 004C                                  _vfpfcnvrt$944 0052  
                     __size_of_initialize_temp 001C                                  __pstringtext1 1800  
                                __pstringtext2 181E                                  __pstringtext3 183B  
                                __pstringtext4 1853                                  __pstringtext5 1869  
                                __pstringtext6 187F                                  __pstringtext7 1895  
                                __pstringtext8 18AA                                  __pstringtext9 18BF  
                       __Umul8_16@multiplicand 0070                                       tolower@c 0076  
                       __size_of___fpclassifyf 007F                                       strncmp@l 0078  
                                     strncmp@n 0072                                       strncmp@r 0076  
                                   _TX1STAbits 019E                                  ___fladd@signs 0078  
                           EUSART_Write@txData 0070                 __end_of_PIN_MANAGER_Initialize 13E6  
                                 ___fladd@aexp 0079                                   ___fladd@bexp 007A  
                         __Umul8_16@multiplier 0078                              __Umul8_16@product 0074  
                        _open@temp_sensor$F416 0000  
