

Microchip MPLAB XC8 Assembler V2.31 build 20201012212115 
                                                                                               Sat Feb 27 22:39:03 2021

Microchip MPLAB XC8 C Compiler v2.31 (Free license) build 20201012212115 Og1 
     1                           	processor	16LF1717
     2                           	pagewidth 120
     3                           	opt	flic
     4                           	psect	nvBANK1,global,class=BANK1,space=1,delta=1,noexec
     5                           	psect	stringtext1,global,class=STRCODE,delta=2,noexec
     6                           	psect	stringtext2,global,class=STRCODE,delta=2,noexec
     7                           	psect	stringtext3,global,class=STRCODE,delta=2,noexec
     8                           	psect	stringtext4,global,class=STRCODE,delta=2,noexec
     9                           	psect	stringtext5,global,class=STRCODE,delta=2,noexec
    10                           	psect	stringtext6,global,class=STRCODE,delta=2,noexec
    11                           	psect	stringtext7,global,class=STRCODE,delta=2,noexec
    12                           	psect	stringtext8,global,class=STRCODE,delta=2,noexec
    13                           	psect	stringtext9,global,class=STRCODE,delta=2,noexec
    14                           	psect	stringtext10,global,class=STRCODE,delta=2,noexec
    15                           	psect	stringtext11,global,class=STRCODE,delta=2,noexec
    16                           	psect	stringtext12,global,class=STRCODE,delta=2,noexec
    17                           	psect	stringtext13,global,class=STRCODE,delta=2,noexec
    18                           	psect	stringtext14,global,class=STRCODE,delta=2,noexec
    19                           	psect	stringtext15,global,class=STRCODE,delta=2,noexec
    20                           	psect	stringtext16,global,class=STRCODE,delta=2,noexec
    21                           	psect	cinit,global,class=CODE,merge=1,delta=2
    22                           	psect	bssBANK1,global,class=BANK1,space=1,delta=1,noexec
    23                           	psect	clrtext,global,class=CODE,delta=2
    24                           	psect	cstackBANK1,global,class=BANK1,space=1,delta=1,noexec
    25                           	psect	cstackCOMMON,global,class=COMMON,space=1,delta=1,noexec
    26                           	psect	cstackBANK0,global,class=BANK0,space=1,delta=1,noexec
    27                           	psect	maintext,global,class=CODE,merge=1,split=1,delta=2
    28                           	psect	text1,local,class=CODE,merge=1,delta=2
    29                           	psect	text2,local,class=CODE,merge=1,delta=2
    30                           	psect	text3,local,class=CODE,merge=1,delta=2
    31                           	psect	text4,local,class=CODE,merge=1,delta=2
    32                           	psect	text5,local,class=CODE,merge=1,delta=2
    33                           	psect	text6,local,class=CODE,merge=1,delta=2
    34                           	psect	text7,local,class=CODE,merge=1,delta=2
    35                           	psect	text8,local,class=CODE,merge=1,delta=2,group=2
    36                           	psect	text9,local,class=CODE,merge=1,delta=2,group=2
    37                           	psect	text10,local,class=CODE,merge=1,delta=2
    38                           	psect	text11,local,class=CODE,merge=1,delta=2
    39                           	psect	text12,local,class=CODE,merge=1,delta=2
    40                           	psect	text13,local,class=CODE,merge=1,delta=2
    41                           	psect	text14,local,class=CODE,merge=1,delta=2
    42                           	psect	text15,local,class=CODE,merge=1,delta=2
    43                           	psect	text16,local,class=CODE,merge=1,delta=2
    44                           	psect	text17,local,class=CODE,merge=1,delta=2
    45                           	psect	text18,local,class=CODE,merge=1,delta=2
    46                           	psect	text19,local,class=CODE,merge=1,delta=2,group=3
    47                           	psect	text20,local,class=CODE,merge=1,delta=2,group=1
    48                           	psect	text21,local,class=CODE,merge=1,delta=2,group=1
    49                           	psect	text22,local,class=CODE,merge=1,delta=2,group=1
    50                           	psect	text23,local,class=CODE,merge=1,delta=2,group=1
    51                           	psect	text24,local,class=CODE,merge=1,delta=2,group=3
    52                           	psect	text25,local,class=CODE,merge=1,delta=2,group=3
    53                           	psect	text26,local,class=CODE,merge=1,delta=2,group=3
    54                           	psect	text27,local,class=CODE,merge=1,delta=2
    55                           	psect	text28,local,class=CODE,merge=1,delta=2
    56                           	psect	text29,local,class=CODE,merge=1,delta=2,group=3
    57                           	psect	text30,local,class=CODE,merge=1,delta=2,group=2
    58                           	psect	text31,local,class=CODE,merge=1,delta=2,group=2
    59                           	psect	text32,local,class=CODE,merge=1,delta=2,group=2
    60                           	psect	text33,local,class=CODE,merge=1,delta=2
    61                           	psect	text34,local,class=CODE,merge=1,delta=2
    62                           	psect	text35,local,class=CODE,merge=1,delta=2
    63                           	psect	text36,local,class=CODE,merge=1,delta=2
    64                           	psect	text37,local,class=CODE,merge=1,delta=2
    65                           	psect	text38,local,class=CODE,merge=1,delta=2
    66                           	psect	text39,local,class=CODE,merge=1,delta=2
    67                           	psect	text40,local,class=CODE,merge=1,delta=2
    68                           	psect	text41,local,class=CODE,merge=1,delta=2
    69                           	psect	text42,local,class=CODE,merge=1,delta=2
    70                           	psect	text43,local,class=CODE,merge=1,delta=2
    71                           	psect	config,global,abs,ovrld,class=CONFIG,space=4,delta=2,noexec
    72                           	dabs	1,0x7E,2
    73  0000                     
    74                           ; Version 2.20
    75                           ; Generated 12/02/2020 GMT
    76                           ; 
    77                           ; Copyright © 2020, Microchip Technology Inc. and its subsidiaries ("Microchip")
    78                           ; All rights reserved.
    79                           ; 
    80                           ; This software is developed by Microchip Technology Inc. and its subsidiaries ("Microch
      +                          ip").
    81                           ; 
    82                           ; Redistribution and use in source and binary forms, with or without modification, are
    83                           ; permitted provided that the following conditions are met:
    84                           ; 
    85                           ;     1. Redistributions of source code must retain the above copyright notice, this lis
      +                          t of
    86                           ;        conditions and the following disclaimer.
    87                           ; 
    88                           ;     2. Redistributions in binary form must reproduce the above copyright notice, this 
      +                          list
    89                           ;        of conditions and the following disclaimer in the documentation and/or other
    90                           ;        materials provided with the distribution.
    91                           ; 
    92                           ;     3. Microchip's name may not be used to endorse or promote products derived from th
      +                          is
    93                           ;        software without specific prior written permission.
    94                           ; 
    95                           ; THIS SOFTWARE IS PROVIDED BY MICROCHIP "AS IS" AND ANY EXPRESS OR IMPLIED WARRANTIES,
    96                           ; INCLUDING, BUT NOT LIMITED TO, THE IMPLIED WARRANTIES OF MERCHANTABILITY AND FITNESS F
      +                          OR
    97                           ; PURPOSE ARE DISCLAIMED.  IN NO EVENT SHALL MICROCHIP BE LIABLE FOR ANY DIRECT, INDIREC
      +                          T,
    98                           ; INCIDENTAL, SPECIAL, EXEMPLARY, OR CONSEQUENTIAL DAMAGES (INCLUDING BUT NOT LIMITED TO
    99                           ; PROCUREMENT OF SUBSTITUTE GOODS OR SERVICES; LOSS OF USE, DATA OR PROFITS; OR BUSINESS
   100                           ; INTERRUPTION) HOWSOEVER CAUSED AND ON ANY THEORY OF LIABILITY, WHETHER IN CONTRACT, ST
      +                          RICT
   101                           ; LIABILITY, OR TORT (INCLUDING NEGLIGENCE OR OTHERWISE) ARISING IN ANY WAY OUT OF THE U
      +                          SE OF
   102                           ; THIS SOFTWARE, EVEN IF ADVISED OF THE POSSIBILITY OF SUCH DAMAGE.
   103                           ; 
   104                           ; 
   105                           ; Code-generator required, PIC16LF1717 Definitions
   106                           ; 
   107                           ; SFR Addresses
   108  0000                     	;# 
   109  0001                     	;# 
   110  0002                     	;# 
   111  0003                     	;# 
   112  0004                     	;# 
   113  0005                     	;# 
   114  0006                     	;# 
   115  0007                     	;# 
   116  0008                     	;# 
   117  0009                     	;# 
   118  000A                     	;# 
   119  000B                     	;# 
   120  000C                     	;# 
   121  000D                     	;# 
   122  000E                     	;# 
   123  000F                     	;# 
   124  0010                     	;# 
   125  0011                     	;# 
   126  0012                     	;# 
   127  0013                     	;# 
   128  0015                     	;# 
   129  0016                     	;# 
   130  0016                     	;# 
   131  0017                     	;# 
   132  0018                     	;# 
   133  0019                     	;# 
   134  001A                     	;# 
   135  001B                     	;# 
   136  001C                     	;# 
   137  008C                     	;# 
   138  008D                     	;# 
   139  008E                     	;# 
   140  008F                     	;# 
   141  0090                     	;# 
   142  0091                     	;# 
   143  0092                     	;# 
   144  0093                     	;# 
   145  0095                     	;# 
   146  0096                     	;# 
   147  0097                     	;# 
   148  0098                     	;# 
   149  0099                     	;# 
   150  009A                     	;# 
   151  009B                     	;# 
   152  009B                     	;# 
   153  009C                     	;# 
   154  009D                     	;# 
   155  009E                     	;# 
   156  009F                     	;# 
   157  010C                     	;# 
   158  010D                     	;# 
   159  010E                     	;# 
   160  010F                     	;# 
   161  0110                     	;# 
   162  0111                     	;# 
   163  0112                     	;# 
   164  0113                     	;# 
   165  0114                     	;# 
   166  0115                     	;# 
   167  0116                     	;# 
   168  0117                     	;# 
   169  0118                     	;# 
   170  0119                     	;# 
   171  011A                     	;# 
   172  011B                     	;# 
   173  011B                     	;# 
   174  011C                     	;# 
   175  018C                     	;# 
   176  018D                     	;# 
   177  018E                     	;# 
   178  018F                     	;# 
   179  0190                     	;# 
   180  0191                     	;# 
   181  0191                     	;# 
   182  0192                     	;# 
   183  0193                     	;# 
   184  0193                     	;# 
   185  0194                     	;# 
   186  0195                     	;# 
   187  0196                     	;# 
   188  0199                     	;# 
   189  0199                     	;# 
   190  0199                     	;# 
   191  019A                     	;# 
   192  019A                     	;# 
   193  019A                     	;# 
   194  019B                     	;# 
   195  019B                     	;# 
   196  019B                     	;# 
   197  019B                     	;# 
   198  019B                     	;# 
   199  019C                     	;# 
   200  019C                     	;# 
   201  019C                     	;# 
   202  019D                     	;# 
   203  019D                     	;# 
   204  019D                     	;# 
   205  019E                     	;# 
   206  019E                     	;# 
   207  019E                     	;# 
   208  019F                     	;# 
   209  019F                     	;# 
   210  019F                     	;# 
   211  019F                     	;# 
   212  019F                     	;# 
   213  020C                     	;# 
   214  020D                     	;# 
   215  020E                     	;# 
   216  020F                     	;# 
   217  0210                     	;# 
   218  0211                     	;# 
   219  0211                     	;# 
   220  0212                     	;# 
   221  0212                     	;# 
   222  0213                     	;# 
   223  0213                     	;# 
   224  0214                     	;# 
   225  0214                     	;# 
   226  0215                     	;# 
   227  0215                     	;# 
   228  0215                     	;# 
   229  0215                     	;# 
   230  0216                     	;# 
   231  0216                     	;# 
   232  0217                     	;# 
   233  0217                     	;# 
   234  028C                     	;# 
   235  028D                     	;# 
   236  028E                     	;# 
   237  028F                     	;# 
   238  0290                     	;# 
   239  0291                     	;# 
   240  0291                     	;# 
   241  0292                     	;# 
   242  0293                     	;# 
   243  0293                     	;# 
   244  0298                     	;# 
   245  0298                     	;# 
   246  0299                     	;# 
   247  029A                     	;# 
   248  029A                     	;# 
   249  029E                     	;# 
   250  030C                     	;# 
   251  030D                     	;# 
   252  030E                     	;# 
   253  030F                     	;# 
   254  0310                     	;# 
   255  038C                     	;# 
   256  038D                     	;# 
   257  038E                     	;# 
   258  038F                     	;# 
   259  0390                     	;# 
   260  0391                     	;# 
   261  0392                     	;# 
   262  0393                     	;# 
   263  0394                     	;# 
   264  0395                     	;# 
   265  0396                     	;# 
   266  0397                     	;# 
   267  0398                     	;# 
   268  0399                     	;# 
   269  039D                     	;# 
   270  039E                     	;# 
   271  039F                     	;# 
   272  0415                     	;# 
   273  0416                     	;# 
   274  0417                     	;# 
   275  041C                     	;# 
   276  041D                     	;# 
   277  041E                     	;# 
   278  0498                     	;# 
   279  0498                     	;# 
   280  0499                     	;# 
   281  049A                     	;# 
   282  049B                     	;# 
   283  049B                     	;# 
   284  049C                     	;# 
   285  049D                     	;# 
   286  049E                     	;# 
   287  049F                     	;# 
   288  0511                     	;# 
   289  0515                     	;# 
   290  0617                     	;# 
   291  0618                     	;# 
   292  0619                     	;# 
   293  0619                     	;# 
   294  061A                     	;# 
   295  061B                     	;# 
   296  061C                     	;# 
   297  061C                     	;# 
   298  0691                     	;# 
   299  0692                     	;# 
   300  0693                     	;# 
   301  0694                     	;# 
   302  0695                     	;# 
   303  0696                     	;# 
   304  0697                     	;# 
   305  0698                     	;# 
   306  0699                     	;# 
   307  069A                     	;# 
   308  069B                     	;# 
   309  069C                     	;# 
   310  069D                     	;# 
   311  069E                     	;# 
   312  069F                     	;# 
   313  0E0F                     	;# 
   314  0E10                     	;# 
   315  0E11                     	;# 
   316  0E12                     	;# 
   317  0E13                     	;# 
   318  0E14                     	;# 
   319  0E15                     	;# 
   320  0E17                     	;# 
   321  0E20                     	;# 
   322  0E21                     	;# 
   323  0E22                     	;# 
   324  0E24                     	;# 
   325  0E25                     	;# 
   326  0E28                     	;# 
   327  0E29                     	;# 
   328  0E2A                     	;# 
   329  0E2B                     	;# 
   330  0E90                     	;# 
   331  0E91                     	;# 
   332  0E92                     	;# 
   333  0E93                     	;# 
   334  0E94                     	;# 
   335  0E95                     	;# 
   336  0E96                     	;# 
   337  0E97                     	;# 
   338  0E98                     	;# 
   339  0E99                     	;# 
   340  0E9A                     	;# 
   341  0E9B                     	;# 
   342  0E9C                     	;# 
   343  0E9D                     	;# 
   344  0E9E                     	;# 
   345  0E9F                     	;# 
   346  0EA0                     	;# 
   347  0EA1                     	;# 
   348  0EA2                     	;# 
   349  0EA3                     	;# 
   350  0EA4                     	;# 
   351  0EA5                     	;# 
   352  0EA6                     	;# 
   353  0EA7                     	;# 
   354  0EA8                     	;# 
   355  0EA9                     	;# 
   356  0EAA                     	;# 
   357  0EAB                     	;# 
   358  0EAC                     	;# 
   359  0EAD                     	;# 
   360  0EAE                     	;# 
   361  0EAF                     	;# 
   362  0EB0                     	;# 
   363  0EB1                     	;# 
   364  0EB2                     	;# 
   365  0F0F                     	;# 
   366  0F10                     	;# 
   367  0F11                     	;# 
   368  0F12                     	;# 
   369  0F13                     	;# 
   370  0F14                     	;# 
   371  0F15                     	;# 
   372  0F16                     	;# 
   373  0F17                     	;# 
   374  0F18                     	;# 
   375  0F19                     	;# 
   376  0F1A                     	;# 
   377  0F1B                     	;# 
   378  0F1C                     	;# 
   379  0F1D                     	;# 
   380  0F1E                     	;# 
   381  0F1F                     	;# 
   382  0F20                     	;# 
   383  0F21                     	;# 
   384  0F22                     	;# 
   385  0F23                     	;# 
   386  0F24                     	;# 
   387  0F25                     	;# 
   388  0F26                     	;# 
   389  0F27                     	;# 
   390  0F28                     	;# 
   391  0F29                     	;# 
   392  0F2A                     	;# 
   393  0F2B                     	;# 
   394  0F2C                     	;# 
   395  0F2D                     	;# 
   396  0F2E                     	;# 
   397  0F2F                     	;# 
   398  0F30                     	;# 
   399  0F31                     	;# 
   400  0F32                     	;# 
   401  0F33                     	;# 
   402  0F34                     	;# 
   403  0F35                     	;# 
   404  0F36                     	;# 
   405  0F37                     	;# 
   406  0FE4                     	;# 
   407  0FE5                     	;# 
   408  0FE6                     	;# 
   409  0FE7                     	;# 
   410  0FE8                     	;# 
   411  0FE9                     	;# 
   412  0FEA                     	;# 
   413  0FEB                     	;# 
   414  0FED                     	;# 
   415  0FEE                     	;# 
   416  0FEF                     	;# 
   417  0000                     	;# 
   418  0001                     	;# 
   419  0002                     	;# 
   420  0003                     	;# 
   421  0004                     	;# 
   422  0005                     	;# 
   423  0006                     	;# 
   424  0007                     	;# 
   425  0008                     	;# 
   426  0009                     	;# 
   427  000A                     	;# 
   428  000B                     	;# 
   429  000C                     	;# 
   430  000D                     	;# 
   431  000E                     	;# 
   432  000F                     	;# 
   433  0010                     	;# 
   434  0011                     	;# 
   435  0012                     	;# 
   436  0013                     	;# 
   437  0015                     	;# 
   438  0016                     	;# 
   439  0016                     	;# 
   440  0017                     	;# 
   441  0018                     	;# 
   442  0019                     	;# 
   443  001A                     	;# 
   444  001B                     	;# 
   445  001C                     	;# 
   446  008C                     	;# 
   447  008D                     	;# 
   448  008E                     	;# 
   449  008F                     	;# 
   450  0090                     	;# 
   451  0091                     	;# 
   452  0092                     	;# 
   453  0093                     	;# 
   454  0095                     	;# 
   455  0096                     	;# 
   456  0097                     	;# 
   457  0098                     	;# 
   458  0099                     	;# 
   459  009A                     	;# 
   460  009B                     	;# 
   461  009B                     	;# 
   462  009C                     	;# 
   463  009D                     	;# 
   464  009E                     	;# 
   465  009F                     	;# 
   466  010C                     	;# 
   467  010D                     	;# 
   468  010E                     	;# 
   469  010F                     	;# 
   470  0110                     	;# 
   471  0111                     	;# 
   472  0112                     	;# 
   473  0113                     	;# 
   474  0114                     	;# 
   475  0115                     	;# 
   476  0116                     	;# 
   477  0117                     	;# 
   478  0118                     	;# 
   479  0119                     	;# 
   480  011A                     	;# 
   481  011B                     	;# 
   482  011B                     	;# 
   483  011C                     	;# 
   484  018C                     	;# 
   485  018D                     	;# 
   486  018E                     	;# 
   487  018F                     	;# 
   488  0190                     	;# 
   489  0191                     	;# 
   490  0191                     	;# 
   491  0192                     	;# 
   492  0193                     	;# 
   493  0193                     	;# 
   494  0194                     	;# 
   495  0195                     	;# 
   496  0196                     	;# 
   497  0199                     	;# 
   498  0199                     	;# 
   499  0199                     	;# 
   500  019A                     	;# 
   501  019A                     	;# 
   502  019A                     	;# 
   503  019B                     	;# 
   504  019B                     	;# 
   505  019B                     	;# 
   506  019B                     	;# 
   507  019B                     	;# 
   508  019C                     	;# 
   509  019C                     	;# 
   510  019C                     	;# 
   511  019D                     	;# 
   512  019D                     	;# 
   513  019D                     	;# 
   514  019E                     	;# 
   515  019E                     	;# 
   516  019E                     	;# 
   517  019F                     	;# 
   518  019F                     	;# 
   519  019F                     	;# 
   520  019F                     	;# 
   521  019F                     	;# 
   522  020C                     	;# 
   523  020D                     	;# 
   524  020E                     	;# 
   525  020F                     	;# 
   526  0210                     	;# 
   527  0211                     	;# 
   528  0211                     	;# 
   529  0212                     	;# 
   530  0212                     	;# 
   531  0213                     	;# 
   532  0213                     	;# 
   533  0214                     	;# 
   534  0214                     	;# 
   535  0215                     	;# 
   536  0215                     	;# 
   537  0215                     	;# 
   538  0215                     	;# 
   539  0216                     	;# 
   540  0216                     	;# 
   541  0217                     	;# 
   542  0217                     	;# 
   543  028C                     	;# 
   544  028D                     	;# 
   545  028E                     	;# 
   546  028F                     	;# 
   547  0290                     	;# 
   548  0291                     	;# 
   549  0291                     	;# 
   550  0292                     	;# 
   551  0293                     	;# 
   552  0293                     	;# 
   553  0298                     	;# 
   554  0298                     	;# 
   555  0299                     	;# 
   556  029A                     	;# 
   557  029A                     	;# 
   558  029E                     	;# 
   559  030C                     	;# 
   560  030D                     	;# 
   561  030E                     	;# 
   562  030F                     	;# 
   563  0310                     	;# 
   564  038C                     	;# 
   565  038D                     	;# 
   566  038E                     	;# 
   567  038F                     	;# 
   568  0390                     	;# 
   569  0391                     	;# 
   570  0392                     	;# 
   571  0393                     	;# 
   572  0394                     	;# 
   573  0395                     	;# 
   574  0396                     	;# 
   575  0397                     	;# 
   576  0398                     	;# 
   577  0399                     	;# 
   578  039D                     	;# 
   579  039E                     	;# 
   580  039F                     	;# 
   581  0415                     	;# 
   582  0416                     	;# 
   583  0417                     	;# 
   584  041C                     	;# 
   585  041D                     	;# 
   586  041E                     	;# 
   587  0498                     	;# 
   588  0498                     	;# 
   589  0499                     	;# 
   590  049A                     	;# 
   591  049B                     	;# 
   592  049B                     	;# 
   593  049C                     	;# 
   594  049D                     	;# 
   595  049E                     	;# 
   596  049F                     	;# 
   597  0511                     	;# 
   598  0515                     	;# 
   599  0617                     	;# 
   600  0618                     	;# 
   601  0619                     	;# 
   602  0619                     	;# 
   603  061A                     	;# 
   604  061B                     	;# 
   605  061C                     	;# 
   606  061C                     	;# 
   607  0691                     	;# 
   608  0692                     	;# 
   609  0693                     	;# 
   610  0694                     	;# 
   611  0695                     	;# 
   612  0696                     	;# 
   613  0697                     	;# 
   614  0698                     	;# 
   615  0699                     	;# 
   616  069A                     	;# 
   617  069B                     	;# 
   618  069C                     	;# 
   619  069D                     	;# 
   620  069E                     	;# 
   621  069F                     	;# 
   622  0E0F                     	;# 
   623  0E10                     	;# 
   624  0E11                     	;# 
   625  0E12                     	;# 
   626  0E13                     	;# 
   627  0E14                     	;# 
   628  0E15                     	;# 
   629  0E17                     	;# 
   630  0E20                     	;# 
   631  0E21                     	;# 
   632  0E22                     	;# 
   633  0E24                     	;# 
   634  0E25                     	;# 
   635  0E28                     	;# 
   636  0E29                     	;# 
   637  0E2A                     	;# 
   638  0E2B                     	;# 
   639  0E90                     	;# 
   640  0E91                     	;# 
   641  0E92                     	;# 
   642  0E93                     	;# 
   643  0E94                     	;# 
   644  0E95                     	;# 
   645  0E96                     	;# 
   646  0E97                     	;# 
   647  0E98                     	;# 
   648  0E99                     	;# 
   649  0E9A                     	;# 
   650  0E9B                     	;# 
   651  0E9C                     	;# 
   652  0E9D                     	;# 
   653  0E9E                     	;# 
   654  0E9F                     	;# 
   655  0EA0                     	;# 
   656  0EA1                     	;# 
   657  0EA2                     	;# 
   658  0EA3                     	;# 
   659  0EA4                     	;# 
   660  0EA5                     	;# 
   661  0EA6                     	;# 
   662  0EA7                     	;# 
   663  0EA8                     	;# 
   664  0EA9                     	;# 
   665  0EAA                     	;# 
   666  0EAB                     	;# 
   667  0EAC                     	;# 
   668  0EAD                     	;# 
   669  0EAE                     	;# 
   670  0EAF                     	;# 
   671  0EB0                     	;# 
   672  0EB1                     	;# 
   673  0EB2                     	;# 
   674  0F0F                     	;# 
   675  0F10                     	;# 
   676  0F11                     	;# 
   677  0F12                     	;# 
   678  0F13                     	;# 
   679  0F14                     	;# 
   680  0F15                     	;# 
   681  0F16                     	;# 
   682  0F17                     	;# 
   683  0F18                     	;# 
   684  0F19                     	;# 
   685  0F1A                     	;# 
   686  0F1B                     	;# 
   687  0F1C                     	;# 
   688  0F1D                     	;# 
   689  0F1E                     	;# 
   690  0F1F                     	;# 
   691  0F20                     	;# 
   692  0F21                     	;# 
   693  0F22                     	;# 
   694  0F23                     	;# 
   695  0F24                     	;# 
   696  0F25                     	;# 
   697  0F26                     	;# 
   698  0F27                     	;# 
   699  0F28                     	;# 
   700  0F29                     	;# 
   701  0F2A                     	;# 
   702  0F2B                     	;# 
   703  0F2C                     	;# 
   704  0F2D                     	;# 
   705  0F2E                     	;# 
   706  0F2F                     	;# 
   707  0F30                     	;# 
   708  0F31                     	;# 
   709  0F32                     	;# 
   710  0F33                     	;# 
   711  0F34                     	;# 
   712  0F35                     	;# 
   713  0F36                     	;# 
   714  0F37                     	;# 
   715  0FE4                     	;# 
   716  0FE5                     	;# 
   717  0FE6                     	;# 
   718  0FE7                     	;# 
   719  0FE8                     	;# 
   720  0FE9                     	;# 
   721  0FEA                     	;# 
   722  0FEB                     	;# 
   723  0FED                     	;# 
   724  0FEE                     	;# 
   725  0FEF                     	;# 
   726  0000                     	;# 
   727  0001                     	;# 
   728  0002                     	;# 
   729  0003                     	;# 
   730  0004                     	;# 
   731  0005                     	;# 
   732  0006                     	;# 
   733  0007                     	;# 
   734  0008                     	;# 
   735  0009                     	;# 
   736  000A                     	;# 
   737  000B                     	;# 
   738  000C                     	;# 
   739  000D                     	;# 
   740  000E                     	;# 
   741  000F                     	;# 
   742  0010                     	;# 
   743  0011                     	;# 
   744  0012                     	;# 
   745  0013                     	;# 
   746  0015                     	;# 
   747  0016                     	;# 
   748  0016                     	;# 
   749  0017                     	;# 
   750  0018                     	;# 
   751  0019                     	;# 
   752  001A                     	;# 
   753  001B                     	;# 
   754  001C                     	;# 
   755  008C                     	;# 
   756  008D                     	;# 
   757  008E                     	;# 
   758  008F                     	;# 
   759  0090                     	;# 
   760  0091                     	;# 
   761  0092                     	;# 
   762  0093                     	;# 
   763  0095                     	;# 
   764  0096                     	;# 
   765  0097                     	;# 
   766  0098                     	;# 
   767  0099                     	;# 
   768  009A                     	;# 
   769  009B                     	;# 
   770  009B                     	;# 
   771  009C                     	;# 
   772  009D                     	;# 
   773  009E                     	;# 
   774  009F                     	;# 
   775  010C                     	;# 
   776  010D                     	;# 
   777  010E                     	;# 
   778  010F                     	;# 
   779  0110                     	;# 
   780  0111                     	;# 
   781  0112                     	;# 
   782  0113                     	;# 
   783  0114                     	;# 
   784  0115                     	;# 
   785  0116                     	;# 
   786  0117                     	;# 
   787  0118                     	;# 
   788  0119                     	;# 
   789  011A                     	;# 
   790  011B                     	;# 
   791  011B                     	;# 
   792  011C                     	;# 
   793  018C                     	;# 
   794  018D                     	;# 
   795  018E                     	;# 
   796  018F                     	;# 
   797  0190                     	;# 
   798  0191                     	;# 
   799  0191                     	;# 
   800  0192                     	;# 
   801  0193                     	;# 
   802  0193                     	;# 
   803  0194                     	;# 
   804  0195                     	;# 
   805  0196                     	;# 
   806  0199                     	;# 
   807  0199                     	;# 
   808  0199                     	;# 
   809  019A                     	;# 
   810  019A                     	;# 
   811  019A                     	;# 
   812  019B                     	;# 
   813  019B                     	;# 
   814  019B                     	;# 
   815  019B                     	;# 
   816  019B                     	;# 
   817  019C                     	;# 
   818  019C                     	;# 
   819  019C                     	;# 
   820  019D                     	;# 
   821  019D                     	;# 
   822  019D                     	;# 
   823  019E                     	;# 
   824  019E                     	;# 
   825  019E                     	;# 
   826  019F                     	;# 
   827  019F                     	;# 
   828  019F                     	;# 
   829  019F                     	;# 
   830  019F                     	;# 
   831  020C                     	;# 
   832  020D                     	;# 
   833  020E                     	;# 
   834  020F                     	;# 
   835  0210                     	;# 
   836  0211                     	;# 
   837  0211                     	;# 
   838  0212                     	;# 
   839  0212                     	;# 
   840  0213                     	;# 
   841  0213                     	;# 
   842  0214                     	;# 
   843  0214                     	;# 
   844  0215                     	;# 
   845  0215                     	;# 
   846  0215                     	;# 
   847  0215                     	;# 
   848  0216                     	;# 
   849  0216                     	;# 
   850  0217                     	;# 
   851  0217                     	;# 
   852  028C                     	;# 
   853  028D                     	;# 
   854  028E                     	;# 
   855  028F                     	;# 
   856  0290                     	;# 
   857  0291                     	;# 
   858  0291                     	;# 
   859  0292                     	;# 
   860  0293                     	;# 
   861  0293                     	;# 
   862  0298                     	;# 
   863  0298                     	;# 
   864  0299                     	;# 
   865  029A                     	;# 
   866  029A                     	;# 
   867  029E                     	;# 
   868  030C                     	;# 
   869  030D                     	;# 
   870  030E                     	;# 
   871  030F                     	;# 
   872  0310                     	;# 
   873  038C                     	;# 
   874  038D                     	;# 
   875  038E                     	;# 
   876  038F                     	;# 
   877  0390                     	;# 
   878  0391                     	;# 
   879  0392                     	;# 
   880  0393                     	;# 
   881  0394                     	;# 
   882  0395                     	;# 
   883  0396                     	;# 
   884  0397                     	;# 
   885  0398                     	;# 
   886  0399                     	;# 
   887  039D                     	;# 
   888  039E                     	;# 
   889  039F                     	;# 
   890  0415                     	;# 
   891  0416                     	;# 
   892  0417                     	;# 
   893  041C                     	;# 
   894  041D                     	;# 
   895  041E                     	;# 
   896  0498                     	;# 
   897  0498                     	;# 
   898  0499                     	;# 
   899  049A                     	;# 
   900  049B                     	;# 
   901  049B                     	;# 
   902  049C                     	;# 
   903  049D                     	;# 
   904  049E                     	;# 
   905  049F                     	;# 
   906  0511                     	;# 
   907  0515                     	;# 
   908  0617                     	;# 
   909  0618                     	;# 
   910  0619                     	;# 
   911  0619                     	;# 
   912  061A                     	;# 
   913  061B                     	;# 
   914  061C                     	;# 
   915  061C                     	;# 
   916  0691                     	;# 
   917  0692                     	;# 
   918  0693                     	;# 
   919  0694                     	;# 
   920  0695                     	;# 
   921  0696                     	;# 
   922  0697                     	;# 
   923  0698                     	;# 
   924  0699                     	;# 
   925  069A                     	;# 
   926  069B                     	;# 
   927  069C                     	;# 
   928  069D                     	;# 
   929  069E                     	;# 
   930  069F                     	;# 
   931  0E0F                     	;# 
   932  0E10                     	;# 
   933  0E11                     	;# 
   934  0E12                     	;# 
   935  0E13                     	;# 
   936  0E14                     	;# 
   937  0E15                     	;# 
   938  0E17                     	;# 
   939  0E20                     	;# 
   940  0E21                     	;# 
   941  0E22                     	;# 
   942  0E24                     	;# 
   943  0E25                     	;# 
   944  0E28                     	;# 
   945  0E29                     	;# 
   946  0E2A                     	;# 
   947  0E2B                     	;# 
   948  0E90                     	;# 
   949  0E91                     	;# 
   950  0E92                     	;# 
   951  0E93                     	;# 
   952  0E94                     	;# 
   953  0E95                     	;# 
   954  0E96                     	;# 
   955  0E97                     	;# 
   956  0E98                     	;# 
   957  0E99                     	;# 
   958  0E9A                     	;# 
   959  0E9B                     	;# 
   960  0E9C                     	;# 
   961  0E9D                     	;# 
   962  0E9E                     	;# 
   963  0E9F                     	;# 
   964  0EA0                     	;# 
   965  0EA1                     	;# 
   966  0EA2                     	;# 
   967  0EA3                     	;# 
   968  0EA4                     	;# 
   969  0EA5                     	;# 
   970  0EA6                     	;# 
   971  0EA7                     	;# 
   972  0EA8                     	;# 
   973  0EA9                     	;# 
   974  0EAA                     	;# 
   975  0EAB                     	;# 
   976  0EAC                     	;# 
   977  0EAD                     	;# 
   978  0EAE                     	;# 
   979  0EAF                     	;# 
   980  0EB0                     	;# 
   981  0EB1                     	;# 
   982  0EB2                     	;# 
   983  0F0F                     	;# 
   984  0F10                     	;# 
   985  0F11                     	;# 
   986  0F12                     	;# 
   987  0F13                     	;# 
   988  0F14                     	;# 
   989  0F15                     	;# 
   990  0F16                     	;# 
   991  0F17                     	;# 
   992  0F18                     	;# 
   993  0F19                     	;# 
   994  0F1A                     	;# 
   995  0F1B                     	;# 
   996  0F1C                     	;# 
   997  0F1D                     	;# 
   998  0F1E                     	;# 
   999  0F1F                     	;# 
  1000  0F20                     	;# 
  1001  0F21                     	;# 
  1002  0F22                     	;# 
  1003  0F23                     	;# 
  1004  0F24                     	;# 
  1005  0F25                     	;# 
  1006  0F26                     	;# 
  1007  0F27                     	;# 
  1008  0F28                     	;# 
  1009  0F29                     	;# 
  1010  0F2A                     	;# 
  1011  0F2B                     	;# 
  1012  0F2C                     	;# 
  1013  0F2D                     	;# 
  1014  0F2E                     	;# 
  1015  0F2F                     	;# 
  1016  0F30                     	;# 
  1017  0F31                     	;# 
  1018  0F32                     	;# 
  1019  0F33                     	;# 
  1020  0F34                     	;# 
  1021  0F35                     	;# 
  1022  0F36                     	;# 
  1023  0F37                     	;# 
  1024  0FE4                     	;# 
  1025  0FE5                     	;# 
  1026  0FE6                     	;# 
  1027  0FE7                     	;# 
  1028  0FE8                     	;# 
  1029  0FE9                     	;# 
  1030  0FEA                     	;# 
  1031  0FEB                     	;# 
  1032  0FED                     	;# 
  1033  0FEE                     	;# 
  1034  0FEF                     	;# 
  1035  0000                     	;# 
  1036  0001                     	;# 
  1037  0002                     	;# 
  1038  0003                     	;# 
  1039  0004                     	;# 
  1040  0005                     	;# 
  1041  0006                     	;# 
  1042  0007                     	;# 
  1043  0008                     	;# 
  1044  0009                     	;# 
  1045  000A                     	;# 
  1046  000B                     	;# 
  1047  000C                     	;# 
  1048  000D                     	;# 
  1049  000E                     	;# 
  1050  000F                     	;# 
  1051  0010                     	;# 
  1052  0011                     	;# 
  1053  0012                     	;# 
  1054  0013                     	;# 
  1055  0015                     	;# 
  1056  0016                     	;# 
  1057  0016                     	;# 
  1058  0017                     	;# 
  1059  0018                     	;# 
  1060  0019                     	;# 
  1061  001A                     	;# 
  1062  001B                     	;# 
  1063  001C                     	;# 
  1064  008C                     	;# 
  1065  008D                     	;# 
  1066  008E                     	;# 
  1067  008F                     	;# 
  1068  0090                     	;# 
  1069  0091                     	;# 
  1070  0092                     	;# 
  1071  0093                     	;# 
  1072  0095                     	;# 
  1073  0096                     	;# 
  1074  0097                     	;# 
  1075  0098                     	;# 
  1076  0099                     	;# 
  1077  009A                     	;# 
  1078  009B                     	;# 
  1079  009B                     	;# 
  1080  009C                     	;# 
  1081  009D                     	;# 
  1082  009E                     	;# 
  1083  009F                     	;# 
  1084  010C                     	;# 
  1085  010D                     	;# 
  1086  010E                     	;# 
  1087  010F                     	;# 
  1088  0110                     	;# 
  1089  0111                     	;# 
  1090  0112                     	;# 
  1091  0113                     	;# 
  1092  0114                     	;# 
  1093  0115                     	;# 
  1094  0116                     	;# 
  1095  0117                     	;# 
  1096  0118                     	;# 
  1097  0119                     	;# 
  1098  011A                     	;# 
  1099  011B                     	;# 
  1100  011B                     	;# 
  1101  011C                     	;# 
  1102  018C                     	;# 
  1103  018D                     	;# 
  1104  018E                     	;# 
  1105  018F                     	;# 
  1106  0190                     	;# 
  1107  0191                     	;# 
  1108  0191                     	;# 
  1109  0192                     	;# 
  1110  0193                     	;# 
  1111  0193                     	;# 
  1112  0194                     	;# 
  1113  0195                     	;# 
  1114  0196                     	;# 
  1115  0199                     	;# 
  1116  0199                     	;# 
  1117  0199                     	;# 
  1118  019A                     	;# 
  1119  019A                     	;# 
  1120  019A                     	;# 
  1121  019B                     	;# 
  1122  019B                     	;# 
  1123  019B                     	;# 
  1124  019B                     	;# 
  1125  019B                     	;# 
  1126  019C                     	;# 
  1127  019C                     	;# 
  1128  019C                     	;# 
  1129  019D                     	;# 
  1130  019D                     	;# 
  1131  019D                     	;# 
  1132  019E                     	;# 
  1133  019E                     	;# 
  1134  019E                     	;# 
  1135  019F                     	;# 
  1136  019F                     	;# 
  1137  019F                     	;# 
  1138  019F                     	;# 
  1139  019F                     	;# 
  1140  020C                     	;# 
  1141  020D                     	;# 
  1142  020E                     	;# 
  1143  020F                     	;# 
  1144  0210                     	;# 
  1145  0211                     	;# 
  1146  0211                     	;# 
  1147  0212                     	;# 
  1148  0212                     	;# 
  1149  0213                     	;# 
  1150  0213                     	;# 
  1151  0214                     	;# 
  1152  0214                     	;# 
  1153  0215                     	;# 
  1154  0215                     	;# 
  1155  0215                     	;# 
  1156  0215                     	;# 
  1157  0216                     	;# 
  1158  0216                     	;# 
  1159  0217                     	;# 
  1160  0217                     	;# 
  1161  028C                     	;# 
  1162  028D                     	;# 
  1163  028E                     	;# 
  1164  028F                     	;# 
  1165  0290                     	;# 
  1166  0291                     	;# 
  1167  0291                     	;# 
  1168  0292                     	;# 
  1169  0293                     	;# 
  1170  0293                     	;# 
  1171  0298                     	;# 
  1172  0298                     	;# 
  1173  0299                     	;# 
  1174  029A                     	;# 
  1175  029A                     	;# 
  1176  029E                     	;# 
  1177  030C                     	;# 
  1178  030D                     	;# 
  1179  030E                     	;# 
  1180  030F                     	;# 
  1181  0310                     	;# 
  1182  038C                     	;# 
  1183  038D                     	;# 
  1184  038E                     	;# 
  1185  038F                     	;# 
  1186  0390                     	;# 
  1187  0391                     	;# 
  1188  0392                     	;# 
  1189  0393                     	;# 
  1190  0394                     	;# 
  1191  0395                     	;# 
  1192  0396                     	;# 
  1193  0397                     	;# 
  1194  0398                     	;# 
  1195  0399                     	;# 
  1196  039D                     	;# 
  1197  039E                     	;# 
  1198  039F                     	;# 
  1199  0415                     	;# 
  1200  0416                     	;# 
  1201  0417                     	;# 
  1202  041C                     	;# 
  1203  041D                     	;# 
  1204  041E                     	;# 
  1205  0498                     	;# 
  1206  0498                     	;# 
  1207  0499                     	;# 
  1208  049A                     	;# 
  1209  049B                     	;# 
  1210  049B                     	;# 
  1211  049C                     	;# 
  1212  049D                     	;# 
  1213  049E                     	;# 
  1214  049F                     	;# 
  1215  0511                     	;# 
  1216  0515                     	;# 
  1217  0617                     	;# 
  1218  0618                     	;# 
  1219  0619                     	;# 
  1220  0619                     	;# 
  1221  061A                     	;# 
  1222  061B                     	;# 
  1223  061C                     	;# 
  1224  061C                     	;# 
  1225  0691                     	;# 
  1226  0692                     	;# 
  1227  0693                     	;# 
  1228  0694                     	;# 
  1229  0695                     	;# 
  1230  0696                     	;# 
  1231  0697                     	;# 
  1232  0698                     	;# 
  1233  0699                     	;# 
  1234  069A                     	;# 
  1235  069B                     	;# 
  1236  069C                     	;# 
  1237  069D                     	;# 
  1238  069E                     	;# 
  1239  069F                     	;# 
  1240  0E0F                     	;# 
  1241  0E10                     	;# 
  1242  0E11                     	;# 
  1243  0E12                     	;# 
  1244  0E13                     	;# 
  1245  0E14                     	;# 
  1246  0E15                     	;# 
  1247  0E17                     	;# 
  1248  0E20                     	;# 
  1249  0E21                     	;# 
  1250  0E22                     	;# 
  1251  0E24                     	;# 
  1252  0E25                     	;# 
  1253  0E28                     	;# 
  1254  0E29                     	;# 
  1255  0E2A                     	;# 
  1256  0E2B                     	;# 
  1257  0E90                     	;# 
  1258  0E91                     	;# 
  1259  0E92                     	;# 
  1260  0E93                     	;# 
  1261  0E94                     	;# 
  1262  0E95                     	;# 
  1263  0E96                     	;# 
  1264  0E97                     	;# 
  1265  0E98                     	;# 
  1266  0E99                     	;# 
  1267  0E9A                     	;# 
  1268  0E9B                     	;# 
  1269  0E9C                     	;# 
  1270  0E9D                     	;# 
  1271  0E9E                     	;# 
  1272  0E9F                     	;# 
  1273  0EA0                     	;# 
  1274  0EA1                     	;# 
  1275  0EA2                     	;# 
  1276  0EA3                     	;# 
  1277  0EA4                     	;# 
  1278  0EA5                     	;# 
  1279  0EA6                     	;# 
  1280  0EA7                     	;# 
  1281  0EA8                     	;# 
  1282  0EA9                     	;# 
  1283  0EAA                     	;# 
  1284  0EAB                     	;# 
  1285  0EAC                     	;# 
  1286  0EAD                     	;# 
  1287  0EAE                     	;# 
  1288  0EAF                     	;# 
  1289  0EB0                     	;# 
  1290  0EB1                     	;# 
  1291  0EB2                     	;# 
  1292  0F0F                     	;# 
  1293  0F10                     	;# 
  1294  0F11                     	;# 
  1295  0F12                     	;# 
  1296  0F13                     	;# 
  1297  0F14                     	;# 
  1298  0F15                     	;# 
  1299  0F16                     	;# 
  1300  0F17                     	;# 
  1301  0F18                     	;# 
  1302  0F19                     	;# 
  1303  0F1A                     	;# 
  1304  0F1B                     	;# 
  1305  0F1C                     	;# 
  1306  0F1D                     	;# 
  1307  0F1E                     	;# 
  1308  0F1F                     	;# 
  1309  0F20                     	;# 
  1310  0F21                     	;# 
  1311  0F22                     	;# 
  1312  0F23                     	;# 
  1313  0F24                     	;# 
  1314  0F25                     	;# 
  1315  0F26                     	;# 
  1316  0F27                     	;# 
  1317  0F28                     	;# 
  1318  0F29                     	;# 
  1319  0F2A                     	;# 
  1320  0F2B                     	;# 
  1321  0F2C                     	;# 
  1322  0F2D                     	;# 
  1323  0F2E                     	;# 
  1324  0F2F                     	;# 
  1325  0F30                     	;# 
  1326  0F31                     	;# 
  1327  0F32                     	;# 
  1328  0F33                     	;# 
  1329  0F34                     	;# 
  1330  0F35                     	;# 
  1331  0F36                     	;# 
  1332  0F37                     	;# 
  1333  0FE4                     	;# 
  1334  0FE5                     	;# 
  1335  0FE6                     	;# 
  1336  0FE7                     	;# 
  1337  0FE8                     	;# 
  1338  0FE9                     	;# 
  1339  0FEA                     	;# 
  1340  0FEB                     	;# 
  1341  0FED                     	;# 
  1342  0FEE                     	;# 
  1343  0FEF                     	;# 
  1344  0000                     	;# 
  1345  0001                     	;# 
  1346  0002                     	;# 
  1347  0003                     	;# 
  1348  0004                     	;# 
  1349  0005                     	;# 
  1350  0006                     	;# 
  1351  0007                     	;# 
  1352  0008                     	;# 
  1353  0009                     	;# 
  1354  000A                     	;# 
  1355  000B                     	;# 
  1356  000C                     	;# 
  1357  000D                     	;# 
  1358  000E                     	;# 
  1359  000F                     	;# 
  1360  0010                     	;# 
  1361  0011                     	;# 
  1362  0012                     	;# 
  1363  0013                     	;# 
  1364  0015                     	;# 
  1365  0016                     	;# 
  1366  0016                     	;# 
  1367  0017                     	;# 
  1368  0018                     	;# 
  1369  0019                     	;# 
  1370  001A                     	;# 
  1371  001B                     	;# 
  1372  001C                     	;# 
  1373  008C                     	;# 
  1374  008D                     	;# 
  1375  008E                     	;# 
  1376  008F                     	;# 
  1377  0090                     	;# 
  1378  0091                     	;# 
  1379  0092                     	;# 
  1380  0093                     	;# 
  1381  0095                     	;# 
  1382  0096                     	;# 
  1383  0097                     	;# 
  1384  0098                     	;# 
  1385  0099                     	;# 
  1386  009A                     	;# 
  1387  009B                     	;# 
  1388  009B                     	;# 
  1389  009C                     	;# 
  1390  009D                     	;# 
  1391  009E                     	;# 
  1392  009F                     	;# 
  1393  010C                     	;# 
  1394  010D                     	;# 
  1395  010E                     	;# 
  1396  010F                     	;# 
  1397  0110                     	;# 
  1398  0111                     	;# 
  1399  0112                     	;# 
  1400  0113                     	;# 
  1401  0114                     	;# 
  1402  0115                     	;# 
  1403  0116                     	;# 
  1404  0117                     	;# 
  1405  0118                     	;# 
  1406  0119                     	;# 
  1407  011A                     	;# 
  1408  011B                     	;# 
  1409  011B                     	;# 
  1410  011C                     	;# 
  1411  018C                     	;# 
  1412  018D                     	;# 
  1413  018E                     	;# 
  1414  018F                     	;# 
  1415  0190                     	;# 
  1416  0191                     	;# 
  1417  0191                     	;# 
  1418  0192                     	;# 
  1419  0193                     	;# 
  1420  0193                     	;# 
  1421  0194                     	;# 
  1422  0195                     	;# 
  1423  0196                     	;# 
  1424  0199                     	;# 
  1425  0199                     	;# 
  1426  0199                     	;# 
  1427  019A                     	;# 
  1428  019A                     	;# 
  1429  019A                     	;# 
  1430  019B                     	;# 
  1431  019B                     	;# 
  1432  019B                     	;# 
  1433  019B                     	;# 
  1434  019B                     	;# 
  1435  019C                     	;# 
  1436  019C                     	;# 
  1437  019C                     	;# 
  1438  019D                     	;# 
  1439  019D                     	;# 
  1440  019D                     	;# 
  1441  019E                     	;# 
  1442  019E                     	;# 
  1443  019E                     	;# 
  1444  019F                     	;# 
  1445  019F                     	;# 
  1446  019F                     	;# 
  1447  019F                     	;# 
  1448  019F                     	;# 
  1449  020C                     	;# 
  1450  020D                     	;# 
  1451  020E                     	;# 
  1452  020F                     	;# 
  1453  0210                     	;# 
  1454  0211                     	;# 
  1455  0211                     	;# 
  1456  0212                     	;# 
  1457  0212                     	;# 
  1458  0213                     	;# 
  1459  0213                     	;# 
  1460  0214                     	;# 
  1461  0214                     	;# 
  1462  0215                     	;# 
  1463  0215                     	;# 
  1464  0215                     	;# 
  1465  0215                     	;# 
  1466  0216                     	;# 
  1467  0216                     	;# 
  1468  0217                     	;# 
  1469  0217                     	;# 
  1470  028C                     	;# 
  1471  028D                     	;# 
  1472  028E                     	;# 
  1473  028F                     	;# 
  1474  0290                     	;# 
  1475  0291                     	;# 
  1476  0291                     	;# 
  1477  0292                     	;# 
  1478  0293                     	;# 
  1479  0293                     	;# 
  1480  0298                     	;# 
  1481  0298                     	;# 
  1482  0299                     	;# 
  1483  029A                     	;# 
  1484  029A                     	;# 
  1485  029E                     	;# 
  1486  030C                     	;# 
  1487  030D                     	;# 
  1488  030E                     	;# 
  1489  030F                     	;# 
  1490  0310                     	;# 
  1491  038C                     	;# 
  1492  038D                     	;# 
  1493  038E                     	;# 
  1494  038F                     	;# 
  1495  0390                     	;# 
  1496  0391                     	;# 
  1497  0392                     	;# 
  1498  0393                     	;# 
  1499  0394                     	;# 
  1500  0395                     	;# 
  1501  0396                     	;# 
  1502  0397                     	;# 
  1503  0398                     	;# 
  1504  0399                     	;# 
  1505  039D                     	;# 
  1506  039E                     	;# 
  1507  039F                     	;# 
  1508  0415                     	;# 
  1509  0416                     	;# 
  1510  0417                     	;# 
  1511  041C                     	;# 
  1512  041D                     	;# 
  1513  041E                     	;# 
  1514  0498                     	;# 
  1515  0498                     	;# 
  1516  0499                     	;# 
  1517  049A                     	;# 
  1518  049B                     	;# 
  1519  049B                     	;# 
  1520  049C                     	;# 
  1521  049D                     	;# 
  1522  049E                     	;# 
  1523  049F                     	;# 
  1524  0511                     	;# 
  1525  0515                     	;# 
  1526  0617                     	;# 
  1527  0618                     	;# 
  1528  0619                     	;# 
  1529  0619                     	;# 
  1530  061A                     	;# 
  1531  061B                     	;# 
  1532  061C                     	;# 
  1533  061C                     	;# 
  1534  0691                     	;# 
  1535  0692                     	;# 
  1536  0693                     	;# 
  1537  0694                     	;# 
  1538  0695                     	;# 
  1539  0696                     	;# 
  1540  0697                     	;# 
  1541  0698                     	;# 
  1542  0699                     	;# 
  1543  069A                     	;# 
  1544  069B                     	;# 
  1545  069C                     	;# 
  1546  069D                     	;# 
  1547  069E                     	;# 
  1548  069F                     	;# 
  1549  0E0F                     	;# 
  1550  0E10                     	;# 
  1551  0E11                     	;# 
  1552  0E12                     	;# 
  1553  0E13                     	;# 
  1554  0E14                     	;# 
  1555  0E15                     	;# 
  1556  0E17                     	;# 
  1557  0E20                     	;# 
  1558  0E21                     	;# 
  1559  0E22                     	;# 
  1560  0E24                     	;# 
  1561  0E25                     	;# 
  1562  0E28                     	;# 
  1563  0E29                     	;# 
  1564  0E2A                     	;# 
  1565  0E2B                     	;# 
  1566  0E90                     	;# 
  1567  0E91                     	;# 
  1568  0E92                     	;# 
  1569  0E93                     	;# 
  1570  0E94                     	;# 
  1571  0E95                     	;# 
  1572  0E96                     	;# 
  1573  0E97                     	;# 
  1574  0E98                     	;# 
  1575  0E99                     	;# 
  1576  0E9A                     	;# 
  1577  0E9B                     	;# 
  1578  0E9C                     	;# 
  1579  0E9D                     	;# 
  1580  0E9E                     	;# 
  1581  0E9F                     	;# 
  1582  0EA0                     	;# 
  1583  0EA1                     	;# 
  1584  0EA2                     	;# 
  1585  0EA3                     	;# 
  1586  0EA4                     	;# 
  1587  0EA5                     	;# 
  1588  0EA6                     	;# 
  1589  0EA7                     	;# 
  1590  0EA8                     	;# 
  1591  0EA9                     	;# 
  1592  0EAA                     	;# 
  1593  0EAB                     	;# 
  1594  0EAC                     	;# 
  1595  0EAD                     	;# 
  1596  0EAE                     	;# 
  1597  0EAF                     	;# 
  1598  0EB0                     	;# 
  1599  0EB1                     	;# 
  1600  0EB2                     	;# 
  1601  0F0F                     	;# 
  1602  0F10                     	;# 
  1603  0F11                     	;# 
  1604  0F12                     	;# 
  1605  0F13                     	;# 
  1606  0F14                     	;# 
  1607  0F15                     	;# 
  1608  0F16                     	;# 
  1609  0F17                     	;# 
  1610  0F18                     	;# 
  1611  0F19                     	;# 
  1612  0F1A                     	;# 
  1613  0F1B                     	;# 
  1614  0F1C                     	;# 
  1615  0F1D                     	;# 
  1616  0F1E                     	;# 
  1617  0F1F                     	;# 
  1618  0F20                     	;# 
  1619  0F21                     	;# 
  1620  0F22                     	;# 
  1621  0F23                     	;# 
  1622  0F24                     	;# 
  1623  0F25                     	;# 
  1624  0F26                     	;# 
  1625  0F27                     	;# 
  1626  0F28                     	;# 
  1627  0F29                     	;# 
  1628  0F2A                     	;# 
  1629  0F2B                     	;# 
  1630  0F2C                     	;# 
  1631  0F2D                     	;# 
  1632  0F2E                     	;# 
  1633  0F2F                     	;# 
  1634  0F30                     	;# 
  1635  0F31                     	;# 
  1636  0F32                     	;# 
  1637  0F33                     	;# 
  1638  0F34                     	;# 
  1639  0F35                     	;# 
  1640  0F36                     	;# 
  1641  0F37                     	;# 
  1642  0FE4                     	;# 
  1643  0FE5                     	;# 
  1644  0FE6                     	;# 
  1645  0FE7                     	;# 
  1646  0FE8                     	;# 
  1647  0FE9                     	;# 
  1648  0FEA                     	;# 
  1649  0FEB                     	;# 
  1650  0FED                     	;# 
  1651  0FEE                     	;# 
  1652  0FEF                     	;# 
  1653  0000                     	;# 
  1654  0001                     	;# 
  1655  0002                     	;# 
  1656  0003                     	;# 
  1657  0004                     	;# 
  1658  0005                     	;# 
  1659  0006                     	;# 
  1660  0007                     	;# 
  1661  0008                     	;# 
  1662  0009                     	;# 
  1663  000A                     	;# 
  1664  000B                     	;# 
  1665  000C                     	;# 
  1666  000D                     	;# 
  1667  000E                     	;# 
  1668  000F                     	;# 
  1669  0010                     	;# 
  1670  0011                     	;# 
  1671  0012                     	;# 
  1672  0013                     	;# 
  1673  0015                     	;# 
  1674  0016                     	;# 
  1675  0016                     	;# 
  1676  0017                     	;# 
  1677  0018                     	;# 
  1678  0019                     	;# 
  1679  001A                     	;# 
  1680  001B                     	;# 
  1681  001C                     	;# 
  1682  008C                     	;# 
  1683  008D                     	;# 
  1684  008E                     	;# 
  1685  008F                     	;# 
  1686  0090                     	;# 
  1687  0091                     	;# 
  1688  0092                     	;# 
  1689  0093                     	;# 
  1690  0095                     	;# 
  1691  0096                     	;# 
  1692  0097                     	;# 
  1693  0098                     	;# 
  1694  0099                     	;# 
  1695  009A                     	;# 
  1696  009B                     	;# 
  1697  009B                     	;# 
  1698  009C                     	;# 
  1699  009D                     	;# 
  1700  009E                     	;# 
  1701  009F                     	;# 
  1702  010C                     	;# 
  1703  010D                     	;# 
  1704  010E                     	;# 
  1705  010F                     	;# 
  1706  0110                     	;# 
  1707  0111                     	;# 
  1708  0112                     	;# 
  1709  0113                     	;# 
  1710  0114                     	;# 
  1711  0115                     	;# 
  1712  0116                     	;# 
  1713  0117                     	;# 
  1714  0118                     	;# 
  1715  0119                     	;# 
  1716  011A                     	;# 
  1717  011B                     	;# 
  1718  011B                     	;# 
  1719  011C                     	;# 
  1720  018C                     	;# 
  1721  018D                     	;# 
  1722  018E                     	;# 
  1723  018F                     	;# 
  1724  0190                     	;# 
  1725  0191                     	;# 
  1726  0191                     	;# 
  1727  0192                     	;# 
  1728  0193                     	;# 
  1729  0193                     	;# 
  1730  0194                     	;# 
  1731  0195                     	;# 
  1732  0196                     	;# 
  1733  0199                     	;# 
  1734  0199                     	;# 
  1735  0199                     	;# 
  1736  019A                     	;# 
  1737  019A                     	;# 
  1738  019A                     	;# 
  1739  019B                     	;# 
  1740  019B                     	;# 
  1741  019B                     	;# 
  1742  019B                     	;# 
  1743  019B                     	;# 
  1744  019C                     	;# 
  1745  019C                     	;# 
  1746  019C                     	;# 
  1747  019D                     	;# 
  1748  019D                     	;# 
  1749  019D                     	;# 
  1750  019E                     	;# 
  1751  019E                     	;# 
  1752  019E                     	;# 
  1753  019F                     	;# 
  1754  019F                     	;# 
  1755  019F                     	;# 
  1756  019F                     	;# 
  1757  019F                     	;# 
  1758  020C                     	;# 
  1759  020D                     	;# 
  1760  020E                     	;# 
  1761  020F                     	;# 
  1762  0210                     	;# 
  1763  0211                     	;# 
  1764  0211                     	;# 
  1765  0212                     	;# 
  1766  0212                     	;# 
  1767  0213                     	;# 
  1768  0213                     	;# 
  1769  0214                     	;# 
  1770  0214                     	;# 
  1771  0215                     	;# 
  1772  0215                     	;# 
  1773  0215                     	;# 
  1774  0215                     	;# 
  1775  0216                     	;# 
  1776  0216                     	;# 
  1777  0217                     	;# 
  1778  0217                     	;# 
  1779  028C                     	;# 
  1780  028D                     	;# 
  1781  028E                     	;# 
  1782  028F                     	;# 
  1783  0290                     	;# 
  1784  0291                     	;# 
  1785  0291                     	;# 
  1786  0292                     	;# 
  1787  0293                     	;# 
  1788  0293                     	;# 
  1789  0298                     	;# 
  1790  0298                     	;# 
  1791  0299                     	;# 
  1792  029A                     	;# 
  1793  029A                     	;# 
  1794  029E                     	;# 
  1795  030C                     	;# 
  1796  030D                     	;# 
  1797  030E                     	;# 
  1798  030F                     	;# 
  1799  0310                     	;# 
  1800  038C                     	;# 
  1801  038D                     	;# 
  1802  038E                     	;# 
  1803  038F                     	;# 
  1804  0390                     	;# 
  1805  0391                     	;# 
  1806  0392                     	;# 
  1807  0393                     	;# 
  1808  0394                     	;# 
  1809  0395                     	;# 
  1810  0396                     	;# 
  1811  0397                     	;# 
  1812  0398                     	;# 
  1813  0399                     	;# 
  1814  039D                     	;# 
  1815  039E                     	;# 
  1816  039F                     	;# 
  1817  0415                     	;# 
  1818  0416                     	;# 
  1819  0417                     	;# 
  1820  041C                     	;# 
  1821  041D                     	;# 
  1822  041E                     	;# 
  1823  0498                     	;# 
  1824  0498                     	;# 
  1825  0499                     	;# 
  1826  049A                     	;# 
  1827  049B                     	;# 
  1828  049B                     	;# 
  1829  049C                     	;# 
  1830  049D                     	;# 
  1831  049E                     	;# 
  1832  049F                     	;# 
  1833  0511                     	;# 
  1834  0515                     	;# 
  1835  0617                     	;# 
  1836  0618                     	;# 
  1837  0619                     	;# 
  1838  0619                     	;# 
  1839  061A                     	;# 
  1840  061B                     	;# 
  1841  061C                     	;# 
  1842  061C                     	;# 
  1843  0691                     	;# 
  1844  0692                     	;# 
  1845  0693                     	;# 
  1846  0694                     	;# 
  1847  0695                     	;# 
  1848  0696                     	;# 
  1849  0697                     	;# 
  1850  0698                     	;# 
  1851  0699                     	;# 
  1852  069A                     	;# 
  1853  069B                     	;# 
  1854  069C                     	;# 
  1855  069D                     	;# 
  1856  069E                     	;# 
  1857  069F                     	;# 
  1858  0E0F                     	;# 
  1859  0E10                     	;# 
  1860  0E11                     	;# 
  1861  0E12                     	;# 
  1862  0E13                     	;# 
  1863  0E14                     	;# 
  1864  0E15                     	;# 
  1865  0E17                     	;# 
  1866  0E20                     	;# 
  1867  0E21                     	;# 
  1868  0E22                     	;# 
  1869  0E24                     	;# 
  1870  0E25                     	;# 
  1871  0E28                     	;# 
  1872  0E29                     	;# 
  1873  0E2A                     	;# 
  1874  0E2B                     	;# 
  1875  0E90                     	;# 
  1876  0E91                     	;# 
  1877  0E92                     	;# 
  1878  0E93                     	;# 
  1879  0E94                     	;# 
  1880  0E95                     	;# 
  1881  0E96                     	;# 
  1882  0E97                     	;# 
  1883  0E98                     	;# 
  1884  0E99                     	;# 
  1885  0E9A                     	;# 
  1886  0E9B                     	;# 
  1887  0E9C                     	;# 
  1888  0E9D                     	;# 
  1889  0E9E                     	;# 
  1890  0E9F                     	;# 
  1891  0EA0                     	;# 
  1892  0EA1                     	;# 
  1893  0EA2                     	;# 
  1894  0EA3                     	;# 
  1895  0EA4                     	;# 
  1896  0EA5                     	;# 
  1897  0EA6                     	;# 
  1898  0EA7                     	;# 
  1899  0EA8                     	;# 
  1900  0EA9                     	;# 
  1901  0EAA                     	;# 
  1902  0EAB                     	;# 
  1903  0EAC                     	;# 
  1904  0EAD                     	;# 
  1905  0EAE                     	;# 
  1906  0EAF                     	;# 
  1907  0EB0                     	;# 
  1908  0EB1                     	;# 
  1909  0EB2                     	;# 
  1910  0F0F                     	;# 
  1911  0F10                     	;# 
  1912  0F11                     	;# 
  1913  0F12                     	;# 
  1914  0F13                     	;# 
  1915  0F14                     	;# 
  1916  0F15                     	;# 
  1917  0F16                     	;# 
  1918  0F17                     	;# 
  1919  0F18                     	;# 
  1920  0F19                     	;# 
  1921  0F1A                     	;# 
  1922  0F1B                     	;# 
  1923  0F1C                     	;# 
  1924  0F1D                     	;# 
  1925  0F1E                     	;# 
  1926  0F1F                     	;# 
  1927  0F20                     	;# 
  1928  0F21                     	;# 
  1929  0F22                     	;# 
  1930  0F23                     	;# 
  1931  0F24                     	;# 
  1932  0F25                     	;# 
  1933  0F26                     	;# 
  1934  0F27                     	;# 
  1935  0F28                     	;# 
  1936  0F29                     	;# 
  1937  0F2A                     	;# 
  1938  0F2B                     	;# 
  1939  0F2C                     	;# 
  1940  0F2D                     	;# 
  1941  0F2E                     	;# 
  1942  0F2F                     	;# 
  1943  0F30                     	;# 
  1944  0F31                     	;# 
  1945  0F32                     	;# 
  1946  0F33                     	;# 
  1947  0F34                     	;# 
  1948  0F35                     	;# 
  1949  0F36                     	;# 
  1950  0F37                     	;# 
  1951  0FE4                     	;# 
  1952  0FE5                     	;# 
  1953  0FE6                     	;# 
  1954  0FE7                     	;# 
  1955  0FE8                     	;# 
  1956  0FE9                     	;# 
  1957  0FEA                     	;# 
  1958  0FEB                     	;# 
  1959  0FED                     	;# 
  1960  0FEE                     	;# 
  1961  0FEF                     	;# 
  1962  0000                     	;# 
  1963  0001                     	;# 
  1964  0002                     	;# 
  1965  0003                     	;# 
  1966  0004                     	;# 
  1967  0005                     	;# 
  1968  0006                     	;# 
  1969  0007                     	;# 
  1970  0008                     	;# 
  1971  0009                     	;# 
  1972  000A                     	;# 
  1973  000B                     	;# 
  1974  000C                     	;# 
  1975  000D                     	;# 
  1976  000E                     	;# 
  1977  000F                     	;# 
  1978  0010                     	;# 
  1979  0011                     	;# 
  1980  0012                     	;# 
  1981  0013                     	;# 
  1982  0015                     	;# 
  1983  0016                     	;# 
  1984  0016                     	;# 
  1985  0017                     	;# 
  1986  0018                     	;# 
  1987  0019                     	;# 
  1988  001A                     	;# 
  1989  001B                     	;# 
  1990  001C                     	;# 
  1991  008C                     	;# 
  1992  008D                     	;# 
  1993  008E                     	;# 
  1994  008F                     	;# 
  1995  0090                     	;# 
  1996  0091                     	;# 
  1997  0092                     	;# 
  1998  0093                     	;# 
  1999  0095                     	;# 
  2000  0096                     	;# 
  2001  0097                     	;# 
  2002  0098                     	;# 
  2003  0099                     	;# 
  2004  009A                     	;# 
  2005  009B                     	;# 
  2006  009B                     	;# 
  2007  009C                     	;# 
  2008  009D                     	;# 
  2009  009E                     	;# 
  2010  009F                     	;# 
  2011  010C                     	;# 
  2012  010D                     	;# 
  2013  010E                     	;# 
  2014  010F                     	;# 
  2015  0110                     	;# 
  2016  0111                     	;# 
  2017  0112                     	;# 
  2018  0113                     	;# 
  2019  0114                     	;# 
  2020  0115                     	;# 
  2021  0116                     	;# 
  2022  0117                     	;# 
  2023  0118                     	;# 
  2024  0119                     	;# 
  2025  011A                     	;# 
  2026  011B                     	;# 
  2027  011B                     	;# 
  2028  011C                     	;# 
  2029  018C                     	;# 
  2030  018D                     	;# 
  2031  018E                     	;# 
  2032  018F                     	;# 
  2033  0190                     	;# 
  2034  0191                     	;# 
  2035  0191                     	;# 
  2036  0192                     	;# 
  2037  0193                     	;# 
  2038  0193                     	;# 
  2039  0194                     	;# 
  2040  0195                     	;# 
  2041  0196                     	;# 
  2042  0199                     	;# 
  2043  0199                     	;# 
  2044  0199                     	;# 
  2045  019A                     	;# 
  2046  019A                     	;# 
  2047  019A                     	;# 
  2048  019B                     	;# 
  2049  019B                     	;# 
  2050  019B                     	;# 
  2051  019B                     	;# 
  2052  019B                     	;# 
  2053  019C                     	;# 
  2054  019C                     	;# 
  2055  019C                     	;# 
  2056  019D                     	;# 
  2057  019D                     	;# 
  2058  019D                     	;# 
  2059  019E                     	;# 
  2060  019E                     	;# 
  2061  019E                     	;# 
  2062  019F                     	;# 
  2063  019F                     	;# 
  2064  019F                     	;# 
  2065  019F                     	;# 
  2066  019F                     	;# 
  2067  020C                     	;# 
  2068  020D                     	;# 
  2069  020E                     	;# 
  2070  020F                     	;# 
  2071  0210                     	;# 
  2072  0211                     	;# 
  2073  0211                     	;# 
  2074  0212                     	;# 
  2075  0212                     	;# 
  2076  0213                     	;# 
  2077  0213                     	;# 
  2078  0214                     	;# 
  2079  0214                     	;# 
  2080  0215                     	;# 
  2081  0215                     	;# 
  2082  0215                     	;# 
  2083  0215                     	;# 
  2084  0216                     	;# 
  2085  0216                     	;# 
  2086  0217                     	;# 
  2087  0217                     	;# 
  2088  028C                     	;# 
  2089  028D                     	;# 
  2090  028E                     	;# 
  2091  028F                     	;# 
  2092  0290                     	;# 
  2093  0291                     	;# 
  2094  0291                     	;# 
  2095  0292                     	;# 
  2096  0293                     	;# 
  2097  0293                     	;# 
  2098  0298                     	;# 
  2099  0298                     	;# 
  2100  0299                     	;# 
  2101  029A                     	;# 
  2102  029A                     	;# 
  2103  029E                     	;# 
  2104  030C                     	;# 
  2105  030D                     	;# 
  2106  030E                     	;# 
  2107  030F                     	;# 
  2108  0310                     	;# 
  2109  038C                     	;# 
  2110  038D                     	;# 
  2111  038E                     	;# 
  2112  038F                     	;# 
  2113  0390                     	;# 
  2114  0391                     	;# 
  2115  0392                     	;# 
  2116  0393                     	;# 
  2117  0394                     	;# 
  2118  0395                     	;# 
  2119  0396                     	;# 
  2120  0397                     	;# 
  2121  0398                     	;# 
  2122  0399                     	;# 
  2123  039D                     	;# 
  2124  039E                     	;# 
  2125  039F                     	;# 
  2126  0415                     	;# 
  2127  0416                     	;# 
  2128  0417                     	;# 
  2129  041C                     	;# 
  2130  041D                     	;# 
  2131  041E                     	;# 
  2132  0498                     	;# 
  2133  0498                     	;# 
  2134  0499                     	;# 
  2135  049A                     	;# 
  2136  049B                     	;# 
  2137  049B                     	;# 
  2138  049C                     	;# 
  2139  049D                     	;# 
  2140  049E                     	;# 
  2141  049F                     	;# 
  2142  0511                     	;# 
  2143  0515                     	;# 
  2144  0617                     	;# 
  2145  0618                     	;# 
  2146  0619                     	;# 
  2147  0619                     	;# 
  2148  061A                     	;# 
  2149  061B                     	;# 
  2150  061C                     	;# 
  2151  061C                     	;# 
  2152  0691                     	;# 
  2153  0692                     	;# 
  2154  0693                     	;# 
  2155  0694                     	;# 
  2156  0695                     	;# 
  2157  0696                     	;# 
  2158  0697                     	;# 
  2159  0698                     	;# 
  2160  0699                     	;# 
  2161  069A                     	;# 
  2162  069B                     	;# 
  2163  069C                     	;# 
  2164  069D                     	;# 
  2165  069E                     	;# 
  2166  069F                     	;# 
  2167  0E0F                     	;# 
  2168  0E10                     	;# 
  2169  0E11                     	;# 
  2170  0E12                     	;# 
  2171  0E13                     	;# 
  2172  0E14                     	;# 
  2173  0E15                     	;# 
  2174  0E17                     	;# 
  2175  0E20                     	;# 
  2176  0E21                     	;# 
  2177  0E22                     	;# 
  2178  0E24                     	;# 
  2179  0E25                     	;# 
  2180  0E28                     	;# 
  2181  0E29                     	;# 
  2182  0E2A                     	;# 
  2183  0E2B                     	;# 
  2184  0E90                     	;# 
  2185  0E91                     	;# 
  2186  0E92                     	;# 
  2187  0E93                     	;# 
  2188  0E94                     	;# 
  2189  0E95                     	;# 
  2190  0E96                     	;# 
  2191  0E97                     	;# 
  2192  0E98                     	;# 
  2193  0E99                     	;# 
  2194  0E9A                     	;# 
  2195  0E9B                     	;# 
  2196  0E9C                     	;# 
  2197  0E9D                     	;# 
  2198  0E9E                     	;# 
  2199  0E9F                     	;# 
  2200  0EA0                     	;# 
  2201  0EA1                     	;# 
  2202  0EA2                     	;# 
  2203  0EA3                     	;# 
  2204  0EA4                     	;# 
  2205  0EA5                     	;# 
  2206  0EA6                     	;# 
  2207  0EA7                     	;# 
  2208  0EA8                     	;# 
  2209  0EA9                     	;# 
  2210  0EAA                     	;# 
  2211  0EAB                     	;# 
  2212  0EAC                     	;# 
  2213  0EAD                     	;# 
  2214  0EAE                     	;# 
  2215  0EAF                     	;# 
  2216  0EB0                     	;# 
  2217  0EB1                     	;# 
  2218  0EB2                     	;# 
  2219  0F0F                     	;# 
  2220  0F10                     	;# 
  2221  0F11                     	;# 
  2222  0F12                     	;# 
  2223  0F13                     	;# 
  2224  0F14                     	;# 
  2225  0F15                     	;# 
  2226  0F16                     	;# 
  2227  0F17                     	;# 
  2228  0F18                     	;# 
  2229  0F19                     	;# 
  2230  0F1A                     	;# 
  2231  0F1B                     	;# 
  2232  0F1C                     	;# 
  2233  0F1D                     	;# 
  2234  0F1E                     	;# 
  2235  0F1F                     	;# 
  2236  0F20                     	;# 
  2237  0F21                     	;# 
  2238  0F22                     	;# 
  2239  0F23                     	;# 
  2240  0F24                     	;# 
  2241  0F25                     	;# 
  2242  0F26                     	;# 
  2243  0F27                     	;# 
  2244  0F28                     	;# 
  2245  0F29                     	;# 
  2246  0F2A                     	;# 
  2247  0F2B                     	;# 
  2248  0F2C                     	;# 
  2249  0F2D                     	;# 
  2250  0F2E                     	;# 
  2251  0F2F                     	;# 
  2252  0F30                     	;# 
  2253  0F31                     	;# 
  2254  0F32                     	;# 
  2255  0F33                     	;# 
  2256  0F34                     	;# 
  2257  0F35                     	;# 
  2258  0F36                     	;# 
  2259  0F37                     	;# 
  2260  0FE4                     	;# 
  2261  0FE5                     	;# 
  2262  0FE6                     	;# 
  2263  0FE7                     	;# 
  2264  0FE8                     	;# 
  2265  0FE9                     	;# 
  2266  0FEA                     	;# 
  2267  0FEB                     	;# 
  2268  0FED                     	;# 
  2269  0FEE                     	;# 
  2270  0FEF                     	;# 
  2271  0000                     	;# 
  2272  0001                     	;# 
  2273  0002                     	;# 
  2274  0003                     	;# 
  2275  0004                     	;# 
  2276  0005                     	;# 
  2277  0006                     	;# 
  2278  0007                     	;# 
  2279  0008                     	;# 
  2280  0009                     	;# 
  2281  000A                     	;# 
  2282  000B                     	;# 
  2283  000C                     	;# 
  2284  000D                     	;# 
  2285  000E                     	;# 
  2286  000F                     	;# 
  2287  0010                     	;# 
  2288  0011                     	;# 
  2289  0012                     	;# 
  2290  0013                     	;# 
  2291  0015                     	;# 
  2292  0016                     	;# 
  2293  0016                     	;# 
  2294  0017                     	;# 
  2295  0018                     	;# 
  2296  0019                     	;# 
  2297  001A                     	;# 
  2298  001B                     	;# 
  2299  001C                     	;# 
  2300  008C                     	;# 
  2301  008D                     	;# 
  2302  008E                     	;# 
  2303  008F                     	;# 
  2304  0090                     	;# 
  2305  0091                     	;# 
  2306  0092                     	;# 
  2307  0093                     	;# 
  2308  0095                     	;# 
  2309  0096                     	;# 
  2310  0097                     	;# 
  2311  0098                     	;# 
  2312  0099                     	;# 
  2313  009A                     	;# 
  2314  009B                     	;# 
  2315  009B                     	;# 
  2316  009C                     	;# 
  2317  009D                     	;# 
  2318  009E                     	;# 
  2319  009F                     	;# 
  2320  010C                     	;# 
  2321  010D                     	;# 
  2322  010E                     	;# 
  2323  010F                     	;# 
  2324  0110                     	;# 
  2325  0111                     	;# 
  2326  0112                     	;# 
  2327  0113                     	;# 
  2328  0114                     	;# 
  2329  0115                     	;# 
  2330  0116                     	;# 
  2331  0117                     	;# 
  2332  0118                     	;# 
  2333  0119                     	;# 
  2334  011A                     	;# 
  2335  011B                     	;# 
  2336  011B                     	;# 
  2337  011C                     	;# 
  2338  018C                     	;# 
  2339  018D                     	;# 
  2340  018E                     	;# 
  2341  018F                     	;# 
  2342  0190                     	;# 
  2343  0191                     	;# 
  2344  0191                     	;# 
  2345  0192                     	;# 
  2346  0193                     	;# 
  2347  0193                     	;# 
  2348  0194                     	;# 
  2349  0195                     	;# 
  2350  0196                     	;# 
  2351  0199                     	;# 
  2352  0199                     	;# 
  2353  0199                     	;# 
  2354  019A                     	;# 
  2355  019A                     	;# 
  2356  019A                     	;# 
  2357  019B                     	;# 
  2358  019B                     	;# 
  2359  019B                     	;# 
  2360  019B                     	;# 
  2361  019B                     	;# 
  2362  019C                     	;# 
  2363  019C                     	;# 
  2364  019C                     	;# 
  2365  019D                     	;# 
  2366  019D                     	;# 
  2367  019D                     	;# 
  2368  019E                     	;# 
  2369  019E                     	;# 
  2370  019E                     	;# 
  2371  019F                     	;# 
  2372  019F                     	;# 
  2373  019F                     	;# 
  2374  019F                     	;# 
  2375  019F                     	;# 
  2376  020C                     	;# 
  2377  020D                     	;# 
  2378  020E                     	;# 
  2379  020F                     	;# 
  2380  0210                     	;# 
  2381  0211                     	;# 
  2382  0211                     	;# 
  2383  0212                     	;# 
  2384  0212                     	;# 
  2385  0213                     	;# 
  2386  0213                     	;# 
  2387  0214                     	;# 
  2388  0214                     	;# 
  2389  0215                     	;# 
  2390  0215                     	;# 
  2391  0215                     	;# 
  2392  0215                     	;# 
  2393  0216                     	;# 
  2394  0216                     	;# 
  2395  0217                     	;# 
  2396  0217                     	;# 
  2397  028C                     	;# 
  2398  028D                     	;# 
  2399  028E                     	;# 
  2400  028F                     	;# 
  2401  0290                     	;# 
  2402  0291                     	;# 
  2403  0291                     	;# 
  2404  0292                     	;# 
  2405  0293                     	;# 
  2406  0293                     	;# 
  2407  0298                     	;# 
  2408  0298                     	;# 
  2409  0299                     	;# 
  2410  029A                     	;# 
  2411  029A                     	;# 
  2412  029E                     	;# 
  2413  030C                     	;# 
  2414  030D                     	;# 
  2415  030E                     	;# 
  2416  030F                     	;# 
  2417  0310                     	;# 
  2418  038C                     	;# 
  2419  038D                     	;# 
  2420  038E                     	;# 
  2421  038F                     	;# 
  2422  0390                     	;# 
  2423  0391                     	;# 
  2424  0392                     	;# 
  2425  0393                     	;# 
  2426  0394                     	;# 
  2427  0395                     	;# 
  2428  0396                     	;# 
  2429  0397                     	;# 
  2430  0398                     	;# 
  2431  0399                     	;# 
  2432  039D                     	;# 
  2433  039E                     	;# 
  2434  039F                     	;# 
  2435  0415                     	;# 
  2436  0416                     	;# 
  2437  0417                     	;# 
  2438  041C                     	;# 
  2439  041D                     	;# 
  2440  041E                     	;# 
  2441  0498                     	;# 
  2442  0498                     	;# 
  2443  0499                     	;# 
  2444  049A                     	;# 
  2445  049B                     	;# 
  2446  049B                     	;# 
  2447  049C                     	;# 
  2448  049D                     	;# 
  2449  049E                     	;# 
  2450  049F                     	;# 
  2451  0511                     	;# 
  2452  0515                     	;# 
  2453  0617                     	;# 
  2454  0618                     	;# 
  2455  0619                     	;# 
  2456  0619                     	;# 
  2457  061A                     	;# 
  2458  061B                     	;# 
  2459  061C                     	;# 
  2460  061C                     	;# 
  2461  0691                     	;# 
  2462  0692                     	;# 
  2463  0693                     	;# 
  2464  0694                     	;# 
  2465  0695                     	;# 
  2466  0696                     	;# 
  2467  0697                     	;# 
  2468  0698                     	;# 
  2469  0699                     	;# 
  2470  069A                     	;# 
  2471  069B                     	;# 
  2472  069C                     	;# 
  2473  069D                     	;# 
  2474  069E                     	;# 
  2475  069F                     	;# 
  2476  0E0F                     	;# 
  2477  0E10                     	;# 
  2478  0E11                     	;# 
  2479  0E12                     	;# 
  2480  0E13                     	;# 
  2481  0E14                     	;# 
  2482  0E15                     	;# 
  2483  0E17                     	;# 
  2484  0E20                     	;# 
  2485  0E21                     	;# 
  2486  0E22                     	;# 
  2487  0E24                     	;# 
  2488  0E25                     	;# 
  2489  0E28                     	;# 
  2490  0E29                     	;# 
  2491  0E2A                     	;# 
  2492  0E2B                     	;# 
  2493  0E90                     	;# 
  2494  0E91                     	;# 
  2495  0E92                     	;# 
  2496  0E93                     	;# 
  2497  0E94                     	;# 
  2498  0E95                     	;# 
  2499  0E96                     	;# 
  2500  0E97                     	;# 
  2501  0E98                     	;# 
  2502  0E99                     	;# 
  2503  0E9A                     	;# 
  2504  0E9B                     	;# 
  2505  0E9C                     	;# 
  2506  0E9D                     	;# 
  2507  0E9E                     	;# 
  2508  0E9F                     	;# 
  2509  0EA0                     	;# 
  2510  0EA1                     	;# 
  2511  0EA2                     	;# 
  2512  0EA3                     	;# 
  2513  0EA4                     	;# 
  2514  0EA5                     	;# 
  2515  0EA6                     	;# 
  2516  0EA7                     	;# 
  2517  0EA8                     	;# 
  2518  0EA9                     	;# 
  2519  0EAA                     	;# 
  2520  0EAB                     	;# 
  2521  0EAC                     	;# 
  2522  0EAD                     	;# 
  2523  0EAE                     	;# 
  2524  0EAF                     	;# 
  2525  0EB0                     	;# 
  2526  0EB1                     	;# 
  2527  0EB2                     	;# 
  2528  0F0F                     	;# 
  2529  0F10                     	;# 
  2530  0F11                     	;# 
  2531  0F12                     	;# 
  2532  0F13                     	;# 
  2533  0F14                     	;# 
  2534  0F15                     	;# 
  2535  0F16                     	;# 
  2536  0F17                     	;# 
  2537  0F18                     	;# 
  2538  0F19                     	;# 
  2539  0F1A                     	;# 
  2540  0F1B                     	;# 
  2541  0F1C                     	;# 
  2542  0F1D                     	;# 
  2543  0F1E                     	;# 
  2544  0F1F                     	;# 
  2545  0F20                     	;# 
  2546  0F21                     	;# 
  2547  0F22                     	;# 
  2548  0F23                     	;# 
  2549  0F24                     	;# 
  2550  0F25                     	;# 
  2551  0F26                     	;# 
  2552  0F27                     	;# 
  2553  0F28                     	;# 
  2554  0F29                     	;# 
  2555  0F2A                     	;# 
  2556  0F2B                     	;# 
  2557  0F2C                     	;# 
  2558  0F2D                     	;# 
  2559  0F2E                     	;# 
  2560  0F2F                     	;# 
  2561  0F30                     	;# 
  2562  0F31                     	;# 
  2563  0F32                     	;# 
  2564  0F33                     	;# 
  2565  0F34                     	;# 
  2566  0F35                     	;# 
  2567  0F36                     	;# 
  2568  0F37                     	;# 
  2569  0FE4                     	;# 
  2570  0FE5                     	;# 
  2571  0FE6                     	;# 
  2572  0FE7                     	;# 
  2573  0FE8                     	;# 
  2574  0FE9                     	;# 
  2575  0FEA                     	;# 
  2576  0FEB                     	;# 
  2577  0FED                     	;# 
  2578  0FEE                     	;# 
  2579  0FEF                     	;# 
  2580                           
  2581 ;; Function _EUSART_DefaultFramingErrorHandler is unused but had its address taken
  2582  0000                     
  2583 ;; Function _EUSART_DefaultOverrunErrorHandler is unused but had its address taken
  2584  0000                     
  2585 ;; Function _EUSART_DefaultErrorHandler is unused but had its address taken
  2586  0000                     
  2587 ;; Function _open is unused but had its address taken
  2588  0000                     
  2589 ;; Function _read is unused but had its address taken
  2590  0000                     
  2591 ;; Function _close is unused but had its address taken
  2592  0000                     
  2593 ;; Function _open@temp_sensor$F427 is unused but had its address taken
  2594  0000                     
  2595 ;; Function _read@temp_sensor$F431 is unused but had its address taken
  2596  0000                     
  2597 ;; Function _close@temp_sensor$F433 is unused but had its address taken
  2598  0000                     
  2599                           	psect	nvBANK1
  2600  00E7                     __pnvBANK1:
  2601  00E7                     _EUSART_ErrorHandler:
  2602  00E7                     	ds	2
  2603  00E9                     _EUSART_OverrunErrorHandler:
  2604  00E9                     	ds	2
  2605  00EB                     _EUSART_FramingErrorHandler:
  2606  00EB                     	ds	2
  2607  0012                     _PIR2bits	set	18
  2608  0011                     _PIR1bits	set	17
  2609  0095                     _OPTION_REGbits	set	149
  2610  008F                     _TRISD	set	143
  2611  008E                     _TRISC	set	142
  2612  008D                     _TRISB	set	141
  2613  008C                     _TRISA	set	140
  2614  0090                     _TRISE	set	144
  2615  0097                     _WDTCON	set	151
  2616  0098                     _OSCTUNE	set	152
  2617  0099                     _OSCCON	set	153
  2618  010D                     _LATBbits	set	269
  2619  010E                     _LATC	set	270
  2620  010D                     _LATB	set	269
  2621  010C                     _LATA	set	268
  2622  010F                     _LATD	set	271
  2623  0110                     _LATE	set	272
  2624  0116                     _BORCON	set	278
  2625  019A                     _TX1REG	set	410
  2626  0199                     _RC1REG	set	409
  2627  019D                     _RC1STAbits	set	413
  2628  019E                     _TX1STAbits	set	414
  2629  019C                     _SP1BRGH	set	412
  2630  019B                     _SP1BRGL	set	411
  2631  019E                     _TX1STA	set	414
  2632  019D                     _RC1STA	set	413
  2633  019F                     _BAUD1CON	set	415
  2634  018C                     _ANSELA	set	396
  2635  0190                     _ANSELE	set	400
  2636  018D                     _ANSELB	set	397
  2637  018E                     _ANSELC	set	398
  2638  018F                     _ANSELD	set	399
  2639  020E                     _WPUC	set	526
  2640  020C                     _WPUA	set	524
  2641  020D                     _WPUB	set	525
  2642  0210                     _WPUE	set	528
  2643  020F                     _WPUD	set	527
  2644  029E                     _CCPTMRSbits	set	670
  2645  028F                     _ODCOND	set	655
  2646  028E                     _ODCONC	set	654
  2647  028D                     _ODCONB	set	653
  2648  028C                     _ODCONA	set	652
  2649  0290                     _ODCONE	set	656
  2650  0310                     _SLRCONE	set	784
  2651  030F                     _SLRCOND	set	783
  2652  030E                     _SLRCONC	set	782
  2653  030D                     _SLRCONB	set	781
  2654  030C                     _SLRCONA	set	780
  2655  0390                     _INLVLE	set	912
  2656  038F                     _INLVLD	set	911
  2657  038E                     _INLVLC	set	910
  2658  038D                     _INLVLB	set	909
  2659  038C                     _INLVLA	set	908
  2660  0417                     _T4CONbits	set	1047
  2661  0417                     _T4CON	set	1047
  2662  0415                     _TMR4	set	1045
  2663  0416                     _PR4	set	1046
  2664  0617                     _PWM3DCL	set	1559
  2665  0618                     _PWM3DCH	set	1560
  2666  0619                     _PWM3CON	set	1561
  2667  061A                     _PWM4DCL	set	1562
  2668  061B                     _PWM4DCH	set	1563
  2669  061C                     _PWM4CON	set	1564
  2670  0E24                     _RXPPS	set	3620
  2671  0EA6                     _RC6PPS	set	3750
  2672  0E98                     _RB0PPS	set	3736
  2673  0E99                     _RB1PPS	set	3737
  2674                           
  2675                           	psect	stringtext1
  2676  0800                     __pstringtext1:
  2677  0800                     STR_5:
  2678  0800  3454               	retlw	84	;'T'
  2679  0801  3465               	retlw	101	;'e'
  2680  0802  346D               	retlw	109	;'m'
  2681  0803  3470               	retlw	112	;'p'
  2682  0804  3420               	retlw	32	;' '
  2683  0805  3473               	retlw	115	;'s'
  2684  0806  3465               	retlw	101	;'e'
  2685  0807  346E               	retlw	110	;'n'
  2686  0808  3473               	retlw	115	;'s'
  2687  0809  346F               	retlw	111	;'o'
  2688  080A  3472               	retlw	114	;'r'
  2689  080B  3420               	retlw	32	;' '
  2690  080C  346F               	retlw	111	;'o'
  2691  080D  3470               	retlw	112	;'p'
  2692  080E  3465               	retlw	101	;'e'
  2693  080F  346E               	retlw	110	;'n'
  2694  0810  3469               	retlw	105	;'i'
  2695  0811  346E               	retlw	110	;'n'
  2696  0812  3467               	retlw	103	;'g'
  2697  0813  3420               	retlw	32	;' '
  2698  0814  3466               	retlw	102	;'f'
  2699  0815  3461               	retlw	97	;'a'
  2700  0816  3469               	retlw	105	;'i'
  2701  0817  346C               	retlw	108	;'l'
  2702  0818  3465               	retlw	101	;'e'
  2703  0819  3464               	retlw	100	;'d'
  2704  081A  3421               	retlw	33	;'!'
  2705  081B  340A               	retlw	10
  2706  081C  3400               	retlw	0
  2707                           
  2708                           	psect	stringtext2
  2709  081D                     __pstringtext2:
  2710  081D                     STR_14:
  2711  081D  3453               	retlw	83	;'S'
  2712  081E  3465               	retlw	101	;'e'
  2713  081F  3474               	retlw	116	;'t'
  2714  0820  3474               	retlw	116	;'t'
  2715  0821  3469               	retlw	105	;'i'
  2716  0822  346E               	retlw	110	;'n'
  2717  0823  3467               	retlw	103	;'g'
  2718  0824  3420               	retlw	32	;' '
  2719  0825  3462               	retlw	98	;'b'
  2720  0826  3472               	retlw	114	;'r'
  2721  0827  3469               	retlw	105	;'i'
  2722  0828  3467               	retlw	103	;'g'
  2723  0829  3468               	retlw	104	;'h'
  2724  082A  3474               	retlw	116	;'t'
  2725  082B  346E               	retlw	110	;'n'
  2726  082C  3465               	retlw	101	;'e'
  2727  082D  3473               	retlw	115	;'s'
  2728  082E  3473               	retlw	115	;'s'
  2729  082F  3420               	retlw	32	;' '
  2730  0830  346F               	retlw	111	;'o'
  2731  0831  3466               	retlw	102	;'f'
  2732  0832  3420               	retlw	32	;' '
  2733  0833  3425               	retlw	37	;'%'
  2734  0834  3464               	retlw	100	;'d'
  2735  0835  3421               	retlw	33	;'!'
  2736  0836  340A               	retlw	10
  2737  0837  3400               	retlw	0
  2738                           
  2739                           	psect	stringtext3
  2740  1000                     __pstringtext3:
  2741  1000                     STR_1:
  2742  1000  344C               	retlw	76	;'L'
  2743  1001  3469               	retlw	105	;'i'
  2744  1002  3467               	retlw	103	;'g'
  2745  1003  3468               	retlw	104	;'h'
  2746  1004  3474               	retlw	116	;'t'
  2747  1005  3420               	retlw	32	;' '
  2748  1006  3473               	retlw	115	;'s'
  2749  1007  3465               	retlw	101	;'e'
  2750  1008  346E               	retlw	110	;'n'
  2751  1009  3473               	retlw	115	;'s'
  2752  100A  346F               	retlw	111	;'o'
  2753  100B  3472               	retlw	114	;'r'
  2754  100C  3420               	retlw	32	;' '
  2755  100D  346F               	retlw	111	;'o'
  2756  100E  3470               	retlw	112	;'p'
  2757  100F  3465               	retlw	101	;'e'
  2758  1010  346E               	retlw	110	;'n'
  2759  1011  3465               	retlw	101	;'e'
  2760  1012  3464               	retlw	100	;'d'
  2761  1013  3421               	retlw	33	;'!'
  2762  1014  340A               	retlw	10
  2763  1015  3400               	retlw	0
  2764                           
  2765                           	psect	stringtext4
  2766  1016                     __pstringtext4:
  2767  1016                     STR_3:
  2768  1016  344C               	retlw	76	;'L'
  2769  1017  3469               	retlw	105	;'i'
  2770  1018  3467               	retlw	103	;'g'
  2771  1019  3468               	retlw	104	;'h'
  2772  101A  3474               	retlw	116	;'t'
  2773  101B  3420               	retlw	32	;' '
  2774  101C  3473               	retlw	115	;'s'
  2775  101D  3465               	retlw	101	;'e'
  2776  101E  346E               	retlw	110	;'n'
  2777  101F  3473               	retlw	115	;'s'
  2778  1020  346F               	retlw	111	;'o'
  2779  1021  3472               	retlw	114	;'r'
  2780  1022  3420               	retlw	32	;' '
  2781  1023  3463               	retlw	99	;'c'
  2782  1024  346C               	retlw	108	;'l'
  2783  1025  346F               	retlw	111	;'o'
  2784  1026  3473               	retlw	115	;'s'
  2785  1027  3465               	retlw	101	;'e'
  2786  1028  3464               	retlw	100	;'d'
  2787  1029  3421               	retlw	33	;'!'
  2788  102A  340A               	retlw	10
  2789  102B  3400               	retlw	0
  2790                           
  2791                           	psect	stringtext5
  2792  102C                     __pstringtext5:
  2793  102C                     STR_2:
  2794  102C  3452               	retlw	82	;'R'
  2795  102D  3465               	retlw	101	;'e'
  2796  102E  3461               	retlw	97	;'a'
  2797  102F  3464               	retlw	100	;'d'
  2798  1030  3469               	retlw	105	;'i'
  2799  1031  346E               	retlw	110	;'n'
  2800  1032  3467               	retlw	103	;'g'
  2801  1033  3420               	retlw	32	;' '
  2802  1034  346C               	retlw	108	;'l'
  2803  1035  3469               	retlw	105	;'i'
  2804  1036  3467               	retlw	103	;'g'
  2805  1037  3468               	retlw	104	;'h'
  2806  1038  3474               	retlw	116	;'t'
  2807  1039  3420               	retlw	32	;' '
  2808  103A  3473               	retlw	115	;'s'
  2809  103B  3465               	retlw	101	;'e'
  2810  103C  346E               	retlw	110	;'n'
  2811  103D  3473               	retlw	115	;'s'
  2812  103E  346F               	retlw	111	;'o'
  2813  103F  3472               	retlw	114	;'r'
  2814  1040  340A               	retlw	10
  2815  1041  3400               	retlw	0
  2816                           
  2817                           	psect	stringtext6
  2818  1042                     __pstringtext6:
  2819  1042                     STR_4:
  2820  1042  3454               	retlw	84	;'T'
  2821  1043  3465               	retlw	101	;'e'
  2822  1044  346D               	retlw	109	;'m'
  2823  1045  3470               	retlw	112	;'p'
  2824  1046  3420               	retlw	32	;' '
  2825  1047  3473               	retlw	115	;'s'
  2826  1048  3465               	retlw	101	;'e'
  2827  1049  346E               	retlw	110	;'n'
  2828  104A  3473               	retlw	115	;'s'
  2829  104B  346F               	retlw	111	;'o'
  2830  104C  3472               	retlw	114	;'r'
  2831  104D  3420               	retlw	32	;' '
  2832  104E  346F               	retlw	111	;'o'
  2833  104F  3470               	retlw	112	;'p'
  2834  1050  3465               	retlw	101	;'e'
  2835  1051  346E               	retlw	110	;'n'
  2836  1052  3465               	retlw	101	;'e'
  2837  1053  3464               	retlw	100	;'d'
  2838  1054  3421               	retlw	33	;'!'
  2839  1055  340A               	retlw	10
  2840  1056  3400               	retlw	0
  2841                           
  2842                           	psect	stringtext7
  2843  1057                     __pstringtext7:
  2844  1057                     STR_7:
  2845  1057  3454               	retlw	84	;'T'
  2846  1058  3465               	retlw	101	;'e'
  2847  1059  346D               	retlw	109	;'m'
  2848  105A  3470               	retlw	112	;'p'
  2849  105B  3420               	retlw	32	;' '
  2850  105C  3473               	retlw	115	;'s'
  2851  105D  3465               	retlw	101	;'e'
  2852  105E  346E               	retlw	110	;'n'
  2853  105F  3473               	retlw	115	;'s'
  2854  1060  346F               	retlw	111	;'o'
  2855  1061  3472               	retlw	114	;'r'
  2856  1062  3420               	retlw	32	;' '
  2857  1063  3463               	retlw	99	;'c'
  2858  1064  346C               	retlw	108	;'l'
  2859  1065  346F               	retlw	111	;'o'
  2860  1066  3473               	retlw	115	;'s'
  2861  1067  3465               	retlw	101	;'e'
  2862  1068  3464               	retlw	100	;'d'
  2863  1069  3421               	retlw	33	;'!'
  2864  106A  340A               	retlw	10
  2865  106B  3400               	retlw	0
  2866                           
  2867                           	psect	stringtext8
  2868  106C                     __pstringtext8:
  2869  106C                     STR_6:
  2870  106C  3452               	retlw	82	;'R'
  2871  106D  3465               	retlw	101	;'e'
  2872  106E  3461               	retlw	97	;'a'
  2873  106F  3464               	retlw	100	;'d'
  2874  1070  3469               	retlw	105	;'i'
  2875  1071  346E               	retlw	110	;'n'
  2876  1072  3467               	retlw	103	;'g'
  2877  1073  3420               	retlw	32	;' '
  2878  1074  3474               	retlw	116	;'t'
  2879  1075  3465               	retlw	101	;'e'
  2880  1076  346D               	retlw	109	;'m'
  2881  1077  3470               	retlw	112	;'p'
  2882  1078  3420               	retlw	32	;' '
  2883  1079  3473               	retlw	115	;'s'
  2884  107A  3465               	retlw	101	;'e'
  2885  107B  346E               	retlw	110	;'n'
  2886  107C  3473               	retlw	115	;'s'
  2887  107D  346F               	retlw	111	;'o'
  2888  107E  3472               	retlw	114	;'r'
  2889  107F  340A               	retlw	10
  2890  1080  3400               	retlw	0
  2891                           
  2892                           	psect	stringtext9
  2893  1081                     __pstringtext9:
  2894  1081                     STR_15:
  2895  1081  3444               	retlw	68	;'D'
  2896  1082  3475               	retlw	117	;'u'
  2897  1083  3474               	retlw	116	;'t'
  2898  1084  3479               	retlw	121	;'y'
  2899  1085  3420               	retlw	32	;' '
  2900  1086  3463               	retlw	99	;'c'
  2901  1087  3479               	retlw	121	;'y'
  2902  1088  3463               	retlw	99	;'c'
  2903  1089  346C               	retlw	108	;'l'
  2904  108A  3465               	retlw	101	;'e'
  2905  108B  3420               	retlw	32	;' '
  2906  108C  3469               	retlw	105	;'i'
  2907  108D  3473               	retlw	115	;'s'
  2908  108E  343A               	retlw	58	;':'
  2909  108F  3420               	retlw	32	;' '
  2910  1090  3425               	retlw	37	;'%'
  2911  1091  3464               	retlw	100	;'d'
  2912  1092  340A               	retlw	10
  2913  1093  3400               	retlw	0
  2914                           
  2915                           	psect	stringtext10
  2916  1094                     __pstringtext10:
  2917  1094                     STR_12:
  2918  1094  3443               	retlw	67	;'C'
  2919  1095  346F               	retlw	111	;'o'
  2920  1096  346C               	retlw	108	;'l'
  2921  1097  346F               	retlw	111	;'o'
  2922  1098  3472               	retlw	114	;'r'
  2923  1099  3420               	retlw	32	;' '
  2924  109A  3469               	retlw	105	;'i'
  2925  109B  3473               	retlw	115	;'s'
  2926  109C  3420               	retlw	32	;' '
  2927  109D  3467               	retlw	103	;'g'
  2928  109E  3472               	retlw	114	;'r'
  2929  109F  3465               	retlw	101	;'e'
  2930  10A0  3465               	retlw	101	;'e'
  2931  10A1  346E               	retlw	110	;'n'
  2932  10A2  3421               	retlw	33	;'!'
  2933  10A3  340A               	retlw	10
  2934  10A4  3400               	retlw	0
  2935                           
  2936                           	psect	stringtext11
  2937  10A5                     __pstringtext11:
  2938  10A5                     STR_11:
  2939  10A5  3443               	retlw	67	;'C'
  2940  10A6  346F               	retlw	111	;'o'
  2941  10A7  346C               	retlw	108	;'l'
  2942  10A8  346F               	retlw	111	;'o'
  2943  10A9  3472               	retlw	114	;'r'
  2944  10AA  3420               	retlw	32	;' '
  2945  10AB  3469               	retlw	105	;'i'
  2946  10AC  3473               	retlw	115	;'s'
  2947  10AD  3420               	retlw	32	;' '
  2948  10AE  3462               	retlw	98	;'b'
  2949  10AF  346C               	retlw	108	;'l'
  2950  10B0  3475               	retlw	117	;'u'
  2951  10B1  3465               	retlw	101	;'e'
  2952  10B2  3421               	retlw	33	;'!'
  2953  10B3  340A               	retlw	10
  2954  10B4  3400               	retlw	0
  2955                           
  2956                           	psect	stringtext12
  2957  10B5                     __pstringtext12:
  2958  10B5                     STR_13:
  2959  10B5  3443               	retlw	67	;'C'
  2960  10B6  346F               	retlw	111	;'o'
  2961  10B7  346C               	retlw	108	;'l'
  2962  10B8  346F               	retlw	111	;'o'
  2963  10B9  3472               	retlw	114	;'r'
  2964  10BA  3420               	retlw	32	;' '
  2965  10BB  3469               	retlw	105	;'i'
  2966  10BC  3473               	retlw	115	;'s'
  2967  10BD  3420               	retlw	32	;' '
  2968  10BE  3472               	retlw	114	;'r'
  2969  10BF  3465               	retlw	101	;'e'
  2970  10C0  3464               	retlw	100	;'d'
  2971  10C1  3421               	retlw	33	;'!'
  2972  10C2  340A               	retlw	10
  2973  10C3  3400               	retlw	0
  2974                           
  2975                           	psect	stringtext13
  2976  10C4                     __pstringtext13:
  2977  10C4                     STR_8:
  2978  10C4  3444               	retlw	68	;'D'
  2979  10C5  3465               	retlw	101	;'e'
  2980  10C6  346D               	retlw	109	;'m'
  2981  10C7  346F               	retlw	111	;'o'
  2982  10C8  3420               	retlw	32	;' '
  2983  10C9  3431               	retlw	49	;'1'
  2984  10CA  3421               	retlw	33	;'!'
  2985  10CB  340A               	retlw	10
  2986  10CC  3400               	retlw	0
  2987                           
  2988                           	psect	stringtext14
  2989  10CD                     __pstringtext14:
  2990  10CD                     STR_9:
  2991  10CD  3444               	retlw	68	;'D'
  2992  10CE  3465               	retlw	101	;'e'
  2993  10CF  346D               	retlw	109	;'m'
  2994  10D0  346F               	retlw	111	;'o'
  2995  10D1  3420               	retlw	32	;' '
  2996  10D2  3432               	retlw	50	;'2'
  2997  10D3  3421               	retlw	33	;'!'
  2998  10D4  340A               	retlw	10
  2999  10D5  3400               	retlw	0
  3000                           
  3001                           	psect	stringtext15
  3002  10D6                     __pstringtext15:
  3003  10D6                     STR_10:
  3004  10D6  3444               	retlw	68	;'D'
  3005  10D7  3465               	retlw	101	;'e'
  3006  10D8  346D               	retlw	109	;'m'
  3007  10D9  346F               	retlw	111	;'o'
  3008  10DA  3420               	retlw	32	;' '
  3009  10DB  3433               	retlw	51	;'3'
  3010  10DC  3421               	retlw	33	;'!'
  3011  10DD  340A               	retlw	10
  3012  10DE  3400               	retlw	0
  3013                           
  3014                           	psect	stringtext16
  3015  0000                     __pstringtext16:
  3016                           
  3017                           	psect	cinit
  3018  07F5                     start_initialization:	
  3019                           ; #config settings
  3020                           
  3021  07F5                     __initialization:
  3022                           
  3023                           ; Clear objects allocated to BANK1
  3024  07F5  30A0               	movlw	low __pbssBANK1
  3025  07F6  0084               	movwf	4
  3026  07F7  3000               	movlw	high __pbssBANK1
  3027  07F8  0085               	movwf	5
  3028  07F9  3029               	movlw	41
  3029  07FA  318E  26B5  3187   	fcall	clear_ram0
  3030  07FD                     end_of_initialization:	
  3031                           ;End of C runtime variable initialization code
  3032                           
  3033  07FD                     __end_of__initialization:
  3034  07FD  0020               	movlb	0
  3035  07FE  3183  2B41         	ljmp	_main	;jump to C main() function
  3036                           
  3037                           	psect	bssBANK1
  3038  00A0                     __pbssBANK1:
  3039  00A0                     _nout:
  3040  00A0                     	ds	2
  3041  00A2                     _width:
  3042  00A2                     	ds	2
  3043  00A4                     _prec:
  3044  00A4                     	ds	2
  3045  00A6                     _flags:
  3046  00A6                     	ds	2
  3047  00A8                     _eusartRxLastError:
  3048  00A8                     	ds	1
  3049  00A9                     _dbuf:
  3050  00A9                     	ds	32
  3051                           
  3052                           	psect	clrtext
  3053  0EB5                     clear_ram0:	
  3054                           ;	Called with FSR0 containing the base address, and
  3055                           ;	WREG with the size to clear
  3056                           
  3057  0EB5  0064               	clrwdt	;clear the watchdog before getting into this loop
  3058  0EB6                     clrloop0:
  3059  0EB6  0180               	clrf	0	;clear RAM location pointed to by FSR
  3060  0EB7  3101               	addfsr 0,1
  3061  0EB8  0B89               	decfsz	9,f	;Have we reached the end of clearing yet?
  3062  0EB9  2EB6               	goto	clrloop0	;have we reached the end yet?
  3063  0EBA  3400               	retlw	0	;all done for this memory range, return
  3064                           
  3065                           	psect	cstackBANK1
  3066  00C9                     __pcstackBANK1:
  3067  00C9                     ??_set_color:
  3068  00C9                     set_brightness@duty_cycle:	
  3069                           ; 1 bytes @ 0x0
  3070                           
  3071                           
  3072                           ; 2 bytes @ 0x0
  3073  00C9                     	ds	1
  3074  00CA                     set_color@color:
  3075                           
  3076                           ; 2 bytes @ 0x1
  3077  00CA                     	ds	2
  3078  00CC                     ??_main:
  3079                           
  3080                           ; 1 bytes @ 0x3
  3081  00CC                     	ds	1
  3082  00CD                     main@light_sensor:
  3083                           
  3084                           ; 6 bytes @ 0x4
  3085  00CD                     	ds	6
  3086  00D3                     main@temp_sensor:
  3087                           
  3088                           ; 6 bytes @ 0xA
  3089  00D3                     	ds	6
  3090  00D9                     main@brightness:
  3091                           
  3092                           ; 2 bytes @ 0x10
  3093  00D9                     	ds	2
  3094  00DB                     main@temperature:
  3095                           
  3096                           ; 2 bytes @ 0x12
  3097  00DB                     	ds	2
  3098  00DD                     main@led:
  3099                           
  3100                           ; 4 bytes @ 0x14
  3101  00DD                     	ds	4
  3102  00E1                     main@lcd_screen:
  3103                           
  3104                           ; 6 bytes @ 0x18
  3105  00E1                     	ds	6
  3106                           
  3107                           	psect	cstackCOMMON
  3108  0070                     __pcstackCOMMON:
  3109  0070                     ?_PIN_MANAGER_Initialize:
  3110  0070                     ??_PIN_MANAGER_Initialize:	
  3111                           ; 1 bytes @ 0x0
  3112                           
  3113  0070                     ?_OSCILLATOR_Initialize:	
  3114                           ; 1 bytes @ 0x0
  3115                           
  3116  0070                     ??_OSCILLATOR_Initialize:	
  3117                           ; 1 bytes @ 0x0
  3118                           
  3119  0070                     ?_WDT_Initialize:	
  3120                           ; 1 bytes @ 0x0
  3121                           
  3122  0070                     ??_WDT_Initialize:	
  3123                           ; 1 bytes @ 0x0
  3124                           
  3125  0070                     ?_TMR4_Initialize:	
  3126                           ; 1 bytes @ 0x0
  3127                           
  3128  0070                     ??_TMR4_Initialize:	
  3129                           ; 1 bytes @ 0x0
  3130                           
  3131  0070                     ?_PWM4_Initialize:	
  3132                           ; 1 bytes @ 0x0
  3133                           
  3134  0070                     ??_PWM4_Initialize:	
  3135                           ; 1 bytes @ 0x0
  3136                           
  3137  0070                     ?_PWM3_Initialize:	
  3138                           ; 1 bytes @ 0x0
  3139                           
  3140  0070                     ??_PWM3_Initialize:	
  3141                           ; 1 bytes @ 0x0
  3142                           
  3143  0070                     ?_EUSART_Initialize:	
  3144                           ; 1 bytes @ 0x0
  3145                           
  3146  0070                     ?_EUSART_SetFramingErrorHandler:	
  3147                           ; 1 bytes @ 0x0
  3148                           
  3149  0070                     ?_EUSART_SetOverrunErrorHandler:	
  3150                           ; 1 bytes @ 0x0
  3151                           
  3152  0070                     ?_EUSART_SetErrorHandler:	
  3153                           ; 1 bytes @ 0x0
  3154                           
  3155  0070                     ?_initialize_light:	
  3156                           ; 1 bytes @ 0x0
  3157                           
  3158  0070                     ??_initialize_light:	
  3159                           ; 1 bytes @ 0x0
  3160                           
  3161  0070                     ?_initialize_temp:	
  3162                           ; 1 bytes @ 0x0
  3163                           
  3164  0070                     ??_initialize_temp:	
  3165                           ; 1 bytes @ 0x0
  3166                           
  3167  0070                     ?_initialize_lcd_screen:	
  3168                           ; 1 bytes @ 0x0
  3169                           
  3170  0070                     ??_initialize_lcd_screen:	
  3171                           ; 1 bytes @ 0x0
  3172                           
  3173  0070                     ?_initialize_led:	
  3174                           ; 1 bytes @ 0x0
  3175                           
  3176  0070                     ??_initialize_led:	
  3177                           ; 1 bytes @ 0x0
  3178                           
  3179  0070                     ?_PWM3_LoadDutyValue:	
  3180                           ; 1 bytes @ 0x0
  3181                           
  3182  0070                     ?_PWM4_LoadDutyValue:	
  3183                           ; 1 bytes @ 0x0
  3184                           
  3185  0070                     ?_SYSTEM_Initialize:	
  3186                           ; 1 bytes @ 0x0
  3187                           
  3188  0070                     ?_EUSART_Write:	
  3189                           ; 1 bytes @ 0x0
  3190                           
  3191  0070                     ??_EUSART_Write:	
  3192                           ; 1 bytes @ 0x0
  3193                           
  3194  0070                     ?_putch:	
  3195                           ; 1 bytes @ 0x0
  3196                           
  3197  0070                     ?_main:	
  3198                           ; 1 bytes @ 0x0
  3199                           
  3200  0070                     ?_demo1:	
  3201                           ; 1 bytes @ 0x0
  3202                           
  3203  0070                     ?_demo2:	
  3204                           ; 1 bytes @ 0x0
  3205                           
  3206  0070                     ?_demo3:	
  3207                           ; 1 bytes @ 0x0
  3208                           
  3209  0070                     ?_turn_selectors:	
  3210                           ; 1 bytes @ 0x0
  3211                           
  3212  0070                     ?_turn_blue:	
  3213                           ; 1 bytes @ 0x0
  3214                           
  3215  0070                     ?_turn_green:	
  3216                           ; 1 bytes @ 0x0
  3217                           
  3218  0070                     ?_turn_red:	
  3219                           ; 1 bytes @ 0x0
  3220                           
  3221  0070                     ??___aodiv:	
  3222                           ; 1 bytes @ 0x0
  3223                           
  3224  0070                     ??___aomod:	
  3225                           ; 1 bytes @ 0x0
  3226                           
  3227  0070                     ?_strlen:	
  3228                           ; 1 bytes @ 0x0
  3229                           
  3230  0070                     ?___wmul:	
  3231                           ; 2 bytes @ 0x0
  3232                           
  3233  0070                     ?___awmod:	
  3234                           ; 2 bytes @ 0x0
  3235                           
  3236  0070                     EUSART_Write@txData:	
  3237                           ; 2 bytes @ 0x0
  3238                           
  3239  0070                     initialize_light@sensor_var:	
  3240                           ; 1 bytes @ 0x0
  3241                           
  3242  0070                     initialize_temp@sensor_var:	
  3243                           ; 1 bytes @ 0x0
  3244                           
  3245  0070                     initialize_lcd_screen@lcd_screen_var:	
  3246                           ; 1 bytes @ 0x0
  3247                           
  3248  0070                     turn_selectors@selector2:	
  3249                           ; 1 bytes @ 0x0
  3250                           
  3251  0070                     initialize_led@led:	
  3252                           ; 1 bytes @ 0x0
  3253                           
  3254  0070                     EUSART_SetFramingErrorHandler@interruptHandler:	
  3255                           ; 1 bytes @ 0x0
  3256                           
  3257  0070                     EUSART_SetOverrunErrorHandler@interruptHandler:	
  3258                           ; 2 bytes @ 0x0
  3259                           
  3260  0070                     EUSART_SetErrorHandler@interruptHandler:	
  3261                           ; 2 bytes @ 0x0
  3262                           
  3263  0070                     PWM4_LoadDutyValue@dutyValue:	
  3264                           ; 2 bytes @ 0x0
  3265                           
  3266  0070                     PWM3_LoadDutyValue@dutyValue:	
  3267                           ; 2 bytes @ 0x0
  3268                           
  3269  0070                     ___wmul@multiplier:	
  3270                           ; 2 bytes @ 0x0
  3271                           
  3272  0070                     ___awmod@divisor:	
  3273                           ; 2 bytes @ 0x0
  3274                           
  3275                           
  3276                           ; 2 bytes @ 0x0
  3277  0070                     	ds	1
  3278  0071                     ??_putch:
  3279  0071                     ??_turn_selectors:	
  3280                           ; 1 bytes @ 0x1
  3281                           
  3282  0071                     putch@txData:	
  3283                           ; 1 bytes @ 0x1
  3284                           
  3285  0071                     turn_selectors@selector1:	
  3286                           ; 1 bytes @ 0x1
  3287                           
  3288  0071                     ___aodiv@counter:	
  3289                           ; 1 bytes @ 0x1
  3290                           
  3291  0071                     ___aomod@counter:	
  3292                           ; 1 bytes @ 0x1
  3293                           
  3294                           
  3295                           ; 1 bytes @ 0x1
  3296  0071                     	ds	1
  3297  0072                     ??_EUSART_Initialize:
  3298  0072                     ??_EUSART_SetFramingErrorHandler:	
  3299                           ; 1 bytes @ 0x2
  3300                           
  3301  0072                     ??_EUSART_SetOverrunErrorHandler:	
  3302                           ; 1 bytes @ 0x2
  3303                           
  3304  0072                     ??_EUSART_SetErrorHandler:	
  3305                           ; 1 bytes @ 0x2
  3306                           
  3307  0072                     ??_PWM3_LoadDutyValue:	
  3308                           ; 1 bytes @ 0x2
  3309                           
  3310  0072                     ??_PWM4_LoadDutyValue:	
  3311                           ; 1 bytes @ 0x2
  3312                           
  3313  0072                     ??_strlen:	
  3314                           ; 1 bytes @ 0x2
  3315                           
  3316  0072                     ??_SYSTEM_Initialize:	
  3317                           ; 1 bytes @ 0x2
  3318                           
  3319  0072                     ?_fputc:	
  3320                           ; 1 bytes @ 0x2
  3321                           
  3322  0072                     ___aodiv@sign:	
  3323                           ; 2 bytes @ 0x2
  3324                           
  3325  0072                     ___aomod@sign:	
  3326                           ; 1 bytes @ 0x2
  3327                           
  3328  0072                     ___wmul@multiplicand:	
  3329                           ; 1 bytes @ 0x2
  3330                           
  3331  0072                     ___awmod@dividend:	
  3332                           ; 2 bytes @ 0x2
  3333                           
  3334  0072                     fputc@c:	
  3335                           ; 2 bytes @ 0x2
  3336                           
  3337                           
  3338                           ; 2 bytes @ 0x2
  3339  0072                     	ds	1
  3340  0073                     ?_abs:
  3341  0073                     strlen@a:	
  3342                           ; 2 bytes @ 0x3
  3343                           
  3344  0073                     abs@a:	
  3345                           ; 1 bytes @ 0x3
  3346                           
  3347  0073                     ___aodiv@quotient:	
  3348                           ; 2 bytes @ 0x3
  3349                           
  3350                           
  3351                           ; 8 bytes @ 0x3
  3352  0073                     	ds	1
  3353  0074                     ??___wmul:
  3354  0074                     ??___awmod:	
  3355                           ; 1 bytes @ 0x4
  3356                           
  3357  0074                     fputc@fp:	
  3358                           ; 1 bytes @ 0x4
  3359                           
  3360  0074                     strlen@s:	
  3361                           ; 1 bytes @ 0x4
  3362                           
  3363  0074                     ___wmul@product:	
  3364                           ; 1 bytes @ 0x4
  3365                           
  3366                           
  3367                           ; 2 bytes @ 0x4
  3368  0074                     	ds	1
  3369  0075                     ??_fputc:
  3370  0075                     ??_abs:	
  3371                           ; 1 bytes @ 0x5
  3372                           
  3373  0075                     ___awmod@counter:	
  3374                           ; 1 bytes @ 0x5
  3375                           
  3376                           
  3377                           ; 1 bytes @ 0x5
  3378  0075                     	ds	1
  3379  0076                     ?___awdiv:
  3380  0076                     ___awmod@sign:	
  3381                           ; 2 bytes @ 0x6
  3382                           
  3383  0076                     ___awdiv@divisor:	
  3384                           ; 1 bytes @ 0x6
  3385                           
  3386                           
  3387                           ; 2 bytes @ 0x6
  3388  0076                     	ds	2
  3389  0078                     ___awdiv@dividend:
  3390                           
  3391                           ; 2 bytes @ 0x8
  3392  0078                     	ds	2
  3393  007A                     ??___awdiv:
  3394  007A                     ?_fputs:	
  3395                           ; 1 bytes @ 0xA
  3396                           
  3397  007A                     fputs@fp:	
  3398                           ; 2 bytes @ 0xA
  3399                           
  3400                           
  3401                           ; 1 bytes @ 0xA
  3402  007A                     	ds	1
  3403  007B                     ??_fputs:
  3404  007B                     ??_map:	
  3405                           ; 1 bytes @ 0xB
  3406                           
  3407                           
  3408                           ; 1 bytes @ 0xB
  3409  007B                     	ds	3
  3410  007E                     ??_demo1:
  3411  007E                     ??_demo2:	
  3412                           ; 1 bytes @ 0xE
  3413                           
  3414  007E                     ??_demo3:	
  3415                           ; 1 bytes @ 0xE
  3416                           
  3417  007E                     ??_turn_blue:	
  3418                           ; 1 bytes @ 0xE
  3419                           
  3420  007E                     ??_turn_green:	
  3421                           ; 1 bytes @ 0xE
  3422                           
  3423  007E                     ??_turn_red:	
  3424                           ; 1 bytes @ 0xE
  3425                           
  3426  007E                     ??_set_brightness:	
  3427                           ; 1 bytes @ 0xE
  3428                           
  3429                           
  3430                           	psect	cstackBANK0
  3431  0020                     __pcstackBANK0:	
  3432                           ; 1 bytes @ 0xE
  3433                           
  3434  0020                     ?___aodiv:
  3435  0020                     ?___aomod:	
  3436                           ; 8 bytes @ 0x0
  3437                           
  3438  0020                     ___awdiv@counter:	
  3439                           ; 8 bytes @ 0x0
  3440                           
  3441  0020                     fputs@c:	
  3442                           ; 1 bytes @ 0x0
  3443                           
  3444  0020                     ___aodiv@divisor:	
  3445                           ; 1 bytes @ 0x0
  3446                           
  3447  0020                     ___aomod@divisor:	
  3448                           ; 8 bytes @ 0x0
  3449                           
  3450                           
  3451                           ; 8 bytes @ 0x0
  3452  0020                     	ds	1
  3453  0021                     ___awdiv@sign:
  3454  0021                     fputs@i:	
  3455                           ; 1 bytes @ 0x1
  3456                           
  3457                           
  3458                           ; 2 bytes @ 0x1
  3459  0021                     	ds	1
  3460  0022                     ___awdiv@quotient:
  3461                           
  3462                           ; 2 bytes @ 0x2
  3463  0022                     	ds	1
  3464  0023                     fputs@s:
  3465                           
  3466                           ; 1 bytes @ 0x3
  3467  0023                     	ds	1
  3468  0024                     ?_map:
  3469  0024                     ?_pad:	
  3470                           ; 2 bytes @ 0x4
  3471                           
  3472  0024                     pad@buf:	
  3473                           ; 2 bytes @ 0x4
  3474                           
  3475  0024                     map@x:	
  3476                           ; 1 bytes @ 0x4
  3477                           
  3478                           
  3479                           ; 2 bytes @ 0x4
  3480  0024                     	ds	1
  3481  0025                     pad@p:
  3482                           
  3483                           ; 2 bytes @ 0x5
  3484  0025                     	ds	1
  3485  0026                     map@in_min:
  3486                           
  3487                           ; 2 bytes @ 0x6
  3488  0026                     	ds	1
  3489  0027                     ??_pad:
  3490                           
  3491                           ; 1 bytes @ 0x7
  3492  0027                     	ds	1
  3493  0028                     map@in_max:
  3494  0028                     pad@i:	
  3495                           ; 2 bytes @ 0x8
  3496                           
  3497  0028                     ___aodiv@dividend:	
  3498                           ; 2 bytes @ 0x8
  3499                           
  3500  0028                     ___aomod@dividend:	
  3501                           ; 8 bytes @ 0x8
  3502                           
  3503                           
  3504                           ; 8 bytes @ 0x8
  3505  0028                     	ds	2
  3506  002A                     map@out_min:
  3507  002A                     pad@w:	
  3508                           ; 2 bytes @ 0xA
  3509                           
  3510                           
  3511                           ; 2 bytes @ 0xA
  3512  002A                     	ds	2
  3513  002C                     pad@fp:
  3514  002C                     map@out_max:	
  3515                           ; 1 bytes @ 0xC
  3516                           
  3517                           
  3518                           ; 2 bytes @ 0xC
  3519  002C                     	ds	4
  3520  0030                     ?_dtoa:
  3521  0030                     dtoa@d:	
  3522                           ; 2 bytes @ 0x10
  3523                           
  3524                           
  3525                           ; 8 bytes @ 0x10
  3526  0030                     	ds	8
  3527  0038                     ??_dtoa:
  3528                           
  3529                           ; 1 bytes @ 0x18
  3530  0038                     	ds	3
  3531  003B                     _dtoa$1067:
  3532                           
  3533                           ; 2 bytes @ 0x1B
  3534  003B                     	ds	2
  3535  003D                     dtoa@p:
  3536                           
  3537                           ; 2 bytes @ 0x1D
  3538  003D                     	ds	2
  3539  003F                     dtoa@fp:
  3540                           
  3541                           ; 1 bytes @ 0x1F
  3542  003F                     	ds	1
  3543  0040                     dtoa@w:
  3544                           
  3545                           ; 2 bytes @ 0x20
  3546  0040                     	ds	2
  3547  0042                     dtoa@s:
  3548                           
  3549                           ; 2 bytes @ 0x22
  3550  0042                     	ds	2
  3551  0044                     dtoa@n:
  3552                           
  3553                           ; 8 bytes @ 0x24
  3554  0044                     	ds	8
  3555  004C                     dtoa@i:
  3556                           
  3557                           ; 2 bytes @ 0x2C
  3558  004C                     	ds	2
  3559  004E                     ?_vfpfcnvrt:
  3560  004E                     vfpfcnvrt@fmt:	
  3561                           ; 2 bytes @ 0x2E
  3562                           
  3563                           
  3564                           ; 1 bytes @ 0x2E
  3565  004E                     	ds	1
  3566  004F                     vfpfcnvrt@ap:
  3567                           
  3568                           ; 1 bytes @ 0x2F
  3569  004F                     	ds	1
  3570  0050                     ??_vfpfcnvrt:
  3571                           
  3572                           ; 1 bytes @ 0x30
  3573  0050                     	ds	5
  3574  0055                     vfpfcnvrt@ll:
  3575                           
  3576                           ; 8 bytes @ 0x35
  3577  0055                     	ds	8
  3578  005D                     vfpfcnvrt@fp:
  3579                           
  3580                           ; 1 bytes @ 0x3D
  3581  005D                     	ds	1
  3582  005E                     ?_vfprintf:
  3583  005E                     vfprintf@fmt:	
  3584                           ; 2 bytes @ 0x3E
  3585                           
  3586                           
  3587                           ; 2 bytes @ 0x3E
  3588  005E                     	ds	2
  3589  0060                     vfprintf@ap:
  3590                           
  3591                           ; 1 bytes @ 0x40
  3592  0060                     	ds	1
  3593  0061                     ??_vfprintf:
  3594                           
  3595                           ; 1 bytes @ 0x41
  3596  0061                     	ds	2
  3597  0063                     vfprintf@fp:
  3598                           
  3599                           ; 1 bytes @ 0x43
  3600  0063                     	ds	1
  3601  0064                     vfprintf@cfmt:
  3602                           
  3603                           ; 2 bytes @ 0x44
  3604  0064                     	ds	2
  3605  0066                     ?_printf:
  3606  0066                     printf@fmt:	
  3607                           ; 2 bytes @ 0x46
  3608                           
  3609                           
  3610                           ; 2 bytes @ 0x46
  3611  0066                     	ds	4
  3612  006A                     ??_printf:
  3613                           
  3614                           ; 1 bytes @ 0x4A
  3615  006A                     	ds	3
  3616  006D                     printf@ap:
  3617                           
  3618                           ; 1 bytes @ 0x4D
  3619  006D                     	ds	1
  3620  006E                     ?_set_brightness:
  3621  006E                     ?_set_color:	
  3622                           ; 1 bytes @ 0x4E
  3623                           
  3624  006E                     set_brightness@brightness:	
  3625                           ; 1 bytes @ 0x4E
  3626                           
  3627  006E                     set_color@temperature:	
  3628                           ; 2 bytes @ 0x4E
  3629                           
  3630                           
  3631                           ; 2 bytes @ 0x4E
  3632  006E                     	ds	2
  3633                           
  3634                           	psect	maintext
  3635  0341                     __pmaintext:	
  3636 ;;
  3637 ;;Main: autosize = 0, tempsize = 1, incstack = 0, save=0
  3638 ;;
  3639 ;; *************** function _main *****************
  3640 ;; Defined at:
  3641 ;;		line 55 in file "main.c"
  3642 ;; Parameters:    Size  Location     Type
  3643 ;;		None
  3644 ;; Auto vars:     Size  Location     Type
  3645 ;;  lcd_screen      6   24[BANK1 ] struct lcd_screen
  3646 ;;  temp_sensor     6   10[BANK1 ] struct sensor
  3647 ;;  light_sensor    6    4[BANK1 ] struct sensor
  3648 ;;  led             4   20[BANK1 ] struct led
  3649 ;;  temperature     2   18[BANK1 ] int 
  3650 ;;  brightness      2   16[BANK1 ] int 
  3651 ;; Return value:  Size  Location     Type
  3652 ;;                  1    wreg      void 
  3653 ;; Registers used:
  3654 ;;		wreg, fsr0l, fsr0h, fsr1l, fsr1h, status,2, status,0, pclath, cstack
  3655 ;; Tracked objects:
  3656 ;;		On entry : B1F/0
  3657 ;;		On exit  : 0/0
  3658 ;;		Unchanged: 0/0
  3659 ;; Data sizes:     COMMON   BANK0   BANK1   BANK2   BANK3   BANK4   BANK5   BANK6   BANK7   BANK8   BANK9  BANK10  BANK1
      +1  BANK12
  3660 ;;      Params:         0       0       0       0       0       0       0       0       0       0       0       0       
      +0       0
  3661 ;;      Locals:         0       0      26       0       0       0       0       0       0       0       0       0       
      +0       0
  3662 ;;      Temps:          0       0       1       0       0       0       0       0       0       0       0       0       
      +0       0
  3663 ;;      Totals:         0       0      27       0       0       0       0       0       0       0       0       0       
      +0       0
  3664 ;;Total ram usage:       27 bytes
  3665 ;; Hardware stack levels required when called:   11
  3666 ;; This function calls:
  3667 ;;		_SYSTEM_Initialize
  3668 ;;		___awmod
  3669 ;;		_demo1
  3670 ;;		_demo2
  3671 ;;		_demo3
  3672 ;;		_initialize_lcd_screen
  3673 ;;		_initialize_led
  3674 ;;		_initialize_light
  3675 ;;		_initialize_temp
  3676 ;;		_set_brightness
  3677 ;;		_set_color
  3678 ;; This function is called by:
  3679 ;;		Startup code after reset
  3680 ;; This function uses a non-reentrant model
  3681 ;;
  3682                           
  3683                           
  3684                           ;psect for function _main
  3685  0341                     _main:
  3686  0341                     l2177:	
  3687                           ;incstack = 0
  3688                           ; Regs used in _main: [wreg-fsr1h+status,2+status,0+pclath+cstack]
  3689                           
  3690                           
  3691                           ;main.c: 58:   SYSTEM_Initialize();
  3692  0341  318F  275A  3183   	fcall	_SYSTEM_Initialize
  3693  0344                     l2179:
  3694                           
  3695                           ;main.c: 60:   sensor light_sensor;;main.c: 61:   sensor temp_sensor;;main.c: 62:   lcd_
      +                          screen lcd_screen;;main.c: 63:   led led;;main.c: 65:   initialize_light(&light_sensor);
  3696  0344  30CD               	movlw	(low (main@light_sensor| 0))& (0+255)
  3697  0345  318F  27CE  3183   	fcall	_initialize_light
  3698  0348                     l2181:
  3699                           
  3700                           ;main.c: 66:   initialize_temp(&temp_sensor);
  3701  0348  30D3               	movlw	(low (main@temp_sensor| 0))& (0+255)
  3702  0349  318F  27E7  3183   	fcall	_initialize_temp
  3703  034C                     l2183:
  3704                           
  3705                           ;main.c: 67:   initialize_lcd_screen(&lcd_screen);
  3706  034C  30E1               	movlw	(low (main@lcd_screen| 0))& (0+255)
  3707  034D  318F  27B5  3183   	fcall	_initialize_lcd_screen
  3708  0350                     l2185:
  3709                           
  3710                           ;main.c: 68:   initialize_led(&led);
  3711  0350  30DD               	movlw	(low (main@led| 0))& (0+255)
  3712  0351  318F  2723  3183   	fcall	_initialize_led
  3713  0354                     l2187:
  3714                           
  3715                           ;main.c: 70:   lcd_screen.demo1();
  3716  0354  0021               	movlb	1	; select bank1
  3717  0355  0862               	movf	(main@lcd_screen+1)^(0+128),w
  3718  0356  008A               	movwf	10
  3719  0357  0861               	movf	main@lcd_screen^(0+128),w
  3720  0358  000A               	callw
  3721  0359  3183               	pagesel	$
  3722  035A                     l2189:
  3723                           
  3724                           ;main.c: 71:   lcd_screen.demo2();
  3725  035A  3002               	movlw	2
  3726  035B  3EE1               	addlw	(low (main@lcd_screen| 0))& (0+255)
  3727  035C  0086               	movwf	6
  3728  035D  0187               	clrf	7
  3729  035E  3F41               	moviw [1]fsr1
  3730  035F  008A               	movwf	10
  3731  0360  3F40               	moviw [0]fsr1
  3732  0361  000A               	callw
  3733  0362  3183               	pagesel	$
  3734  0363                     l2191:
  3735                           
  3736                           ;main.c: 72:   lcd_screen.demo3();
  3737  0363  3004               	movlw	4
  3738  0364  3EE1               	addlw	(low (main@lcd_screen| 0))& (0+255)
  3739  0365  0086               	movwf	6
  3740  0366  0187               	clrf	7
  3741  0367  3F41               	moviw [1]fsr1
  3742  0368  008A               	movwf	10
  3743  0369  3F40               	moviw [0]fsr1
  3744  036A  000A               	callw
  3745  036B  3183               	pagesel	$
  3746  036C                     l2193:
  3747                           
  3748                           ;main.c: 88:   int brightness = 0;
  3749  036C  0021               	movlb	1	; select bank1
  3750  036D  01D9               	clrf	main@brightness^(0+128)
  3751  036E  01DA               	clrf	(main@brightness+1)^(0+128)
  3752  036F                     l2195:
  3753                           
  3754                           ;main.c: 89:   int temperature = 0;
  3755  036F  01DB               	clrf	main@temperature^(0+128)
  3756  0370  01DC               	clrf	(main@temperature+1)^(0+128)
  3757  0371                     l2197:
  3758                           
  3759                           ;main.c: 92:   {;main.c: 99:     led.set_brightness(brightness);
  3760  0371  0021               	movlb	1	; select bank1
  3761  0372  085A               	movf	(main@brightness+1)^(0+128),w
  3762  0373  0020               	movlb	0	; select bank0
  3763  0374  00EF               	movwf	set_brightness@brightness+1
  3764  0375  0021               	movlb	1	; select bank1
  3765  0376  0859               	movf	main@brightness^(0+128),w
  3766  0377  0020               	movlb	0	; select bank0
  3767  0378  00EE               	movwf	set_brightness@brightness
  3768  0379  0021               	movlb	1	; select bank1
  3769  037A  085E               	movf	(main@led+1)^(0+128),w
  3770  037B  008A               	movwf	10
  3771  037C  085D               	movf	main@led^(0+128),w
  3772  037D  000A               	callw
  3773  037E  3183               	pagesel	$
  3774  037F                     l2199:
  3775                           
  3776                           ;main.c: 100:     led.set_color(temperature);
  3777  037F  0021               	movlb	1	; select bank1
  3778  0380  085C               	movf	(main@temperature+1)^(0+128),w
  3779  0381  0020               	movlb	0	; select bank0
  3780  0382  00EF               	movwf	set_color@temperature+1
  3781  0383  0021               	movlb	1	; select bank1
  3782  0384  085B               	movf	main@temperature^(0+128),w
  3783  0385  0020               	movlb	0	; select bank0
  3784  0386  00EE               	movwf	set_color@temperature
  3785  0387  3002               	movlw	2
  3786  0388  3EDD               	addlw	(low (main@led| 0))& (0+255)
  3787  0389  0086               	movwf	6
  3788  038A  0187               	clrf	7
  3789  038B  3F41               	moviw [1]fsr1
  3790  038C  008A               	movwf	10
  3791  038D  3F40               	moviw [0]fsr1
  3792  038E  000A               	callw
  3793  038F  3183               	pagesel	$
  3794  0390                     l2201:
  3795                           
  3796                           ;main.c: 101:     brightness = (brightness + 1) % 10;
  3797  0390  300A               	movlw	10
  3798  0391  00F0               	movwf	___awmod@divisor
  3799  0392  3000               	movlw	0
  3800  0393  00F1               	movwf	___awmod@divisor+1
  3801  0394  0021               	movlb	1	; select bank1
  3802  0395  0859               	movf	main@brightness^(0+128),w
  3803  0396  3E01               	addlw	1
  3804  0397  00F2               	movwf	___awmod@dividend
  3805  0398  3000               	movlw	0
  3806  0399  3D5A               	addwfc	(main@brightness+1)^(0+128),w
  3807  039A  00F3               	movwf	___awmod@dividend+1
  3808  039B  3181  21C2  3183   	fcall	___awmod
  3809  039E  0871               	movf	?___awmod+1,w
  3810  039F  0021               	movlb	1	; select bank1
  3811  03A0  00DA               	movwf	(main@brightness+1)^(0+128)
  3812  03A1  0870               	movf	?___awmod,w
  3813  03A2  00D9               	movwf	main@brightness^(0+128)
  3814  03A3                     l2203:
  3815                           
  3816                           ;main.c: 102:     temperature = (temperature + 1) % 10;
  3817  03A3  300A               	movlw	10
  3818  03A4  00F0               	movwf	___awmod@divisor
  3819  03A5  3000               	movlw	0
  3820  03A6  00F1               	movwf	___awmod@divisor+1
  3821  03A7  085B               	movf	main@temperature^(0+128),w
  3822  03A8  3E01               	addlw	1
  3823  03A9  00F2               	movwf	___awmod@dividend
  3824  03AA  3000               	movlw	0
  3825  03AB  3D5C               	addwfc	(main@temperature+1)^(0+128),w
  3826  03AC  00F3               	movwf	___awmod@dividend+1
  3827  03AD  3181  21C2  3183   	fcall	___awmod
  3828  03B0  0871               	movf	?___awmod+1,w
  3829  03B1  0021               	movlb	1	; select bank1
  3830  03B2  00DC               	movwf	(main@temperature+1)^(0+128)
  3831  03B3  0870               	movf	?___awmod,w
  3832  03B4  00DB               	movwf	main@temperature^(0+128)
  3833  03B5                     l2205:
  3834                           
  3835                           ;main.c: 103:     _delay((unsigned long)((100)*(1000000/4000.0)));
  3836  03B5  3021               	movlw	33
  3837  03B6  0021               	movlb	1	; select bank1
  3838  03B7  00CC               	movwf	??_main^(0+128)
  3839  03B8  3076               	movlw	118
  3840  03B9                     u1827:
  3841  03B9  0B89               	decfsz	9,f
  3842  03BA  2BB9               	goto	u1827
  3843  03BB  0BCC               	decfsz	??_main^(0+128),f
  3844  03BC  2BB9               	goto	u1827
  3845  03BD  0000               	nop
  3846  03BE  2B71               	goto	l2197
  3847  03BF  3180  2802         	ljmp	start
  3848  03C1                     __end_of_main:
  3849                           
  3850                           	psect	text1
  3851  02CE                     __ptext1:	
  3852 ;; *************** function _set_color *****************
  3853 ;; Defined at:
  3854 ;;		line 77 in file "led_adapter.c"
  3855 ;; Parameters:    Size  Location     Type
  3856 ;;  temperature     2   78[BANK0 ] int 
  3857 ;; Auto vars:     Size  Location     Type
  3858 ;;  color           2    1[BANK1 ] int 
  3859 ;; Return value:  Size  Location     Type
  3860 ;;                  1    wreg      void 
  3861 ;; Registers used:
  3862 ;;		wreg, fsr0l, fsr0h, fsr1l, fsr1h, status,2, status,0, pclath, cstack
  3863 ;; Tracked objects:
  3864 ;;		On entry : 0/0
  3865 ;;		On exit  : 0/0
  3866 ;;		Unchanged: 0/0
  3867 ;; Data sizes:     COMMON   BANK0   BANK1   BANK2   BANK3   BANK4   BANK5   BANK6   BANK7   BANK8   BANK9  BANK10  BANK1
      +1  BANK12
  3868 ;;      Params:         0       2       0       0       0       0       0       0       0       0       0       0       
      +0       0
  3869 ;;      Locals:         0       0       2       0       0       0       0       0       0       0       0       0       
      +0       0
  3870 ;;      Temps:          0       0       1       0       0       0       0       0       0       0       0       0       
      +0       0
  3871 ;;      Totals:         0       2       3       0       0       0       0       0       0       0       0       0       
      +0       0
  3872 ;;Total ram usage:        5 bytes
  3873 ;; Hardware stack levels used:    1
  3874 ;; Hardware stack levels required when called:   10
  3875 ;; This function calls:
  3876 ;;		_map
  3877 ;;		_turn_blue
  3878 ;;		_turn_green
  3879 ;;		_turn_red
  3880 ;; This function is called by:
  3881 ;;		_initialize_led
  3882 ;;		_main
  3883 ;; This function uses a non-reentrant model
  3884 ;;
  3885                           
  3886                           
  3887                           ;psect for function _set_color
  3888  02CE                     _set_color:
  3889  02CE                     l2115:	
  3890                           ;incstack = 0
  3891                           ; Regs used in _set_color: [wreg-fsr1h+status,2+status,0+pclath+cstack]
  3892                           
  3893                           
  3894                           ;led_adapter.c: 77: static void set_color(int temperature);led_adapter.c: 78: {;led_adap
      +                          ter.c: 79:   int color = map(temperature, 0, 10, 0, 60);
  3895  02CE  0020               	movlb	0	; select bank0
  3896  02CF  086F               	movf	set_color@temperature+1,w
  3897  02D0  00A5               	movwf	map@x+1
  3898  02D1  086E               	movf	set_color@temperature,w
  3899  02D2  00A4               	movwf	map@x
  3900  02D3  3000               	movlw	0
  3901  02D4  00A6               	movwf	map@in_min
  3902  02D5  00A7               	movwf	map@in_min+1
  3903  02D6  300A               	movlw	10
  3904  02D7  00A8               	movwf	map@in_max
  3905  02D8  3000               	movlw	0
  3906  02D9  00A9               	movwf	map@in_max+1
  3907  02DA  3000               	movlw	0
  3908  02DB  00AA               	movwf	map@out_min
  3909  02DC  00AB               	movwf	map@out_min+1
  3910  02DD  303C               	movlw	60
  3911  02DE  00AC               	movwf	map@out_max
  3912  02DF  3000               	movlw	0
  3913  02E0  00AD               	movwf	map@out_max+1
  3914  02E1  3180  206F  3182   	fcall	_map
  3915  02E4  0020               	movlb	0	; select bank0
  3916  02E5  0825               	movf	?_map+1,w
  3917  02E6  0021               	movlb	1	; select bank1
  3918  02E7  00CB               	movwf	(set_color@color+1)^(0+128)
  3919  02E8  0020               	movlb	0	; select bank0
  3920  02E9  0824               	movf	?_map,w
  3921  02EA  0021               	movlb	1	; select bank1
  3922  02EB  00CA               	movwf	set_color@color^(0+128)
  3923  02EC                     l2117:
  3924                           
  3925                           ;led_adapter.c: 81:   if (color >= 0 && color < 20)
  3926  02EC  1BCB               	btfsc	(set_color@color+1)^(0+128),7
  3927  02ED  2AEF               	goto	u1671
  3928  02EE  2AF0               	goto	u1670
  3929  02EF                     u1671:
  3930  02EF  2B01               	goto	l2123
  3931  02F0                     u1670:
  3932  02F0                     l2119:
  3933  02F0  084B               	movf	(set_color@color+1)^(0+128),w
  3934  02F1  3A80               	xorlw	128
  3935  02F2  00C9               	movwf	??_set_color^(0+128)
  3936  02F3  3080               	movlw	128
  3937  02F4  0249               	subwf	??_set_color^(0+128),w
  3938  02F5  1D03               	skipz
  3939  02F6  2AF9               	goto	u1685
  3940  02F7  3014               	movlw	20
  3941  02F8  024A               	subwf	set_color@color^(0+128),w
  3942  02F9                     u1685:
  3943  02F9  1803               	skipnc
  3944  02FA  2AFC               	goto	u1681
  3945  02FB  2AFD               	goto	u1680
  3946  02FC                     u1681:
  3947  02FC  2B01               	goto	l2123
  3948  02FD                     u1680:
  3949  02FD                     l2121:
  3950                           
  3951                           ;led_adapter.c: 82:   {;led_adapter.c: 83:     turn_blue();
  3952  02FD  318F  2707  3182   	fcall	_turn_blue
  3953                           
  3954                           ;led_adapter.c: 84:   }
  3955  0300  2B40               	goto	l320
  3956  0301                     l2123:
  3957  0301  0021               	movlb	1	; select bank1
  3958  0302  084B               	movf	(set_color@color+1)^(0+128),w
  3959  0303  3A80               	xorlw	128
  3960  0304  00C9               	movwf	??_set_color^(0+128)
  3961  0305  3080               	movlw	128
  3962  0306  0249               	subwf	??_set_color^(0+128),w
  3963  0307  1D03               	skipz
  3964  0308  2B0B               	goto	u1695
  3965  0309  3014               	movlw	20
  3966  030A  024A               	subwf	set_color@color^(0+128),w
  3967  030B                     u1695:
  3968  030B  1C03               	skipc
  3969  030C  2B0E               	goto	u1691
  3970  030D  2B0F               	goto	u1690
  3971  030E                     u1691:
  3972  030E  2B21               	goto	l2129
  3973  030F                     u1690:
  3974  030F                     l2125:
  3975  030F  0021               	movlb	1	; select bank1
  3976  0310  084B               	movf	(set_color@color+1)^(0+128),w
  3977  0311  3A80               	xorlw	128
  3978  0312  00C9               	movwf	??_set_color^(0+128)
  3979  0313  3080               	movlw	128
  3980  0314  0249               	subwf	??_set_color^(0+128),w
  3981  0315  1D03               	skipz
  3982  0316  2B19               	goto	u1705
  3983  0317  3028               	movlw	40
  3984  0318  024A               	subwf	set_color@color^(0+128),w
  3985  0319                     u1705:
  3986  0319  1803               	skipnc
  3987  031A  2B1C               	goto	u1701
  3988  031B  2B1D               	goto	u1700
  3989  031C                     u1701:
  3990  031C  2B21               	goto	l2129
  3991  031D                     u1700:
  3992  031D                     l2127:
  3993                           
  3994                           ;led_adapter.c: 86:   {;led_adapter.c: 87:     turn_green();
  3995  031D  3180  2005  3182   	fcall	_turn_green
  3996                           
  3997                           ;led_adapter.c: 88:   }
  3998  0320  2B40               	goto	l320
  3999  0321                     l2129:
  4000  0321  0021               	movlb	1	; select bank1
  4001  0322  084B               	movf	(set_color@color+1)^(0+128),w
  4002  0323  3A80               	xorlw	128
  4003  0324  00C9               	movwf	??_set_color^(0+128)
  4004  0325  3080               	movlw	128
  4005  0326  0249               	subwf	??_set_color^(0+128),w
  4006  0327  1D03               	skipz
  4007  0328  2B2B               	goto	u1715
  4008  0329  3028               	movlw	40
  4009  032A  024A               	subwf	set_color@color^(0+128),w
  4010  032B                     u1715:
  4011  032B  1C03               	skipc
  4012  032C  2B2E               	goto	u1711
  4013  032D  2B2F               	goto	u1710
  4014  032E                     u1711:
  4015  032E  2B40               	goto	l320
  4016  032F                     u1710:
  4017  032F                     l2131:
  4018  032F  0021               	movlb	1	; select bank1
  4019  0330  084B               	movf	(set_color@color+1)^(0+128),w
  4020  0331  3A80               	xorlw	128
  4021  0332  00C9               	movwf	??_set_color^(0+128)
  4022  0333  3080               	movlw	128
  4023  0334  0249               	subwf	??_set_color^(0+128),w
  4024  0335  1D03               	skipz
  4025  0336  2B39               	goto	u1725
  4026  0337  303D               	movlw	61
  4027  0338  024A               	subwf	set_color@color^(0+128),w
  4028  0339                     u1725:
  4029  0339  1803               	skipnc
  4030  033A  2B3C               	goto	u1721
  4031  033B  2B3D               	goto	u1720
  4032  033C                     u1721:
  4033  033C  2B40               	goto	l320
  4034  033D                     u1720:
  4035  033D                     l2133:
  4036                           
  4037                           ;led_adapter.c: 90:   {;led_adapter.c: 91:     turn_red();
  4038  033D  318F  2715  3182   	fcall	_turn_red
  4039  0340                     l320:
  4040  0340  0008               	return
  4041  0341                     __end_of_set_color:
  4042                           
  4043                           	psect	text2
  4044  0F15                     __ptext2:	
  4045 ;; *************** function _turn_red *****************
  4046 ;; Defined at:
  4047 ;;		line 60 in file "led_adapter.c"
  4048 ;; Parameters:    Size  Location     Type
  4049 ;;		None
  4050 ;; Auto vars:     Size  Location     Type
  4051 ;;		None
  4052 ;; Return value:  Size  Location     Type
  4053 ;;                  1    wreg      void 
  4054 ;; Registers used:
  4055 ;;		wreg, fsr0l, fsr0h, fsr1l, fsr1h, status,2, status,0, pclath, cstack
  4056 ;; Tracked objects:
  4057 ;;		On entry : 0/0
  4058 ;;		On exit  : 0/0
  4059 ;;		Unchanged: 0/0
  4060 ;; Data sizes:     COMMON   BANK0   BANK1   BANK2   BANK3   BANK4   BANK5   BANK6   BANK7   BANK8   BANK9  BANK10  BANK1
      +1  BANK12
  4061 ;;      Params:         0       0       0       0       0       0       0       0       0       0       0       0       
      +0       0
  4062 ;;      Locals:         0       0       0       0       0       0       0       0       0       0       0       0       
      +0       0
  4063 ;;      Temps:          0       0       0       0       0       0       0       0       0       0       0       0       
      +0       0
  4064 ;;      Totals:         0       0       0       0       0       0       0       0       0       0       0       0       
      +0       0
  4065 ;;Total ram usage:        0 bytes
  4066 ;; Hardware stack levels used:    1
  4067 ;; Hardware stack levels required when called:    9
  4068 ;; This function calls:
  4069 ;;		_printf
  4070 ;;		_turn_selectors
  4071 ;; This function is called by:
  4072 ;;		_set_color
  4073 ;; This function uses a non-reentrant model
  4074 ;;
  4075                           
  4076                           
  4077                           ;psect for function _turn_red
  4078  0F15                     _turn_red:
  4079  0F15                     l2073:	
  4080                           ;incstack = 0
  4081                           ; Regs used in _turn_red: [wreg-fsr1h+status,2+status,0+pclath+cstack]
  4082                           
  4083                           
  4084                           ;led_adapter.c: 62:   printf("Color is red!\n");
  4085  0F15  30B5               	movlw	low (STR_13| (0+32768))
  4086  0F16  0020               	movlb	0	; select bank0
  4087  0F17  00E6               	movwf	printf@fmt
  4088  0F18  3090               	movlw	high (STR_13| (0+32768))
  4089  0F19  00E7               	movwf	printf@fmt+1
  4090  0F1A  318F  2734  318F   	fcall	_printf
  4091  0F1D                     l2075:
  4092                           
  4093                           ;led_adapter.c: 63:   turn_selectors(0, 0);
  4094  0F1D  01F0               	clrf	turn_selectors@selector2
  4095  0F1E  3000               	movlw	0
  4096  0F1F  318F  2746  318F   	fcall	_turn_selectors
  4097  0F22                     l309:
  4098  0F22  0008               	return
  4099  0F23                     __end_of_turn_red:
  4100                           
  4101                           	psect	text3
  4102  0005                     __ptext3:	
  4103 ;; *************** function _turn_green *****************
  4104 ;; Defined at:
  4105 ;;		line 54 in file "led_adapter.c"
  4106 ;; Parameters:    Size  Location     Type
  4107 ;;		None
  4108 ;; Auto vars:     Size  Location     Type
  4109 ;;		None
  4110 ;; Return value:  Size  Location     Type
  4111 ;;                  1    wreg      void 
  4112 ;; Registers used:
  4113 ;;		wreg, fsr0l, fsr0h, fsr1l, fsr1h, status,2, status,0, pclath, cstack
  4114 ;; Tracked objects:
  4115 ;;		On entry : 0/0
  4116 ;;		On exit  : 0/0
  4117 ;;		Unchanged: 0/0
  4118 ;; Data sizes:     COMMON   BANK0   BANK1   BANK2   BANK3   BANK4   BANK5   BANK6   BANK7   BANK8   BANK9  BANK10  BANK1
      +1  BANK12
  4119 ;;      Params:         0       0       0       0       0       0       0       0       0       0       0       0       
      +0       0
  4120 ;;      Locals:         0       0       0       0       0       0       0       0       0       0       0       0       
      +0       0
  4121 ;;      Temps:          0       0       0       0       0       0       0       0       0       0       0       0       
      +0       0
  4122 ;;      Totals:         0       0       0       0       0       0       0       0       0       0       0       0       
      +0       0
  4123 ;;Total ram usage:        0 bytes
  4124 ;; Hardware stack levels used:    1
  4125 ;; Hardware stack levels required when called:    9
  4126 ;; This function calls:
  4127 ;;		_printf
  4128 ;;		_turn_selectors
  4129 ;; This function is called by:
  4130 ;;		_set_color
  4131 ;; This function uses a non-reentrant model
  4132 ;;
  4133                           
  4134                           
  4135                           ;psect for function _turn_green
  4136  0005                     _turn_green:
  4137  0005                     l2069:	
  4138                           ;incstack = 0
  4139                           ; Regs used in _turn_green: [wreg-fsr1h+status,2+status,0+pclath+cstack]
  4140                           
  4141                           
  4142                           ;led_adapter.c: 56:   printf("Color is green!\n");
  4143  0005  3094               	movlw	low (STR_12| (0+32768))
  4144  0006  0020               	movlb	0	; select bank0
  4145  0007  00E6               	movwf	printf@fmt
  4146  0008  3090               	movlw	high (STR_12| (0+32768))
  4147  0009  00E7               	movwf	printf@fmt+1
  4148  000A  318F  2734  3180   	fcall	_printf
  4149  000D                     l2071:
  4150                           
  4151                           ;led_adapter.c: 57:   turn_selectors(0, 1);
  4152  000D  01F0               	clrf	turn_selectors@selector2
  4153  000E  0AF0               	incf	turn_selectors@selector2,f
  4154  000F  3000               	movlw	0
  4155  0010  318F  2746  3180   	fcall	_turn_selectors
  4156  0013                     l306:
  4157  0013  0008               	return
  4158  0014                     __end_of_turn_green:
  4159                           
  4160                           	psect	text4
  4161  0F07                     __ptext4:	
  4162 ;; *************** function _turn_blue *****************
  4163 ;; Defined at:
  4164 ;;		line 48 in file "led_adapter.c"
  4165 ;; Parameters:    Size  Location     Type
  4166 ;;		None
  4167 ;; Auto vars:     Size  Location     Type
  4168 ;;		None
  4169 ;; Return value:  Size  Location     Type
  4170 ;;                  1    wreg      void 
  4171 ;; Registers used:
  4172 ;;		wreg, fsr0l, fsr0h, fsr1l, fsr1h, status,2, status,0, pclath, cstack
  4173 ;; Tracked objects:
  4174 ;;		On entry : 0/0
  4175 ;;		On exit  : 0/0
  4176 ;;		Unchanged: 0/0
  4177 ;; Data sizes:     COMMON   BANK0   BANK1   BANK2   BANK3   BANK4   BANK5   BANK6   BANK7   BANK8   BANK9  BANK10  BANK1
      +1  BANK12
  4178 ;;      Params:         0       0       0       0       0       0       0       0       0       0       0       0       
      +0       0
  4179 ;;      Locals:         0       0       0       0       0       0       0       0       0       0       0       0       
      +0       0
  4180 ;;      Temps:          0       0       0       0       0       0       0       0       0       0       0       0       
      +0       0
  4181 ;;      Totals:         0       0       0       0       0       0       0       0       0       0       0       0       
      +0       0
  4182 ;;Total ram usage:        0 bytes
  4183 ;; Hardware stack levels used:    1
  4184 ;; Hardware stack levels required when called:    9
  4185 ;; This function calls:
  4186 ;;		_printf
  4187 ;;		_turn_selectors
  4188 ;; This function is called by:
  4189 ;;		_set_color
  4190 ;; This function uses a non-reentrant model
  4191 ;;
  4192                           
  4193                           
  4194                           ;psect for function _turn_blue
  4195  0F07                     _turn_blue:
  4196  0F07                     l2065:	
  4197                           ;incstack = 0
  4198                           ; Regs used in _turn_blue: [wreg-fsr1h+status,2+status,0+pclath+cstack]
  4199                           
  4200                           
  4201                           ;led_adapter.c: 50:   printf("Color is blue!\n");
  4202  0F07  30A5               	movlw	low (STR_11| (0+32768))
  4203  0F08  0020               	movlb	0	; select bank0
  4204  0F09  00E6               	movwf	printf@fmt
  4205  0F0A  3090               	movlw	high (STR_11| (0+32768))
  4206  0F0B  00E7               	movwf	printf@fmt+1
  4207  0F0C  318F  2734  318F   	fcall	_printf
  4208  0F0F                     l2067:
  4209                           
  4210                           ;led_adapter.c: 51:   turn_selectors(1, 0);
  4211  0F0F  01F0               	clrf	turn_selectors@selector2
  4212  0F10  3001               	movlw	1
  4213  0F11  318F  2746  318F   	fcall	_turn_selectors
  4214  0F14                     l303:
  4215  0F14  0008               	return
  4216  0F15                     __end_of_turn_blue:
  4217                           
  4218                           	psect	text5
  4219  0F46                     __ptext5:	
  4220 ;; *************** function _turn_selectors *****************
  4221 ;; Defined at:
  4222 ;;		line 27 in file "led_adapter.c"
  4223 ;; Parameters:    Size  Location     Type
  4224 ;;  selector1       1    wreg     _Bool 
  4225 ;;  selector2       1    0[COMMON] _Bool 
  4226 ;; Auto vars:     Size  Location     Type
  4227 ;;  selector1       1    1[COMMON] _Bool 
  4228 ;; Return value:  Size  Location     Type
  4229 ;;                  1    wreg      void 
  4230 ;; Registers used:
  4231 ;;		wreg, status,2, status,0
  4232 ;; Tracked objects:
  4233 ;;		On entry : 0/0
  4234 ;;		On exit  : 0/0
  4235 ;;		Unchanged: 0/0
  4236 ;; Data sizes:     COMMON   BANK0   BANK1   BANK2   BANK3   BANK4   BANK5   BANK6   BANK7   BANK8   BANK9  BANK10  BANK1
      +1  BANK12
  4237 ;;      Params:         1       0       0       0       0       0       0       0       0       0       0       0       
      +0       0
  4238 ;;      Locals:         1       0       0       0       0       0       0       0       0       0       0       0       
      +0       0
  4239 ;;      Temps:          0       0       0       0       0       0       0       0       0       0       0       0       
      +0       0
  4240 ;;      Totals:         2       0       0       0       0       0       0       0       0       0       0       0       
      +0       0
  4241 ;;Total ram usage:        2 bytes
  4242 ;; Hardware stack levels used:    1
  4243 ;; This function calls:
  4244 ;;		Nothing
  4245 ;; This function is called by:
  4246 ;;		_turn_blue
  4247 ;;		_turn_green
  4248 ;;		_turn_red
  4249 ;; This function uses a non-reentrant model
  4250 ;;
  4251                           
  4252                           
  4253                           ;psect for function _turn_selectors
  4254  0F46                     _turn_selectors:
  4255                           
  4256                           ;incstack = 0
  4257                           ; Regs used in _turn_selectors: [wreg+status,2+status,0]
  4258                           ;turn_selectors@selector1 stored from wreg
  4259  0F46  00F1               	movwf	turn_selectors@selector1
  4260  0F47                     l1903:
  4261                           
  4262                           ;led_adapter.c: 27: static void turn_selectors(_Bool selector1, _Bool selector2);led_ada
      +                          pter.c: 28: {;led_adapter.c: 29:   if (selector1)
  4263  0F47  0871               	movf	turn_selectors@selector1,w
  4264  0F48  1903               	btfsc	3,2
  4265  0F49  2F4B               	goto	u1471
  4266  0F4A  2F4C               	goto	u1470
  4267  0F4B                     u1471:
  4268  0F4B  2F4F               	goto	l292
  4269  0F4C                     u1470:
  4270  0F4C                     l289:	
  4271                           ;led_adapter.c: 30:   {;led_adapter.c: 31:     do { LATBbits.LATB2 = 1; } while(0);
  4272                           
  4273  0F4C  0022               	movlb	2	; select bank2
  4274  0F4D  150D               	bsf	13,2	;volatile
  4275  0F4E  2F51               	goto	l1905
  4276  0F4F                     l292:	
  4277                           ;led_adapter.c: 34:   {;led_adapter.c: 35:     do { LATBbits.LATB2 = 0; } while(0);
  4278                           
  4279  0F4F  0022               	movlb	2	; select bank2
  4280  0F50  110D               	bcf	13,2	;volatile
  4281  0F51                     l1905:
  4282                           
  4283                           ;led_adapter.c: 38:   if (selector2)
  4284  0F51  0870               	movf	turn_selectors@selector2,w
  4285  0F52  1903               	btfsc	3,2
  4286  0F53  2F55               	goto	u1481
  4287  0F54  2F56               	goto	u1480
  4288  0F55                     u1481:
  4289  0F55  2F58               	goto	l298
  4290  0F56                     u1480:
  4291  0F56                     l295:	
  4292                           ;led_adapter.c: 39:   {;led_adapter.c: 40:     do { LATBbits.LATB3 = 1; } while(0);
  4293                           
  4294  0F56  158D               	bsf	13,3	;volatile
  4295  0F57  2F59               	goto	l300
  4296  0F58                     l298:	
  4297                           ;led_adapter.c: 43:   {;led_adapter.c: 44:     do { LATBbits.LATB3 = 0; } while(0);
  4298                           
  4299  0F58  118D               	bcf	13,3	;volatile
  4300  0F59                     l300:
  4301  0F59  0008               	return
  4302  0F5A                     __end_of_turn_selectors:
  4303                           
  4304                           	psect	text6
  4305  0177                     __ptext6:	
  4306 ;; *************** function _set_brightness *****************
  4307 ;; Defined at:
  4308 ;;		line 66 in file "led_adapter.c"
  4309 ;; Parameters:    Size  Location     Type
  4310 ;;  brightness      2   78[BANK0 ] int 
  4311 ;; Auto vars:     Size  Location     Type
  4312 ;;  duty_cycle      2    0[BANK1 ] unsigned short 
  4313 ;; Return value:  Size  Location     Type
  4314 ;;                  1    wreg      void 
  4315 ;; Registers used:
  4316 ;;		wreg, fsr0l, fsr0h, fsr1l, fsr1h, status,2, status,0, pclath, cstack
  4317 ;; Tracked objects:
  4318 ;;		On entry : 0/0
  4319 ;;		On exit  : 0/0
  4320 ;;		Unchanged: 0/0
  4321 ;; Data sizes:     COMMON   BANK0   BANK1   BANK2   BANK3   BANK4   BANK5   BANK6   BANK7   BANK8   BANK9  BANK10  BANK1
      +1  BANK12
  4322 ;;      Params:         0       2       0       0       0       0       0       0       0       0       0       0       
      +0       0
  4323 ;;      Locals:         0       0       2       0       0       0       0       0       0       0       0       0       
      +0       0
  4324 ;;      Temps:          0       0       0       0       0       0       0       0       0       0       0       0       
      +0       0
  4325 ;;      Totals:         0       2       2       0       0       0       0       0       0       0       0       0       
      +0       0
  4326 ;;Total ram usage:        4 bytes
  4327 ;; Hardware stack levels used:    1
  4328 ;; Hardware stack levels required when called:    9
  4329 ;; This function calls:
  4330 ;;		_PWM3_LoadDutyValue
  4331 ;;		_PWM4_LoadDutyValue
  4332 ;;		_map
  4333 ;;		_printf
  4334 ;; This function is called by:
  4335 ;;		_initialize_led
  4336 ;;		_main
  4337 ;; This function uses a non-reentrant model
  4338 ;;
  4339                           
  4340                           
  4341                           ;psect for function _set_brightness
  4342  0177                     _set_brightness:
  4343  0177                     l2109:	
  4344                           ;incstack = 0
  4345                           ; Regs used in _set_brightness: [wreg-fsr1h+status,2+status,0+pclath+cstack]
  4346                           
  4347                           
  4348                           ;led_adapter.c: 66: static void set_brightness(int brightness);led_adapter.c: 67: {;led_
      +                          adapter.c: 68:   printf("Setting brightness of %d!\n", brightness);
  4349  0177  301D               	movlw	low (STR_14| (0+32768))
  4350  0178  0020               	movlb	0	; select bank0
  4351  0179  00E6               	movwf	printf@fmt
  4352  017A  3088               	movlw	high (STR_14| (0+32768))
  4353  017B  00E7               	movwf	printf@fmt+1
  4354  017C  086F               	movf	set_brightness@brightness+1,w
  4355  017D  00E9               	movwf	?_printf+3
  4356  017E  086E               	movf	set_brightness@brightness,w
  4357  017F  00E8               	movwf	?_printf+2
  4358  0180  318F  2734  3181   	fcall	_printf
  4359  0183                     l2111:
  4360                           
  4361                           ;led_adapter.c: 69:   uint16_t duty_cycle = (uint16_t)map(brightness, 0, 10, 0, 100);
  4362  0183  0020               	movlb	0	; select bank0
  4363  0184  086F               	movf	set_brightness@brightness+1,w
  4364  0185  00A5               	movwf	map@x+1
  4365  0186  086E               	movf	set_brightness@brightness,w
  4366  0187  00A4               	movwf	map@x
  4367  0188  3000               	movlw	0
  4368  0189  00A6               	movwf	map@in_min
  4369  018A  00A7               	movwf	map@in_min+1
  4370  018B  300A               	movlw	10
  4371  018C  00A8               	movwf	map@in_max
  4372  018D  3000               	movlw	0
  4373  018E  00A9               	movwf	map@in_max+1
  4374  018F  3000               	movlw	0
  4375  0190  00AA               	movwf	map@out_min
  4376  0191  00AB               	movwf	map@out_min+1
  4377  0192  3064               	movlw	100
  4378  0193  00AC               	movwf	map@out_max
  4379  0194  3000               	movlw	0
  4380  0195  00AD               	movwf	map@out_max+1
  4381  0196  3180  206F  3181   	fcall	_map
  4382  0199  0020               	movlb	0	; select bank0
  4383  019A  0825               	movf	?_map+1,w
  4384  019B  0021               	movlb	1	; select bank1
  4385  019C  00CA               	movwf	(set_brightness@duty_cycle+1)^(0+128)
  4386  019D  0020               	movlb	0	; select bank0
  4387  019E  0824               	movf	?_map,w
  4388  019F  0021               	movlb	1	; select bank1
  4389  01A0  00C9               	movwf	set_brightness@duty_cycle^(0+128)
  4390  01A1                     l2113:
  4391                           
  4392                           ;led_adapter.c: 70:   printf("Duty cycle is: %d\n", duty_cycle);
  4393  01A1  3081               	movlw	low (STR_15| (0+32768))
  4394  01A2  0020               	movlb	0	; select bank0
  4395  01A3  00E6               	movwf	printf@fmt
  4396  01A4  3090               	movlw	high (STR_15| (0+32768))
  4397  01A5  00E7               	movwf	printf@fmt+1
  4398  01A6  0021               	movlb	1	; select bank1
  4399  01A7  084A               	movf	(set_brightness@duty_cycle+1)^(0+128),w
  4400  01A8  0020               	movlb	0	; select bank0
  4401  01A9  00E9               	movwf	?_printf+3
  4402  01AA  0021               	movlb	1	; select bank1
  4403  01AB  0849               	movf	set_brightness@duty_cycle^(0+128),w
  4404  01AC  0020               	movlb	0	; select bank0
  4405  01AD  00E8               	movwf	?_printf+2
  4406  01AE  318F  2734  3181   	fcall	_printf
  4407                           
  4408                           ;led_adapter.c: 73:   PWM3_LoadDutyValue(duty_cycle);
  4409  01B1  0021               	movlb	1	; select bank1
  4410  01B2  084A               	movf	(set_brightness@duty_cycle+1)^(0+128),w
  4411  01B3  00F1               	movwf	PWM3_LoadDutyValue@dutyValue+1
  4412  01B4  0849               	movf	set_brightness@duty_cycle^(0+128),w
  4413  01B5  00F0               	movwf	PWM3_LoadDutyValue@dutyValue
  4414  01B6  318F  2770  3181   	fcall	_PWM3_LoadDutyValue
  4415                           
  4416                           ;led_adapter.c: 74:   PWM4_LoadDutyValue(duty_cycle);
  4417  01B9  0021               	movlb	1	; select bank1
  4418  01BA  084A               	movf	(set_brightness@duty_cycle+1)^(0+128),w
  4419  01BB  00F1               	movwf	PWM4_LoadDutyValue@dutyValue+1
  4420  01BC  0849               	movf	set_brightness@duty_cycle^(0+128),w
  4421  01BD  00F0               	movwf	PWM4_LoadDutyValue@dutyValue
  4422  01BE  318F  2786  3181   	fcall	_PWM4_LoadDutyValue
  4423  01C1                     l312:
  4424  01C1  0008               	return
  4425  01C2                     __end_of_set_brightness:
  4426                           
  4427                           	psect	text7
  4428  006F                     __ptext7:	
  4429 ;; *************** function _map *****************
  4430 ;; Defined at:
  4431 ;;		line 22 in file "led_adapter.c"
  4432 ;; Parameters:    Size  Location     Type
  4433 ;;  x               2    4[BANK0 ] int 
  4434 ;;  in_min          2    6[BANK0 ] int 
  4435 ;;  in_max          2    8[BANK0 ] int 
  4436 ;;  out_min         2   10[BANK0 ] int 
  4437 ;;  out_max         2   12[BANK0 ] int 
  4438 ;; Auto vars:     Size  Location     Type
  4439 ;;		None
  4440 ;; Return value:  Size  Location     Type
  4441 ;;                  2    4[BANK0 ] int 
  4442 ;; Registers used:
  4443 ;;		wreg, status,2, status,0, pclath, cstack
  4444 ;; Tracked objects:
  4445 ;;		On entry : 0/0
  4446 ;;		On exit  : 0/0
  4447 ;;		Unchanged: 0/0
  4448 ;; Data sizes:     COMMON   BANK0   BANK1   BANK2   BANK3   BANK4   BANK5   BANK6   BANK7   BANK8   BANK9  BANK10  BANK1
      +1  BANK12
  4449 ;;      Params:         0      10       0       0       0       0       0       0       0       0       0       0       
      +0       0
  4450 ;;      Locals:         0       0       0       0       0       0       0       0       0       0       0       0       
      +0       0
  4451 ;;      Temps:          0       0       0       0       0       0       0       0       0       0       0       0       
      +0       0
  4452 ;;      Totals:         0      10       0       0       0       0       0       0       0       0       0       0       
      +0       0
  4453 ;;Total ram usage:       10 bytes
  4454 ;; Hardware stack levels used:    1
  4455 ;; Hardware stack levels required when called:    1
  4456 ;; This function calls:
  4457 ;;		___awdiv
  4458 ;;		___wmul
  4459 ;; This function is called by:
  4460 ;;		_set_brightness
  4461 ;;		_set_color
  4462 ;; This function uses a non-reentrant model
  4463 ;;
  4464                           
  4465                           
  4466                           ;psect for function _map
  4467  006F                     _map:
  4468  006F                     l2061:	
  4469                           ;incstack = 0
  4470                           ; Regs used in _map: [wreg+status,2+status,0+pclath+cstack]
  4471                           
  4472                           
  4473                           ;led_adapter.c: 22: static int map(int x, int in_min, int in_max, int out_min, int out_m
      +                          ax);led_adapter.c: 23: {;led_adapter.c: 24:   return (x - in_min) * (out_max - out_min) 
      +                          / (in_max - in_min) + out_min;
  4474  006F  0020               	movlb	0	; select bank0
  4475  0070  0826               	movf	map@in_min,w
  4476  0071  0228               	subwf	map@in_max,w
  4477  0072  00F6               	movwf	___awdiv@divisor
  4478  0073  0827               	movf	map@in_min+1,w
  4479  0074  3B29               	subwfb	map@in_max+1,w
  4480  0075  00F7               	movwf	___awdiv@divisor+1
  4481  0076  0826               	movf	map@in_min,w
  4482  0077  0224               	subwf	map@x,w
  4483  0078  00F0               	movwf	___wmul@multiplier
  4484  0079  0827               	movf	map@in_min+1,w
  4485  007A  3B25               	subwfb	map@x+1,w
  4486  007B  00F1               	movwf	___wmul@multiplier+1
  4487  007C  082A               	movf	map@out_min,w
  4488  007D  022C               	subwf	map@out_max,w
  4489  007E  00F2               	movwf	___wmul@multiplicand
  4490  007F  082B               	movf	map@out_min+1,w
  4491  0080  3B2D               	subwfb	map@out_max+1,w
  4492  0081  00F3               	movwf	___wmul@multiplicand+1
  4493  0082  3180  202E  3180   	fcall	___wmul
  4494  0085  0871               	movf	?___wmul+1,w
  4495  0086  00F9               	movwf	___awdiv@dividend+1
  4496  0087  0870               	movf	?___wmul,w
  4497  0088  00F8               	movwf	___awdiv@dividend
  4498  0089  3182  226E  3180   	fcall	___awdiv
  4499  008C  0020               	movlb	0	; select bank0
  4500  008D  082A               	movf	map@out_min,w
  4501  008E  0776               	addwf	?___awdiv,w
  4502  008F  00A4               	movwf	?_map
  4503  0090  082B               	movf	map@out_min+1,w
  4504  0091  3D77               	addwfc	?___awdiv+1,w
  4505  0092  00A5               	movwf	?_map+1
  4506  0093                     l285:
  4507  0093  0008               	return
  4508  0094                     __end_of_map:
  4509                           
  4510                           	psect	text8
  4511  002E                     __ptext8:	
  4512 ;; *************** function ___wmul *****************
  4513 ;; Defined at:
  4514 ;;		line 15 in file "C:\Program Files\Microchip\xc8\v2.31\pic\sources\c99\common\Umul16.c"
  4515 ;; Parameters:    Size  Location     Type
  4516 ;;  multiplier      2    0[COMMON] unsigned int 
  4517 ;;  multiplicand    2    2[COMMON] unsigned int 
  4518 ;; Auto vars:     Size  Location     Type
  4519 ;;  product         2    4[COMMON] unsigned int 
  4520 ;; Return value:  Size  Location     Type
  4521 ;;                  2    0[COMMON] unsigned int 
  4522 ;; Registers used:
  4523 ;;		wreg, status,2, status,0
  4524 ;; Tracked objects:
  4525 ;;		On entry : 0/0
  4526 ;;		On exit  : 0/0
  4527 ;;		Unchanged: 0/0
  4528 ;; Data sizes:     COMMON   BANK0   BANK1   BANK2   BANK3   BANK4   BANK5   BANK6   BANK7   BANK8   BANK9  BANK10  BANK1
      +1  BANK12
  4529 ;;      Params:         4       0       0       0       0       0       0       0       0       0       0       0       
      +0       0
  4530 ;;      Locals:         2       0       0       0       0       0       0       0       0       0       0       0       
      +0       0
  4531 ;;      Temps:          0       0       0       0       0       0       0       0       0       0       0       0       
      +0       0
  4532 ;;      Totals:         6       0       0       0       0       0       0       0       0       0       0       0       
      +0       0
  4533 ;;Total ram usage:        6 bytes
  4534 ;; Hardware stack levels used:    1
  4535 ;; This function calls:
  4536 ;;		Nothing
  4537 ;; This function is called by:
  4538 ;;		_map
  4539 ;; This function uses a non-reentrant model
  4540 ;;
  4541                           
  4542                           
  4543                           ;psect for function ___wmul
  4544  002E                     ___wmul:
  4545  002E                     l1907:	
  4546                           ;incstack = 0
  4547                           ; Regs used in ___wmul: [wreg+status,2+status,0]
  4548                           
  4549  002E  01F4               	clrf	___wmul@product
  4550  002F  01F5               	clrf	___wmul@product+1
  4551  0030                     l1909:
  4552  0030  1C70               	btfss	___wmul@multiplier,0
  4553  0031  2833               	goto	u1491
  4554  0032  2834               	goto	u1490
  4555  0033                     u1491:
  4556  0033  2838               	goto	l451
  4557  0034                     u1490:
  4558  0034                     l1911:
  4559  0034  0872               	movf	___wmul@multiplicand,w
  4560  0035  07F4               	addwf	___wmul@product,f
  4561  0036  0873               	movf	___wmul@multiplicand+1,w
  4562  0037  3DF5               	addwfc	___wmul@product+1,f
  4563  0038                     l451:
  4564  0038  3001               	movlw	1
  4565  0039                     u1505:
  4566  0039  35F2               	lslf	___wmul@multiplicand,f
  4567  003A  0DF3               	rlf	___wmul@multiplicand+1,f
  4568  003B  0B89               	decfsz	9,f
  4569  003C  2839               	goto	u1505
  4570  003D                     l1913:
  4571  003D  3001               	movlw	1
  4572  003E                     u1515:
  4573  003E  36F1               	lsrf	___wmul@multiplier+1,f
  4574  003F  0CF0               	rrf	___wmul@multiplier,f
  4575  0040  0B89               	decfsz	9,f
  4576  0041  283E               	goto	u1515
  4577  0042                     l1915:
  4578  0042  0870               	movf	___wmul@multiplier,w
  4579  0043  0471               	iorwf	___wmul@multiplier+1,w
  4580  0044  1D03               	btfss	3,2
  4581  0045  2847               	goto	u1521
  4582  0046  2848               	goto	u1520
  4583  0047                     u1521:
  4584  0047  2830               	goto	l1909
  4585  0048                     u1520:
  4586  0048                     l1917:
  4587  0048  0875               	movf	___wmul@product+1,w
  4588  0049  00F1               	movwf	?___wmul+1
  4589  004A  0874               	movf	___wmul@product,w
  4590  004B  00F0               	movwf	?___wmul
  4591  004C                     l453:
  4592  004C  0008               	return
  4593  004D                     __end_of___wmul:
  4594                           
  4595                           	psect	text9
  4596  026E                     __ptext9:	
  4597 ;; *************** function ___awdiv *****************
  4598 ;; Defined at:
  4599 ;;		line 5 in file "C:\Program Files\Microchip\xc8\v2.31\pic\sources\c99\common\awdiv.c"
  4600 ;; Parameters:    Size  Location     Type
  4601 ;;  divisor         2    6[COMMON] int 
  4602 ;;  dividend        2    8[COMMON] int 
  4603 ;; Auto vars:     Size  Location     Type
  4604 ;;  quotient        2    2[BANK0 ] int 
  4605 ;;  sign            1    1[BANK0 ] unsigned char 
  4606 ;;  counter         1    0[BANK0 ] unsigned char 
  4607 ;; Return value:  Size  Location     Type
  4608 ;;                  2    6[COMMON] int 
  4609 ;; Registers used:
  4610 ;;		wreg, status,2, status,0
  4611 ;; Tracked objects:
  4612 ;;		On entry : 0/0
  4613 ;;		On exit  : 0/0
  4614 ;;		Unchanged: 0/0
  4615 ;; Data sizes:     COMMON   BANK0   BANK1   BANK2   BANK3   BANK4   BANK5   BANK6   BANK7   BANK8   BANK9  BANK10  BANK1
      +1  BANK12
  4616 ;;      Params:         4       0       0       0       0       0       0       0       0       0       0       0       
      +0       0
  4617 ;;      Locals:         0       4       0       0       0       0       0       0       0       0       0       0       
      +0       0
  4618 ;;      Temps:          1       0       0       0       0       0       0       0       0       0       0       0       
      +0       0
  4619 ;;      Totals:         5       4       0       0       0       0       0       0       0       0       0       0       
      +0       0
  4620 ;;Total ram usage:        9 bytes
  4621 ;; Hardware stack levels used:    1
  4622 ;; This function calls:
  4623 ;;		Nothing
  4624 ;; This function is called by:
  4625 ;;		_map
  4626 ;; This function uses a non-reentrant model
  4627 ;;
  4628                           
  4629                           
  4630                           ;psect for function ___awdiv
  4631  026E                     ___awdiv:
  4632  026E                     l1921:	
  4633                           ;incstack = 0
  4634                           ; Regs used in ___awdiv: [wreg+status,2+status,0]
  4635                           
  4636  026E  0020               	movlb	0	; select bank0
  4637  026F  01A1               	clrf	___awdiv@sign
  4638  0270                     l1923:
  4639  0270  1FF7               	btfss	___awdiv@divisor+1,7
  4640  0271  2A73               	goto	u1531
  4641  0272  2A74               	goto	u1530
  4642  0273                     u1531:
  4643  0273  2A7B               	goto	l1929
  4644  0274                     u1530:
  4645  0274                     l1925:
  4646  0274  09F6               	comf	___awdiv@divisor,f
  4647  0275  09F7               	comf	___awdiv@divisor+1,f
  4648  0276  0AF6               	incf	___awdiv@divisor,f
  4649  0277  1903               	skipnz
  4650  0278  0AF7               	incf	___awdiv@divisor+1,f
  4651  0279                     l1927:
  4652  0279  01A1               	clrf	___awdiv@sign
  4653  027A  0AA1               	incf	___awdiv@sign,f
  4654  027B                     l1929:
  4655  027B  1FF9               	btfss	___awdiv@dividend+1,7
  4656  027C  2A7E               	goto	u1541
  4657  027D  2A7F               	goto	u1540
  4658  027E                     u1541:
  4659  027E  2A88               	goto	l1935
  4660  027F                     u1540:
  4661  027F                     l1931:
  4662  027F  09F8               	comf	___awdiv@dividend,f
  4663  0280  09F9               	comf	___awdiv@dividend+1,f
  4664  0281  0AF8               	incf	___awdiv@dividend,f
  4665  0282  1903               	skipnz
  4666  0283  0AF9               	incf	___awdiv@dividend+1,f
  4667  0284                     l1933:
  4668  0284  3001               	movlw	1
  4669  0285  00FA               	movwf	??___awdiv
  4670  0286  087A               	movf	??___awdiv,w
  4671  0287  06A1               	xorwf	___awdiv@sign,f
  4672  0288                     l1935:
  4673  0288  01A2               	clrf	___awdiv@quotient
  4674  0289  01A3               	clrf	___awdiv@quotient+1
  4675  028A                     l1937:
  4676  028A  0876               	movf	___awdiv@divisor,w
  4677  028B  0477               	iorwf	___awdiv@divisor+1,w
  4678  028C  1903               	btfsc	3,2
  4679  028D  2A8F               	goto	u1551
  4680  028E  2A90               	goto	u1550
  4681  028F                     u1551:
  4682  028F  2ABF               	goto	l1957
  4683  0290                     u1550:
  4684  0290                     l1939:
  4685  0290  01A0               	clrf	___awdiv@counter
  4686  0291  0AA0               	incf	___awdiv@counter,f
  4687  0292  2A9C               	goto	l1945
  4688  0293                     l1941:
  4689  0293  3001               	movlw	1
  4690  0294                     u1565:
  4691  0294  35F6               	lslf	___awdiv@divisor,f
  4692  0295  0DF7               	rlf	___awdiv@divisor+1,f
  4693  0296  0B89               	decfsz	9,f
  4694  0297  2A94               	goto	u1565
  4695  0298                     l1943:
  4696  0298  3001               	movlw	1
  4697  0299  00FA               	movwf	??___awdiv
  4698  029A  087A               	movf	??___awdiv,w
  4699  029B  07A0               	addwf	___awdiv@counter,f
  4700  029C                     l1945:
  4701  029C  1FF7               	btfss	___awdiv@divisor+1,7
  4702  029D  2A9F               	goto	u1571
  4703  029E  2AA0               	goto	u1570
  4704  029F                     u1571:
  4705  029F  2A93               	goto	l1941
  4706  02A0                     u1570:
  4707  02A0                     l1947:
  4708  02A0  3001               	movlw	1
  4709  02A1                     u1585:
  4710  02A1  35A2               	lslf	___awdiv@quotient,f
  4711  02A2  0DA3               	rlf	___awdiv@quotient+1,f
  4712  02A3  0B89               	decfsz	9,f
  4713  02A4  2AA1               	goto	u1585
  4714  02A5  0877               	movf	___awdiv@divisor+1,w
  4715  02A6  0279               	subwf	___awdiv@dividend+1,w
  4716  02A7  1D03               	skipz
  4717  02A8  2AAB               	goto	u1595
  4718  02A9  0876               	movf	___awdiv@divisor,w
  4719  02AA  0278               	subwf	___awdiv@dividend,w
  4720  02AB                     u1595:
  4721  02AB  1C03               	skipc
  4722  02AC  2AAE               	goto	u1591
  4723  02AD  2AAF               	goto	u1590
  4724  02AE                     u1591:
  4725  02AE  2AB4               	goto	l1953
  4726  02AF                     u1590:
  4727  02AF                     l1949:
  4728  02AF  0876               	movf	___awdiv@divisor,w
  4729  02B0  02F8               	subwf	___awdiv@dividend,f
  4730  02B1  0877               	movf	___awdiv@divisor+1,w
  4731  02B2  3BF9               	subwfb	___awdiv@dividend+1,f
  4732  02B3                     l1951:
  4733  02B3  1422               	bsf	___awdiv@quotient,0
  4734  02B4                     l1953:
  4735  02B4  3001               	movlw	1
  4736  02B5                     u1605:
  4737  02B5  36F7               	lsrf	___awdiv@divisor+1,f
  4738  02B6  0CF6               	rrf	___awdiv@divisor,f
  4739  02B7  0B89               	decfsz	9,f
  4740  02B8  2AB5               	goto	u1605
  4741  02B9                     l1955:
  4742  02B9  3001               	movlw	1
  4743  02BA  02A0               	subwf	___awdiv@counter,f
  4744  02BB  1D03               	btfss	3,2
  4745  02BC  2ABE               	goto	u1611
  4746  02BD  2ABF               	goto	u1610
  4747  02BE                     u1611:
  4748  02BE  2AA0               	goto	l1947
  4749  02BF                     u1610:
  4750  02BF                     l1957:
  4751  02BF  0821               	movf	___awdiv@sign,w
  4752  02C0  1903               	btfsc	3,2
  4753  02C1  2AC3               	goto	u1621
  4754  02C2  2AC4               	goto	u1620
  4755  02C3                     u1621:
  4756  02C3  2AC9               	goto	l1961
  4757  02C4                     u1620:
  4758  02C4                     l1959:
  4759  02C4  09A2               	comf	___awdiv@quotient,f
  4760  02C5  09A3               	comf	___awdiv@quotient+1,f
  4761  02C6  0AA2               	incf	___awdiv@quotient,f
  4762  02C7  1903               	skipnz
  4763  02C8  0AA3               	incf	___awdiv@quotient+1,f
  4764  02C9                     l1961:
  4765  02C9  0823               	movf	___awdiv@quotient+1,w
  4766  02CA  00F7               	movwf	?___awdiv+1
  4767  02CB  0822               	movf	___awdiv@quotient,w
  4768  02CC  00F6               	movwf	?___awdiv
  4769  02CD                     l604:
  4770  02CD  0008               	return
  4771  02CE                     __end_of___awdiv:
  4772                           
  4773                           	psect	text10
  4774  0F86                     __ptext10:	
  4775 ;; *************** function _PWM4_LoadDutyValue *****************
  4776 ;; Defined at:
  4777 ;;		line 74 in file "mcc_generated_files/pwm4.c"
  4778 ;; Parameters:    Size  Location     Type
  4779 ;;  dutyValue       2    0[COMMON] unsigned short 
  4780 ;; Auto vars:     Size  Location     Type
  4781 ;;		None
  4782 ;; Return value:  Size  Location     Type
  4783 ;;                  1    wreg      void 
  4784 ;; Registers used:
  4785 ;;		wreg, status,2, status,0
  4786 ;; Tracked objects:
  4787 ;;		On entry : 0/0
  4788 ;;		On exit  : 0/0
  4789 ;;		Unchanged: 0/0
  4790 ;; Data sizes:     COMMON   BANK0   BANK1   BANK2   BANK3   BANK4   BANK5   BANK6   BANK7   BANK8   BANK9  BANK10  BANK1
      +1  BANK12
  4791 ;;      Params:         2       0       0       0       0       0       0       0       0       0       0       0       
      +0       0
  4792 ;;      Locals:         0       0       0       0       0       0       0       0       0       0       0       0       
      +0       0
  4793 ;;      Temps:          2       0       0       0       0       0       0       0       0       0       0       0       
      +0       0
  4794 ;;      Totals:         4       0       0       0       0       0       0       0       0       0       0       0       
      +0       0
  4795 ;;Total ram usage:        4 bytes
  4796 ;; Hardware stack levels used:    1
  4797 ;; This function calls:
  4798 ;;		Nothing
  4799 ;; This function is called by:
  4800 ;;		_set_brightness
  4801 ;; This function uses a non-reentrant model
  4802 ;;
  4803                           
  4804                           
  4805                           ;psect for function _PWM4_LoadDutyValue
  4806  0F86                     _PWM4_LoadDutyValue:
  4807  0F86                     l2079:	
  4808                           ;incstack = 0
  4809                           ; Regs used in _PWM4_LoadDutyValue: [wreg+status,2+status,0]
  4810                           
  4811                           
  4812                           ;mcc_generated_files/pwm4.c: 74:  void PWM4_LoadDutyValue(uint16_t dutyValue);mcc_genera
      +                          ted_files/pwm4.c: 75:  {;mcc_generated_files/pwm4.c: 77:      PWM4DCH = (dutyValue & 0x0
      +                          3FC)>>2;
  4813  0F86  0871               	movf	PWM4_LoadDutyValue@dutyValue+1,w
  4814  0F87  00F3               	movwf	??_PWM4_LoadDutyValue+1
  4815  0F88  0870               	movf	PWM4_LoadDutyValue@dutyValue,w
  4816  0F89  00F2               	movwf	??_PWM4_LoadDutyValue
  4817  0F8A  36F3               	lsrf	??_PWM4_LoadDutyValue+1,f
  4818  0F8B  0CF2               	rrf	??_PWM4_LoadDutyValue,f
  4819  0F8C  36F3               	lsrf	??_PWM4_LoadDutyValue+1,f
  4820  0F8D  0CF2               	rrf	??_PWM4_LoadDutyValue,f
  4821  0F8E  0872               	movf	??_PWM4_LoadDutyValue,w
  4822  0F8F  002C               	movlb	12	; select bank12
  4823  0F90  009B               	movwf	27	;volatile
  4824                           
  4825                           ;mcc_generated_files/pwm4.c: 80:      PWM4DCL = (dutyValue & 0x0003)<<6;
  4826  0F91  0870               	movf	PWM4_LoadDutyValue@dutyValue,w
  4827  0F92  3903               	andlw	3
  4828  0F93  00F2               	movwf	??_PWM4_LoadDutyValue
  4829  0F94  3005               	movlw	5
  4830  0F95                     u1645:
  4831  0F95  35F2               	lslf	??_PWM4_LoadDutyValue,f
  4832  0F96  3EFF               	addlw	-1
  4833  0F97  1D03               	skipz
  4834  0F98  2F95               	goto	u1645
  4835  0F99  3572               	lslf	??_PWM4_LoadDutyValue,w
  4836  0F9A  009A               	movwf	26	;volatile
  4837  0F9B                     l369:
  4838  0F9B  0008               	return
  4839  0F9C                     __end_of_PWM4_LoadDutyValue:
  4840                           
  4841                           	psect	text11
  4842  0F70                     __ptext11:	
  4843 ;; *************** function _PWM3_LoadDutyValue *****************
  4844 ;; Defined at:
  4845 ;;		line 74 in file "mcc_generated_files/pwm3.c"
  4846 ;; Parameters:    Size  Location     Type
  4847 ;;  dutyValue       2    0[COMMON] unsigned short 
  4848 ;; Auto vars:     Size  Location     Type
  4849 ;;		None
  4850 ;; Return value:  Size  Location     Type
  4851 ;;                  1    wreg      void 
  4852 ;; Registers used:
  4853 ;;		wreg, status,2, status,0
  4854 ;; Tracked objects:
  4855 ;;		On entry : 0/0
  4856 ;;		On exit  : 0/0
  4857 ;;		Unchanged: 0/0
  4858 ;; Data sizes:     COMMON   BANK0   BANK1   BANK2   BANK3   BANK4   BANK5   BANK6   BANK7   BANK8   BANK9  BANK10  BANK1
      +1  BANK12
  4859 ;;      Params:         2       0       0       0       0       0       0       0       0       0       0       0       
      +0       0
  4860 ;;      Locals:         0       0       0       0       0       0       0       0       0       0       0       0       
      +0       0
  4861 ;;      Temps:          2       0       0       0       0       0       0       0       0       0       0       0       
      +0       0
  4862 ;;      Totals:         4       0       0       0       0       0       0       0       0       0       0       0       
      +0       0
  4863 ;;Total ram usage:        4 bytes
  4864 ;; Hardware stack levels used:    1
  4865 ;; This function calls:
  4866 ;;		Nothing
  4867 ;; This function is called by:
  4868 ;;		_set_brightness
  4869 ;; This function uses a non-reentrant model
  4870 ;;
  4871                           
  4872                           
  4873                           ;psect for function _PWM3_LoadDutyValue
  4874  0F70                     _PWM3_LoadDutyValue:
  4875  0F70                     l2077:	
  4876                           ;incstack = 0
  4877                           ; Regs used in _PWM3_LoadDutyValue: [wreg+status,2+status,0]
  4878                           
  4879                           
  4880                           ;mcc_generated_files/pwm3.c: 74:  void PWM3_LoadDutyValue(uint16_t dutyValue);mcc_genera
      +                          ted_files/pwm3.c: 75:  {;mcc_generated_files/pwm3.c: 77:      PWM3DCH = (dutyValue & 0x0
      +                          3FC)>>2;
  4881  0F70  0871               	movf	PWM3_LoadDutyValue@dutyValue+1,w
  4882  0F71  00F3               	movwf	??_PWM3_LoadDutyValue+1
  4883  0F72  0870               	movf	PWM3_LoadDutyValue@dutyValue,w
  4884  0F73  00F2               	movwf	??_PWM3_LoadDutyValue
  4885  0F74  36F3               	lsrf	??_PWM3_LoadDutyValue+1,f
  4886  0F75  0CF2               	rrf	??_PWM3_LoadDutyValue,f
  4887  0F76  36F3               	lsrf	??_PWM3_LoadDutyValue+1,f
  4888  0F77  0CF2               	rrf	??_PWM3_LoadDutyValue,f
  4889  0F78  0872               	movf	??_PWM3_LoadDutyValue,w
  4890  0F79  002C               	movlb	12	; select bank12
  4891  0F7A  0098               	movwf	24	;volatile
  4892                           
  4893                           ;mcc_generated_files/pwm3.c: 80:      PWM3DCL = (dutyValue & 0x0003)<<6;
  4894  0F7B  0870               	movf	PWM3_LoadDutyValue@dutyValue,w
  4895  0F7C  3903               	andlw	3
  4896  0F7D  00F2               	movwf	??_PWM3_LoadDutyValue
  4897  0F7E  3005               	movlw	5
  4898  0F7F                     u1635:
  4899  0F7F  35F2               	lslf	??_PWM3_LoadDutyValue,f
  4900  0F80  3EFF               	addlw	-1
  4901  0F81  1D03               	skipz
  4902  0F82  2F7F               	goto	u1635
  4903  0F83  3572               	lslf	??_PWM3_LoadDutyValue,w
  4904  0F84  0097               	movwf	23	;volatile
  4905  0F85                     l383:
  4906  0F85  0008               	return
  4907  0F86                     __end_of_PWM3_LoadDutyValue:
  4908                           
  4909                           	psect	text12
  4910  0FE7                     __ptext12:	
  4911 ;; *************** function _initialize_temp *****************
  4912 ;; Defined at:
  4913 ;;		line 40 in file "temp_sensor.c"
  4914 ;; Parameters:    Size  Location     Type
  4915 ;;  sensor_var      1    wreg     PTR struct sensor
  4916 ;;		 -> main@temp_sensor(6), 
  4917 ;; Auto vars:     Size  Location     Type
  4918 ;;  sensor_var      1    0[COMMON] PTR struct sensor
  4919 ;;		 -> main@temp_sensor(6), 
  4920 ;; Return value:  Size  Location     Type
  4921 ;;                  1    wreg      void 
  4922 ;; Registers used:
  4923 ;;		wreg, fsr1l, fsr1h, status,2, status,0
  4924 ;; Tracked objects:
  4925 ;;		On entry : 0/0
  4926 ;;		On exit  : 0/0
  4927 ;;		Unchanged: 0/0
  4928 ;; Data sizes:     COMMON   BANK0   BANK1   BANK2   BANK3   BANK4   BANK5   BANK6   BANK7   BANK8   BANK9  BANK10  BANK1
      +1  BANK12
  4929 ;;      Params:         0       0       0       0       0       0       0       0       0       0       0       0       
      +0       0
  4930 ;;      Locals:         1       0       0       0       0       0       0       0       0       0       0       0       
      +0       0
  4931 ;;      Temps:          0       0       0       0       0       0       0       0       0       0       0       0       
      +0       0
  4932 ;;      Totals:         1       0       0       0       0       0       0       0       0       0       0       0       
      +0       0
  4933 ;;Total ram usage:        1 bytes
  4934 ;; Hardware stack levels used:    1
  4935 ;; This function calls:
  4936 ;;		Nothing
  4937 ;; This function is called by:
  4938 ;;		_main
  4939 ;; This function uses a non-reentrant model
  4940 ;;
  4941                           
  4942                           
  4943                           ;psect for function _initialize_temp
  4944  0FE7                     _initialize_temp:
  4945                           
  4946                           ;incstack = 0
  4947                           ; Regs used in _initialize_temp: [wreg+fsr1l+fsr1h+status,2+status,0]
  4948                           ;initialize_temp@sensor_var stored from wreg
  4949  0FE7  00F0               	movwf	initialize_temp@sensor_var
  4950  0FE8                     l2097:
  4951                           
  4952                           ;temp_sensor.c: 40: void initialize_temp(sensor *sensor_var);temp_sensor.c: 41: {;temp_s
      +                          ensor.c: 42:   sensor_var->open = open;
  4953  0FE8  0870               	movf	initialize_temp@sensor_var,w
  4954  0FE9  0086               	movwf	6
  4955  0FEA  0187               	clrf	7
  4956  0FEB  3000               	movlw	0
  4957  0FEC  3FC0               	movwi [0]fsr1
  4958  0FED  3000               	movlw	0
  4959  0FEE  3FC1               	movwi [1]fsr1
  4960                           
  4961                           ;temp_sensor.c: 43:   sensor_var->read = read;
  4962  0FEF  0870               	movf	initialize_temp@sensor_var,w
  4963  0FF0  3E02               	addlw	2
  4964  0FF1  0086               	movwf	6
  4965  0FF2  0187               	clrf	7
  4966  0FF3  3000               	movlw	0
  4967  0FF4  3FC0               	movwi [0]fsr1
  4968  0FF5  3000               	movlw	0
  4969  0FF6  3FC1               	movwi [1]fsr1
  4970                           
  4971                           ;temp_sensor.c: 44:   sensor_var->close = close;
  4972  0FF7  0870               	movf	initialize_temp@sensor_var,w
  4973  0FF8  3E04               	addlw	4
  4974  0FF9  0086               	movwf	6
  4975  0FFA  0187               	clrf	7
  4976  0FFB  3000               	movlw	0
  4977  0FFC  3FC0               	movwi [0]fsr1
  4978  0FFD  3000               	movlw	0
  4979  0FFE  3FC1               	movwi [1]fsr1
  4980  0FFF                     l260:
  4981  0FFF  0008               	return
  4982  1000                     __end_of_initialize_temp:
  4983                           
  4984                           	psect	text13
  4985  0FCE                     __ptext13:	
  4986 ;; *************** function _initialize_light *****************
  4987 ;; Defined at:
  4988 ;;		line 33 in file "light_sensor.c"
  4989 ;; Parameters:    Size  Location     Type
  4990 ;;  sensor_var      1    wreg     PTR struct sensor
  4991 ;;		 -> main@light_sensor(6), 
  4992 ;; Auto vars:     Size  Location     Type
  4993 ;;  sensor_var      1    0[COMMON] PTR struct sensor
  4994 ;;		 -> main@light_sensor(6), 
  4995 ;; Return value:  Size  Location     Type
  4996 ;;                  1    wreg      void 
  4997 ;; Registers used:
  4998 ;;		wreg, fsr1l, fsr1h, status,2, status,0
  4999 ;; Tracked objects:
  5000 ;;		On entry : 0/0
  5001 ;;		On exit  : 0/0
  5002 ;;		Unchanged: 0/0
  5003 ;; Data sizes:     COMMON   BANK0   BANK1   BANK2   BANK3   BANK4   BANK5   BANK6   BANK7   BANK8   BANK9  BANK10  BANK1
      +1  BANK12
  5004 ;;      Params:         0       0       0       0       0       0       0       0       0       0       0       0       
      +0       0
  5005 ;;      Locals:         1       0       0       0       0       0       0       0       0       0       0       0       
      +0       0
  5006 ;;      Temps:          0       0       0       0       0       0       0       0       0       0       0       0       
      +0       0
  5007 ;;      Totals:         1       0       0       0       0       0       0       0       0       0       0       0       
      +0       0
  5008 ;;Total ram usage:        1 bytes
  5009 ;; Hardware stack levels used:    1
  5010 ;; This function calls:
  5011 ;;		Nothing
  5012 ;; This function is called by:
  5013 ;;		_main
  5014 ;; This function uses a non-reentrant model
  5015 ;;
  5016                           
  5017                           
  5018                           ;psect for function _initialize_light
  5019  0FCE                     _initialize_light:
  5020                           
  5021                           ;incstack = 0
  5022                           ; Regs used in _initialize_light: [wreg+fsr1l+fsr1h+status,2+status,0]
  5023                           ;initialize_light@sensor_var stored from wreg
  5024  0FCE  00F0               	movwf	initialize_light@sensor_var
  5025  0FCF                     l2095:
  5026                           
  5027                           ;light_sensor.c: 33: void initialize_light(sensor *sensor_var);light_sensor.c: 34: {;lig
      +                          ht_sensor.c: 35:   sensor_var->open = open;
  5028  0FCF  0870               	movf	initialize_light@sensor_var,w
  5029  0FD0  0086               	movwf	6
  5030  0FD1  0187               	clrf	7
  5031  0FD2  3000               	movlw	0
  5032  0FD3  3FC0               	movwi [0]fsr1
  5033  0FD4  3000               	movlw	0
  5034  0FD5  3FC1               	movwi [1]fsr1
  5035                           
  5036                           ;light_sensor.c: 36:   sensor_var->read = read;
  5037  0FD6  0870               	movf	initialize_light@sensor_var,w
  5038  0FD7  3E02               	addlw	2
  5039  0FD8  0086               	movwf	6
  5040  0FD9  0187               	clrf	7
  5041  0FDA  3000               	movlw	0
  5042  0FDB  3FC0               	movwi [0]fsr1
  5043  0FDC  3000               	movlw	0
  5044  0FDD  3FC1               	movwi [1]fsr1
  5045                           
  5046                           ;light_sensor.c: 37:   sensor_var->close = close;
  5047  0FDE  0870               	movf	initialize_light@sensor_var,w
  5048  0FDF  3E04               	addlw	4
  5049  0FE0  0086               	movwf	6
  5050  0FE1  0187               	clrf	7
  5051  0FE2  3000               	movlw	0
  5052  0FE3  3FC0               	movwi [0]fsr1
  5053  0FE4  3000               	movlw	0
  5054  0FE5  3FC1               	movwi [1]fsr1
  5055  0FE6                     l245:
  5056  0FE6  0008               	return
  5057  0FE7                     __end_of_initialize_light:
  5058                           
  5059                           	psect	text14
  5060  0F23                     __ptext14:	
  5061 ;; *************** function _initialize_led *****************
  5062 ;; Defined at:
  5063 ;;		line 95 in file "led_adapter.c"
  5064 ;; Parameters:    Size  Location     Type
  5065 ;;  led             1    wreg     PTR struct led
  5066 ;;		 -> main@led(4), 
  5067 ;; Auto vars:     Size  Location     Type
  5068 ;;  led             1    0[COMMON] PTR struct led
  5069 ;;		 -> main@led(4), 
  5070 ;; Return value:  Size  Location     Type
  5071 ;;                  1    wreg      void 
  5072 ;; Registers used:
  5073 ;;		wreg, fsr1l, fsr1h, status,2, status,0
  5074 ;; Tracked objects:
  5075 ;;		On entry : 0/0
  5076 ;;		On exit  : 0/0
  5077 ;;		Unchanged: 0/0
  5078 ;; Data sizes:     COMMON   BANK0   BANK1   BANK2   BANK3   BANK4   BANK5   BANK6   BANK7   BANK8   BANK9  BANK10  BANK1
      +1  BANK12
  5079 ;;      Params:         0       0       0       0       0       0       0       0       0       0       0       0       
      +0       0
  5080 ;;      Locals:         1       0       0       0       0       0       0       0       0       0       0       0       
      +0       0
  5081 ;;      Temps:          0       0       0       0       0       0       0       0       0       0       0       0       
      +0       0
  5082 ;;      Totals:         1       0       0       0       0       0       0       0       0       0       0       0       
      +0       0
  5083 ;;Total ram usage:        1 bytes
  5084 ;; Hardware stack levels used:    1
  5085 ;; This function calls:
  5086 ;;		Nothing
  5087 ;; This function is called by:
  5088 ;;		_main
  5089 ;; This function uses a non-reentrant model
  5090 ;;
  5091                           
  5092                           
  5093                           ;psect for function _initialize_led
  5094  0F23                     _initialize_led:
  5095                           
  5096                           ;incstack = 0
  5097                           ; Regs used in _initialize_led: [wreg+fsr1l+fsr1h+status,2+status,0]
  5098                           ;initialize_led@led stored from wreg
  5099  0F23  00F0               	movwf	initialize_led@led
  5100  0F24                     l2101:
  5101                           
  5102                           ;led_adapter.c: 95: void initialize_led(led *led);led_adapter.c: 96: {;led_adapter.c: 97
      +                          :   led->set_brightness = set_brightness;
  5103  0F24  0870               	movf	initialize_led@led,w
  5104  0F25  0086               	movwf	6
  5105  0F26  0187               	clrf	7
  5106  0F27  3077               	movlw	low _set_brightness
  5107  0F28  3FC0               	movwi [0]fsr1
  5108  0F29  3001               	movlw	high _set_brightness
  5109  0F2A  3FC1               	movwi [1]fsr1
  5110                           
  5111                           ;led_adapter.c: 98:   led->set_color = set_color;
  5112  0F2B  0870               	movf	initialize_led@led,w
  5113  0F2C  3E02               	addlw	2
  5114  0F2D  0086               	movwf	6
  5115  0F2E  0187               	clrf	7
  5116  0F2F  30CE               	movlw	low _set_color
  5117  0F30  3FC0               	movwi [0]fsr1
  5118  0F31  3002               	movlw	high _set_color
  5119  0F32  3FC1               	movwi [1]fsr1
  5120  0F33                     l323:
  5121  0F33  0008               	return
  5122  0F34                     __end_of_initialize_led:
  5123                           
  5124                           	psect	text15
  5125  0FB5                     __ptext15:	
  5126 ;; *************** function _initialize_lcd_screen *****************
  5127 ;; Defined at:
  5128 ;;		line 31 in file "lcd_screen.c"
  5129 ;; Parameters:    Size  Location     Type
  5130 ;;  lcd_screen_v    1    wreg     PTR struct lcd_screen
  5131 ;;		 -> main@lcd_screen(6), 
  5132 ;; Auto vars:     Size  Location     Type
  5133 ;;  lcd_screen_v    1    0[COMMON] PTR struct lcd_screen
  5134 ;;		 -> main@lcd_screen(6), 
  5135 ;; Return value:  Size  Location     Type
  5136 ;;                  1    wreg      void 
  5137 ;; Registers used:
  5138 ;;		wreg, fsr1l, fsr1h, status,2, status,0
  5139 ;; Tracked objects:
  5140 ;;		On entry : 0/0
  5141 ;;		On exit  : 0/0
  5142 ;;		Unchanged: 0/0
  5143 ;; Data sizes:     COMMON   BANK0   BANK1   BANK2   BANK3   BANK4   BANK5   BANK6   BANK7   BANK8   BANK9  BANK10  BANK1
      +1  BANK12
  5144 ;;      Params:         0       0       0       0       0       0       0       0       0       0       0       0       
      +0       0
  5145 ;;      Locals:         1       0       0       0       0       0       0       0       0       0       0       0       
      +0       0
  5146 ;;      Temps:          0       0       0       0       0       0       0       0       0       0       0       0       
      +0       0
  5147 ;;      Totals:         1       0       0       0       0       0       0       0       0       0       0       0       
      +0       0
  5148 ;;Total ram usage:        1 bytes
  5149 ;; Hardware stack levels used:    1
  5150 ;; This function calls:
  5151 ;;		Nothing
  5152 ;; This function is called by:
  5153 ;;		_main
  5154 ;; This function uses a non-reentrant model
  5155 ;;
  5156                           
  5157                           
  5158                           ;psect for function _initialize_lcd_screen
  5159  0FB5                     _initialize_lcd_screen:
  5160                           
  5161                           ;incstack = 0
  5162                           ; Regs used in _initialize_lcd_screen: [wreg+fsr1l+fsr1h+status,2+status,0]
  5163                           ;initialize_lcd_screen@lcd_screen_var stored from wreg
  5164  0FB5  00F0               	movwf	initialize_lcd_screen@lcd_screen_var
  5165  0FB6                     l2099:
  5166                           
  5167                           ;lcd_screen.c: 31: void initialize_lcd_screen(lcd_screen *lcd_screen_var);lcd_screen.c: 
      +                          32: {;lcd_screen.c: 33:   lcd_screen_var->demo1 = demo1;
  5168  0FB6  0870               	movf	initialize_lcd_screen@lcd_screen_var,w
  5169  0FB7  0086               	movwf	6
  5170  0FB8  0187               	clrf	7
  5171  0FB9  30C2               	movlw	low _demo1
  5172  0FBA  3FC0               	movwi [0]fsr1
  5173  0FBB  300E               	movlw	high _demo1
  5174  0FBC  3FC1               	movwi [1]fsr1
  5175                           
  5176                           ;lcd_screen.c: 34:   lcd_screen_var->demo2 = demo2;
  5177  0FBD  0870               	movf	initialize_lcd_screen@lcd_screen_var,w
  5178  0FBE  3E02               	addlw	2
  5179  0FBF  0086               	movwf	6
  5180  0FC0  0187               	clrf	7
  5181  0FC1  30CB               	movlw	low _demo2
  5182  0FC2  3FC0               	movwi [0]fsr1
  5183  0FC3  300E               	movlw	high _demo2
  5184  0FC4  3FC1               	movwi [1]fsr1
  5185                           
  5186                           ;lcd_screen.c: 35:   lcd_screen_var->demo3 = demo3;
  5187  0FC5  0870               	movf	initialize_lcd_screen@lcd_screen_var,w
  5188  0FC6  3E04               	addlw	4
  5189  0FC7  0086               	movwf	6
  5190  0FC8  0187               	clrf	7
  5191  0FC9  30D4               	movlw	low _demo3
  5192  0FCA  3FC0               	movwi [0]fsr1
  5193  0FCB  300E               	movlw	high _demo3
  5194  0FCC  3FC1               	movwi [1]fsr1
  5195  0FCD                     l274:
  5196  0FCD  0008               	return
  5197  0FCE                     __end_of_initialize_lcd_screen:
  5198                           
  5199                           	psect	text16
  5200  0ED4                     __ptext16:	
  5201 ;; *************** function _demo3 *****************
  5202 ;; Defined at:
  5203 ;;		line 26 in file "lcd_screen.c"
  5204 ;; Parameters:    Size  Location     Type
  5205 ;;		None
  5206 ;; Auto vars:     Size  Location     Type
  5207 ;;		None
  5208 ;; Return value:  Size  Location     Type
  5209 ;;                  1    wreg      void 
  5210 ;; Registers used:
  5211 ;;		wreg, fsr0l, fsr0h, fsr1l, fsr1h, status,2, status,0, pclath, cstack
  5212 ;; Tracked objects:
  5213 ;;		On entry : 0/0
  5214 ;;		On exit  : 0/0
  5215 ;;		Unchanged: 0/0
  5216 ;; Data sizes:     COMMON   BANK0   BANK1   BANK2   BANK3   BANK4   BANK5   BANK6   BANK7   BANK8   BANK9  BANK10  BANK1
      +1  BANK12
  5217 ;;      Params:         0       0       0       0       0       0       0       0       0       0       0       0       
      +0       0
  5218 ;;      Locals:         0       0       0       0       0       0       0       0       0       0       0       0       
      +0       0
  5219 ;;      Temps:          0       0       0       0       0       0       0       0       0       0       0       0       
      +0       0
  5220 ;;      Totals:         0       0       0       0       0       0       0       0       0       0       0       0       
      +0       0
  5221 ;;Total ram usage:        0 bytes
  5222 ;; Hardware stack levels used:    1
  5223 ;; Hardware stack levels required when called:    9
  5224 ;; This function calls:
  5225 ;;		_printf
  5226 ;; This function is called by:
  5227 ;;		_initialize_lcd_screen
  5228 ;;		_main
  5229 ;; This function uses a non-reentrant model
  5230 ;;
  5231                           
  5232                           
  5233                           ;psect for function _demo3
  5234  0ED4                     _demo3:
  5235  0ED4                     l2107:	
  5236                           ;incstack = 0
  5237                           ; Regs used in _demo3: [wreg-fsr1h+status,2+status,0+pclath+cstack]
  5238                           
  5239                           
  5240                           ;lcd_screen.c: 28:   printf("Demo 3!\n");
  5241  0ED4  30D6               	movlw	low (STR_10| (0+32768))
  5242  0ED5  0020               	movlb	0	; select bank0
  5243  0ED6  00E6               	movwf	printf@fmt
  5244  0ED7  3090               	movlw	high (STR_10| (0+32768))
  5245  0ED8  00E7               	movwf	printf@fmt+1
  5246  0ED9  318F  2734  318E   	fcall	_printf
  5247  0EDC                     l271:
  5248  0EDC  0008               	return
  5249  0EDD                     __end_of_demo3:
  5250                           
  5251                           	psect	text17
  5252  0ECB                     __ptext17:	
  5253 ;; *************** function _demo2 *****************
  5254 ;; Defined at:
  5255 ;;		line 21 in file "lcd_screen.c"
  5256 ;; Parameters:    Size  Location     Type
  5257 ;;		None
  5258 ;; Auto vars:     Size  Location     Type
  5259 ;;		None
  5260 ;; Return value:  Size  Location     Type
  5261 ;;                  1    wreg      void 
  5262 ;; Registers used:
  5263 ;;		wreg, fsr0l, fsr0h, fsr1l, fsr1h, status,2, status,0, pclath, cstack
  5264 ;; Tracked objects:
  5265 ;;		On entry : 0/0
  5266 ;;		On exit  : 0/0
  5267 ;;		Unchanged: 0/0
  5268 ;; Data sizes:     COMMON   BANK0   BANK1   BANK2   BANK3   BANK4   BANK5   BANK6   BANK7   BANK8   BANK9  BANK10  BANK1
      +1  BANK12
  5269 ;;      Params:         0       0       0       0       0       0       0       0       0       0       0       0       
      +0       0
  5270 ;;      Locals:         0       0       0       0       0       0       0       0       0       0       0       0       
      +0       0
  5271 ;;      Temps:          0       0       0       0       0       0       0       0       0       0       0       0       
      +0       0
  5272 ;;      Totals:         0       0       0       0       0       0       0       0       0       0       0       0       
      +0       0
  5273 ;;Total ram usage:        0 bytes
  5274 ;; Hardware stack levels used:    1
  5275 ;; Hardware stack levels required when called:    9
  5276 ;; This function calls:
  5277 ;;		_printf
  5278 ;; This function is called by:
  5279 ;;		_initialize_lcd_screen
  5280 ;;		_main
  5281 ;; This function uses a non-reentrant model
  5282 ;;
  5283                           
  5284                           
  5285                           ;psect for function _demo2
  5286  0ECB                     _demo2:
  5287  0ECB                     l2105:	
  5288                           ;incstack = 0
  5289                           ; Regs used in _demo2: [wreg-fsr1h+status,2+status,0+pclath+cstack]
  5290                           
  5291                           
  5292                           ;lcd_screen.c: 23:   printf("Demo 2!\n");
  5293  0ECB  30CD               	movlw	low (STR_9| (0+32768))
  5294  0ECC  0020               	movlb	0	; select bank0
  5295  0ECD  00E6               	movwf	printf@fmt
  5296  0ECE  3090               	movlw	high (STR_9| (0+32768))
  5297  0ECF  00E7               	movwf	printf@fmt+1
  5298  0ED0  318F  2734  318E   	fcall	_printf
  5299  0ED3                     l268:
  5300  0ED3  0008               	return
  5301  0ED4                     __end_of_demo2:
  5302                           
  5303                           	psect	text18
  5304  0EC2                     __ptext18:	
  5305 ;; *************** function _demo1 *****************
  5306 ;; Defined at:
  5307 ;;		line 16 in file "lcd_screen.c"
  5308 ;; Parameters:    Size  Location     Type
  5309 ;;		None
  5310 ;; Auto vars:     Size  Location     Type
  5311 ;;		None
  5312 ;; Return value:  Size  Location     Type
  5313 ;;                  1    wreg      void 
  5314 ;; Registers used:
  5315 ;;		wreg, fsr0l, fsr0h, fsr1l, fsr1h, status,2, status,0, pclath, cstack
  5316 ;; Tracked objects:
  5317 ;;		On entry : 0/0
  5318 ;;		On exit  : 0/0
  5319 ;;		Unchanged: 0/0
  5320 ;; Data sizes:     COMMON   BANK0   BANK1   BANK2   BANK3   BANK4   BANK5   BANK6   BANK7   BANK8   BANK9  BANK10  BANK1
      +1  BANK12
  5321 ;;      Params:         0       0       0       0       0       0       0       0       0       0       0       0       
      +0       0
  5322 ;;      Locals:         0       0       0       0       0       0       0       0       0       0       0       0       
      +0       0
  5323 ;;      Temps:          0       0       0       0       0       0       0       0       0       0       0       0       
      +0       0
  5324 ;;      Totals:         0       0       0       0       0       0       0       0       0       0       0       0       
      +0       0
  5325 ;;Total ram usage:        0 bytes
  5326 ;; Hardware stack levels used:    1
  5327 ;; Hardware stack levels required when called:    9
  5328 ;; This function calls:
  5329 ;;		_printf
  5330 ;; This function is called by:
  5331 ;;		_initialize_lcd_screen
  5332 ;;		_main
  5333 ;; This function uses a non-reentrant model
  5334 ;;
  5335                           
  5336                           
  5337                           ;psect for function _demo1
  5338  0EC2                     _demo1:
  5339  0EC2                     l2103:	
  5340                           ;incstack = 0
  5341                           ; Regs used in _demo1: [wreg-fsr1h+status,2+status,0+pclath+cstack]
  5342                           
  5343                           
  5344                           ;lcd_screen.c: 18:   printf("Demo 1!\n");
  5345  0EC2  30C4               	movlw	low (STR_8| (0+32768))
  5346  0EC3  0020               	movlb	0	; select bank0
  5347  0EC4  00E6               	movwf	printf@fmt
  5348  0EC5  3090               	movlw	high (STR_8| (0+32768))
  5349  0EC6  00E7               	movwf	printf@fmt+1
  5350  0EC7  318F  2734  318E   	fcall	_printf
  5351  0ECA                     l265:
  5352  0ECA  0008               	return
  5353  0ECB                     __end_of_demo1:
  5354                           
  5355                           	psect	text19
  5356  0F34                     __ptext19:	
  5357 ;; *************** function _printf *****************
  5358 ;; Defined at:
  5359 ;;		line 5 in file "C:\Program Files\Microchip\xc8\v2.31\pic\sources\c99\common\printf.c"
  5360 ;; Parameters:    Size  Location     Type
  5361 ;;  fmt             2   70[BANK0 ] PTR const unsigned char 
  5362 ;;		 -> STR_15(19), STR_14(27), STR_13(15), STR_12(17), 
  5363 ;;		 -> STR_11(16), STR_10(9), STR_9(9), STR_8(9), 
  5364 ;;		 -> STR_7(21), STR_6(21), STR_5(29), STR_4(21), 
  5365 ;;		 -> STR_3(22), STR_2(22), STR_1(22), 
  5366 ;; Auto vars:     Size  Location     Type
  5367 ;;  ret             2    0        int 
  5368 ;;  ap              1   77[BANK0 ] PTR void [1]
  5369 ;;		 -> ?_printf(2), 
  5370 ;; Return value:  Size  Location     Type
  5371 ;;                  2   70[BANK0 ] int 
  5372 ;; Registers used:
  5373 ;;		wreg, fsr0l, fsr0h, fsr1l, fsr1h, status,2, status,0, pclath, cstack
  5374 ;; Tracked objects:
  5375 ;;		On entry : 0/0
  5376 ;;		On exit  : 0/0
  5377 ;;		Unchanged: 0/0
  5378 ;; Data sizes:     COMMON   BANK0   BANK1   BANK2   BANK3   BANK4   BANK5   BANK6   BANK7   BANK8   BANK9  BANK10  BANK1
      +1  BANK12
  5379 ;;      Params:         0       4       0       0       0       0       0       0       0       0       0       0       
      +0       0
  5380 ;;      Locals:         0       3       0       0       0       0       0       0       0       0       0       0       
      +0       0
  5381 ;;      Temps:          0       1       0       0       0       0       0       0       0       0       0       0       
      +0       0
  5382 ;;      Totals:         0       8       0       0       0       0       0       0       0       0       0       0       
      +0       0
  5383 ;;Total ram usage:        8 bytes
  5384 ;; Hardware stack levels used:    1
  5385 ;; Hardware stack levels required when called:    8
  5386 ;; This function calls:
  5387 ;;		_vfprintf
  5388 ;; This function is called by:
  5389 ;;		_demo1
  5390 ;;		_demo2
  5391 ;;		_demo3
  5392 ;;		_turn_blue
  5393 ;;		_turn_green
  5394 ;;		_turn_red
  5395 ;;		_set_brightness
  5396 ;;		_open
  5397 ;;		_read
  5398 ;;		_close
  5399 ;;		_open@temp_sensor$F427
  5400 ;;		_read@temp_sensor$F431
  5401 ;;		_close@temp_sensor$F433
  5402 ;; This function uses a non-reentrant model
  5403 ;;
  5404                           
  5405                           
  5406                           ;psect for function _printf
  5407  0F34                     _printf:
  5408  0F34                     l1897:	
  5409                           ;incstack = 0
  5410                           ; Regs used in _printf: [wreg-fsr1h+status,2+status,0+pclath+cstack]
  5411                           
  5412  0F34  3068               	movlw	(low ((?_printf| 0+2)))& (0+255)
  5413  0F35  0020               	movlb	0	; select bank0
  5414  0F36  00EA               	movwf	??_printf
  5415  0F37  086A               	movf	??_printf,w
  5416  0F38  00ED               	movwf	printf@ap
  5417  0F39                     l1899:
  5418  0F39  0867               	movf	printf@fmt+1,w
  5419  0F3A  00DF               	movwf	vfprintf@fmt+1
  5420  0F3B  0866               	movf	printf@fmt,w
  5421  0F3C  00DE               	movwf	vfprintf@fmt
  5422  0F3D  306D               	movlw	(low (printf@ap| 0))& (0+255)
  5423  0F3E  00EA               	movwf	??_printf
  5424  0F3F  086A               	movf	??_printf,w
  5425  0F40  00E0               	movwf	vfprintf@ap
  5426  0F41  3000               	movlw	0
  5427  0F42  3180  20BC  318F   	fcall	_vfprintf
  5428  0F45                     l914:
  5429  0F45  0008               	return
  5430  0F46                     __end_of_printf:
  5431                           
  5432                           	psect	text20
  5433  00BC                     __ptext20:	
  5434 ;; *************** function _vfprintf *****************
  5435 ;; Defined at:
  5436 ;;		line 1390 in file "C:\Program Files\Microchip\xc8\v2.31\pic\sources\c99\common\doprnt.c"
  5437 ;; Parameters:    Size  Location     Type
  5438 ;;  fp              1    wreg     PTR struct _IO_FILE
  5439 ;;		 -> NULL(0), 
  5440 ;;  fmt             2   62[BANK0 ] PTR const unsigned char 
  5441 ;;		 -> STR_15(19), STR_14(27), STR_13(15), STR_12(17), 
  5442 ;;		 -> STR_11(16), STR_10(9), STR_9(9), STR_8(9), 
  5443 ;;		 -> STR_7(21), STR_6(21), STR_5(29), STR_4(21), 
  5444 ;;		 -> STR_3(22), STR_2(22), STR_1(22), 
  5445 ;;  ap              1   64[BANK0 ] PTR PTR void 
  5446 ;;		 -> printf@ap(1), 
  5447 ;; Auto vars:     Size  Location     Type
  5448 ;;  fp              1   67[BANK0 ] PTR struct _IO_FILE
  5449 ;;		 -> NULL(0), 
  5450 ;;  cfmt            2   68[BANK0 ] PTR unsigned char 
  5451 ;;		 -> STR_15(19), STR_14(27), STR_13(15), STR_12(17), 
  5452 ;;		 -> STR_11(16), STR_10(9), STR_9(9), STR_8(9), 
  5453 ;;		 -> STR_7(21), STR_6(21), STR_5(29), STR_4(21), 
  5454 ;;		 -> STR_3(22), STR_2(22), STR_1(22), 
  5455 ;; Return value:  Size  Location     Type
  5456 ;;                  2   62[BANK0 ] int 
  5457 ;; Registers used:
  5458 ;;		wreg, fsr0l, fsr0h, fsr1l, fsr1h, status,2, status,0, pclath, cstack
  5459 ;; Tracked objects:
  5460 ;;		On entry : 0/0
  5461 ;;		On exit  : 0/0
  5462 ;;		Unchanged: 0/0
  5463 ;; Data sizes:     COMMON   BANK0   BANK1   BANK2   BANK3   BANK4   BANK5   BANK6   BANK7   BANK8   BANK9  BANK10  BANK1
      +1  BANK12
  5464 ;;      Params:         0       3       0       0       0       0       0       0       0       0       0       0       
      +0       0
  5465 ;;      Locals:         0       3       0       0       0       0       0       0       0       0       0       0       
      +0       0
  5466 ;;      Temps:          0       2       0       0       0       0       0       0       0       0       0       0       
      +0       0
  5467 ;;      Totals:         0       8       0       0       0       0       0       0       0       0       0       0       
      +0       0
  5468 ;;Total ram usage:        8 bytes
  5469 ;; Hardware stack levels used:    1
  5470 ;; Hardware stack levels required when called:    7
  5471 ;; This function calls:
  5472 ;;		_vfpfcnvrt
  5473 ;; This function is called by:
  5474 ;;		_printf
  5475 ;; This function uses a non-reentrant model
  5476 ;;
  5477                           
  5478                           
  5479                           ;psect for function _vfprintf
  5480  00BC                     _vfprintf:
  5481                           
  5482                           ;incstack = 0
  5483                           ; Regs used in _vfprintf: [wreg-fsr1h+status,2+status,0+pclath+cstack]
  5484                           ;vfprintf@fp stored from wreg
  5485  00BC  0020               	movlb	0	; select bank0
  5486  00BD  00E3               	movwf	vfprintf@fp
  5487  00BE                     l1879:
  5488                           
  5489                           ;C:\Program Files\Microchip\xc8\v2.31\pic\sources\c99\common\doprnt.c: 1390: int vfprint
      +                          f(FILE *fp, const char *fmt, va_list ap);C:\Program Files\Microchip\xc8\v2.31\pic\source
      +                          s\c99\common\doprnt.c: 1391: {;C:\Program Files\Microchip\xc8\v2.31\pic\sources\c99\comm
      +                          on\doprnt.c: 1393:     char *cfmt;;C:\Program Files\Microchip\xc8\v2.31\pic\sources\c99\
      +                          common\doprnt.c: 1395:     cfmt = (char *)fmt;
  5490  00BE  085F               	movf	vfprintf@fmt+1,w
  5491  00BF  00E5               	movwf	vfprintf@cfmt+1
  5492  00C0  085E               	movf	vfprintf@fmt,w
  5493  00C1  00E4               	movwf	vfprintf@cfmt
  5494  00C2                     l1881:
  5495                           
  5496                           ;C:\Program Files\Microchip\xc8\v2.31\pic\sources\c99\common\doprnt.c: 1396:     nout = 
      +                          0;
  5497  00C2  0021               	movlb	1	; select bank1
  5498  00C3  01A0               	clrf	_nout^(0+128)
  5499  00C4  01A1               	clrf	(_nout+1)^(0+128)
  5500                           
  5501                           ;C:\Program Files\Microchip\xc8\v2.31\pic\sources\c99\common\doprnt.c: 1397:     while (
      +                          *cfmt) {
  5502  00C5  28DA               	goto	l1885
  5503  00C6                     l1883:
  5504                           
  5505                           ;C:\Program Files\Microchip\xc8\v2.31\pic\sources\c99\common\doprnt.c: 1398:         nou
      +                          t += vfpfcnvrt(fp, &cfmt, ap);
  5506  00C6  3064               	movlw	(low (vfprintf@cfmt| 0))& (0+255)
  5507  00C7  00E1               	movwf	??_vfprintf
  5508  00C8  0861               	movf	??_vfprintf,w
  5509  00C9  00CE               	movwf	vfpfcnvrt@fmt
  5510  00CA  0860               	movf	vfprintf@ap,w
  5511  00CB  00E2               	movwf	??_vfprintf+1
  5512  00CC  0862               	movf	??_vfprintf+1,w
  5513  00CD  00CF               	movwf	vfpfcnvrt@ap
  5514  00CE  0863               	movf	vfprintf@fp,w
  5515  00CF  3183  23C1  3180   	fcall	_vfpfcnvrt
  5516  00D2  0020               	movlb	0	; select bank0
  5517  00D3  084E               	movf	?_vfpfcnvrt,w
  5518  00D4  0021               	movlb	1	; select bank1
  5519  00D5  07A0               	addwf	_nout^(0+128),f
  5520  00D6  0020               	movlb	0	; select bank0
  5521  00D7  084F               	movf	?_vfpfcnvrt+1,w
  5522  00D8  0021               	movlb	1	; select bank1
  5523  00D9  3DA1               	addwfc	(_nout+1)^(0+128),f
  5524  00DA                     l1885:
  5525                           
  5526                           ;C:\Program Files\Microchip\xc8\v2.31\pic\sources\c99\common\doprnt.c: 1397:     while (
      +                          *cfmt) {
  5527  00DA  0020               	movlb	0	; select bank0
  5528  00DB  0864               	movf	vfprintf@cfmt,w
  5529  00DC  0084               	movwf	4
  5530  00DD  0865               	movf	vfprintf@cfmt+1,w
  5531  00DE  0085               	movwf	5
  5532  00DF  0012               	moviw fsr0++
  5533  00E0  1D03               	btfss	3,2
  5534  00E1  28E3               	goto	u1461
  5535  00E2  28E4               	goto	u1460
  5536  00E3                     u1461:
  5537  00E3  28C6               	goto	l1883
  5538  00E4                     u1460:
  5539  00E4                     l1887:
  5540                           
  5541                           ;C:\Program Files\Microchip\xc8\v2.31\pic\sources\c99\common\doprnt.c: 1400:     return 
      +                          nout;
  5542  00E4  0021               	movlb	1	; select bank1
  5543  00E5  0821               	movf	(_nout+1)^(0+128),w
  5544  00E6  0020               	movlb	0	; select bank0
  5545  00E7  00DF               	movwf	?_vfprintf+1
  5546  00E8  0021               	movlb	1	; select bank1
  5547  00E9  0820               	movf	_nout^(0+128),w
  5548  00EA  0020               	movlb	0	; select bank0
  5549  00EB  00DE               	movwf	?_vfprintf
  5550  00EC                     l986:
  5551  00EC  0008               	return
  5552  00ED                     __end_of_vfprintf:
  5553                           
  5554                           	psect	text21
  5555  03C1                     __ptext21:	
  5556 ;; *************** function _vfpfcnvrt *****************
  5557 ;; Defined at:
  5558 ;;		line 692 in file "C:\Program Files\Microchip\xc8\v2.31\pic\sources\c99\common\doprnt.c"
  5559 ;; Parameters:    Size  Location     Type
  5560 ;;  fp              1    wreg     PTR struct _IO_FILE
  5561 ;;		 -> NULL(0), 
  5562 ;;  fmt             1   46[BANK0 ] PTR PTR unsigned char 
  5563 ;;		 -> vfprintf@cfmt(2), 
  5564 ;;  ap              1   47[BANK0 ] PTR PTR void 
  5565 ;;		 -> printf@ap(1), 
  5566 ;; Auto vars:     Size  Location     Type
  5567 ;;  fp              1   61[BANK0 ] PTR struct _IO_FILE
  5568 ;;		 -> NULL(0), 
  5569 ;;  ll              8   53[BANK0 ] long long 
  5570 ;;  llu             8    0        unsigned long long 
  5571 ;;  f               4    0        unsigned long long 
  5572 ;;  ct              3    0        unsigned char [3]
  5573 ;;  vp              2    0        PTR void 
  5574 ;;  i               2    0        int 
  5575 ;;  done            2    0        int 
  5576 ;;  cp              2    0        PTR unsigned char 
  5577 ;;  c               1    0        unsigned char 
  5578 ;; Return value:  Size  Location     Type
  5579 ;;                  2   46[BANK0 ] int 
  5580 ;; Registers used:
  5581 ;;		wreg, fsr0l, fsr0h, fsr1l, fsr1h, status,2, status,0, pclath, cstack
  5582 ;; Tracked objects:
  5583 ;;		On entry : 0/0
  5584 ;;		On exit  : 0/0
  5585 ;;		Unchanged: 0/0
  5586 ;; Data sizes:     COMMON   BANK0   BANK1   BANK2   BANK3   BANK4   BANK5   BANK6   BANK7   BANK8   BANK9  BANK10  BANK1
      +1  BANK12
  5587 ;;      Params:         0       2       0       0       0       0       0       0       0       0       0       0       
      +0       0
  5588 ;;      Locals:         0       9       0       0       0       0       0       0       0       0       0       0       
      +0       0
  5589 ;;      Temps:          0       5       0       0       0       0       0       0       0       0       0       0       
      +0       0
  5590 ;;      Totals:         0      16       0       0       0       0       0       0       0       0       0       0       
      +0       0
  5591 ;;Total ram usage:       16 bytes
  5592 ;; Hardware stack levels used:    1
  5593 ;; Hardware stack levels required when called:    6
  5594 ;; This function calls:
  5595 ;;		_dtoa
  5596 ;;		_fputc
  5597 ;; This function is called by:
  5598 ;;		_vfprintf
  5599 ;; This function uses a non-reentrant model
  5600 ;;
  5601                           
  5602                           
  5603                           ;psect for function _vfpfcnvrt
  5604  03C1                     _vfpfcnvrt:
  5605                           
  5606                           ;incstack = 0
  5607                           ; Regs used in _vfpfcnvrt: [wreg-fsr1h+status,2+status,0+pclath+cstack]
  5608                           ;vfpfcnvrt@fp stored from wreg
  5609  03C1  0020               	movlb	0	; select bank0
  5610  03C2  00DD               	movwf	vfpfcnvrt@fp
  5611  03C3                     l1835:
  5612                           
  5613                           ;C:\Program Files\Microchip\xc8\v2.31\pic\sources\c99\common\doprnt.c: 692: static int v
      +                          fpfcnvrt(FILE *fp, char *fmt[], va_list ap);C:\Program Files\Microchip\xc8\v2.31\pic\sou
      +                          rces\c99\common\doprnt.c: 693: {;C:\Program Files\Microchip\xc8\v2.31\pic\sources\c99\co
      +                          mmon\doprnt.c: 694:     char c, *cp, ct[3];;C:\Program Files\Microchip\xc8\v2.31\pic\sou
      +                          rces\c99\common\doprnt.c: 695:     int done, i;;C:\Program Files\Microchip\xc8\v2.31\pic
      +                          \sources\c99\common\doprnt.c: 696:     long long ll;;C:\Program Files\Microchip\xc8\v2.3
      +                          1\pic\sources\c99\common\doprnt.c: 697:     unsigned long long llu;
  5614  03C3  084E               	movf	vfpfcnvrt@fmt,w
  5615  03C4  0086               	movwf	6
  5616  03C5  0187               	clrf	7
  5617  03C6  3F40               	moviw [0]fsr1
  5618  03C7  00D0               	movwf	??_vfpfcnvrt
  5619  03C8  3F41               	moviw [1]fsr1
  5620  03C9  00D1               	movwf	??_vfpfcnvrt+1
  5621  03CA  0850               	movf	??_vfpfcnvrt,w
  5622  03CB  0084               	movwf	4
  5623  03CC  0851               	movf	??_vfpfcnvrt+1,w
  5624  03CD  0085               	movwf	5
  5625  03CE  0012               	moviw fsr0++
  5626  03CF  3A25               	xorlw	37
  5627  03D0  1D03               	btfss	3,2
  5628  03D1  2BD3               	goto	u1421
  5629  03D2  2BD4               	goto	u1420
  5630  03D3                     u1421:
  5631  03D3  2C78               	goto	l1871
  5632  03D4                     u1420:
  5633  03D4                     l1837:
  5634                           
  5635                           ;C:\Program Files\Microchip\xc8\v2.31\pic\sources\c99\common\doprnt.c: 703:         ++*f
      +                          mt;
  5636  03D4  084E               	movf	vfpfcnvrt@fmt,w
  5637  03D5  0086               	movwf	6
  5638  03D6  0187               	clrf	7
  5639  03D7  3001               	movlw	1
  5640  03D8  0781               	addwf	1,f
  5641  03D9  3141               	addfsr 1,1
  5642  03DA  1803               	skipnc
  5643  03DB  0A81               	incf	1,f
  5644  03DC                     l1839:
  5645                           
  5646                           ;C:\Program Files\Microchip\xc8\v2.31\pic\sources\c99\common\doprnt.c: 705:         flag
      +                          s = width = 0;
  5647  03DC  0021               	movlb	1	; select bank1
  5648  03DD  01A2               	clrf	_width^(0+128)
  5649  03DE  01A3               	clrf	(_width+1)^(0+128)
  5650  03DF  01A6               	clrf	_flags^(0+128)
  5651  03E0  01A7               	clrf	(_flags+1)^(0+128)
  5652  03E1                     l1841:
  5653                           
  5654                           ;C:\Program Files\Microchip\xc8\v2.31\pic\sources\c99\common\doprnt.c: 706:         prec
      +                           = -1;
  5655  03E1  30FF               	movlw	255
  5656  03E2  00A4               	movwf	_prec^(0+128)
  5657  03E3  30FF               	movlw	255
  5658  03E4  00A5               	movwf	(_prec^(0+128)+1)
  5659  03E5                     l1843:
  5660                           
  5661                           ;C:\Program Files\Microchip\xc8\v2.31\pic\sources\c99\common\doprnt.c: 847:         if (
      +                          (*fmt[0] == 'd') || (*fmt[0] == 'i')) {
  5662  03E5  0020               	movlb	0	; select bank0
  5663  03E6  084E               	movf	vfpfcnvrt@fmt,w
  5664  03E7  0086               	movwf	6
  5665  03E8  0187               	clrf	7
  5666  03E9  3F40               	moviw [0]fsr1
  5667  03EA  00D0               	movwf	??_vfpfcnvrt
  5668  03EB  3F41               	moviw [1]fsr1
  5669  03EC  00D1               	movwf	??_vfpfcnvrt+1
  5670  03ED  0850               	movf	??_vfpfcnvrt,w
  5671  03EE  0084               	movwf	4
  5672  03EF  0851               	movf	??_vfpfcnvrt+1,w
  5673  03F0  0085               	movwf	5
  5674  03F1  0012               	moviw fsr0++
  5675  03F2  3A64               	xorlw	100
  5676  03F3  1903               	btfsc	3,2
  5677  03F4  2BF6               	goto	u1431
  5678  03F5  2BF7               	goto	u1430
  5679  03F6                     u1431:
  5680  03F6  2C08               	goto	l1847
  5681  03F7                     u1430:
  5682  03F7                     l1845:
  5683  03F7  084E               	movf	vfpfcnvrt@fmt,w
  5684  03F8  0086               	movwf	6
  5685  03F9  0187               	clrf	7
  5686  03FA  3F40               	moviw [0]fsr1
  5687  03FB  00D0               	movwf	??_vfpfcnvrt
  5688  03FC  3F41               	moviw [1]fsr1
  5689  03FD  00D1               	movwf	??_vfpfcnvrt+1
  5690  03FE  0850               	movf	??_vfpfcnvrt,w
  5691  03FF  0084               	movwf	4
  5692  0400  0851               	movf	??_vfpfcnvrt+1,w
  5693  0401  0085               	movwf	5
  5694  0402  0012               	moviw fsr0++
  5695  0403  3A69               	xorlw	105
  5696  0404  1D03               	btfss	3,2
  5697  0405  2C07               	goto	u1441
  5698  0406  2C08               	goto	u1440
  5699  0407                     u1441:
  5700  0407  2C43               	goto	l1855
  5701  0408                     u1440:
  5702  0408                     l1847:
  5703                           
  5704                           ;C:\Program Files\Microchip\xc8\v2.31\pic\sources\c99\common\doprnt.c: 849:             
      +                          ++*fmt;
  5705  0408  084E               	movf	vfpfcnvrt@fmt,w
  5706  0409  0086               	movwf	6
  5707  040A  0187               	clrf	7
  5708  040B  3001               	movlw	1
  5709  040C  0781               	addwf	1,f
  5710  040D  3141               	addfsr 1,1
  5711  040E  1803               	skipnc
  5712  040F  0A81               	incf	1,f
  5713  0410                     l1849:
  5714                           
  5715                           ;C:\Program Files\Microchip\xc8\v2.31\pic\sources\c99\common\doprnt.c: 850:             
      +                          ll = (long long)(*(int *)__va_arg(*(int **)ap, (int)0));
  5716  0410  084F               	movf	vfpfcnvrt@ap,w
  5717  0411  0086               	movwf	6
  5718  0412  0187               	clrf	7
  5719  0413  0801               	movf	1,w
  5720  0414  0084               	movwf	4
  5721  0415  0185               	clrf	5
  5722  0416  3002               	movlw	2
  5723  0417  0781               	addwf	1,f
  5724  0418  3F00               	moviw [0]fsr0
  5725  0419  00D0               	movwf	??_vfpfcnvrt
  5726  041A  3F01               	moviw [1]fsr0
  5727  041B  00D1               	movwf	??_vfpfcnvrt+1
  5728  041C  0850               	movf	??_vfpfcnvrt,w
  5729  041D  00D5               	movwf	vfpfcnvrt@ll
  5730  041E  0851               	movf	??_vfpfcnvrt+1,w
  5731  041F  00D6               	movwf	vfpfcnvrt@ll+1
  5732  0420  0D89               	rlf	9,f
  5733  0421  3B89               	subwfb	9,f
  5734  0422  0989               	comf	9,f
  5735  0423  00D7               	movwf	vfpfcnvrt@ll+2
  5736  0424  00D8               	movwf	vfpfcnvrt@ll+3
  5737  0425  00D9               	movwf	vfpfcnvrt@ll+4
  5738  0426  00DA               	movwf	vfpfcnvrt@ll+5
  5739  0427  00DB               	movwf	vfpfcnvrt@ll+6
  5740  0428  00DC               	movwf	vfpfcnvrt@ll+7
  5741  0429                     l1851:
  5742                           
  5743                           ;C:\Program Files\Microchip\xc8\v2.31\pic\sources\c99\common\doprnt.c: 852:             
      +                          return dtoa(fp, ll);
  5744  0429  0855               	movf	vfpfcnvrt@ll,w
  5745  042A  00B0               	movwf	dtoa@d
  5746  042B  0856               	movf	vfpfcnvrt@ll+1,w
  5747  042C  00B1               	movwf	dtoa@d+1
  5748  042D  0857               	movf	vfpfcnvrt@ll+2,w
  5749  042E  00B2               	movwf	dtoa@d+2
  5750  042F  0858               	movf	vfpfcnvrt@ll+3,w
  5751  0430  00B3               	movwf	dtoa@d+3
  5752  0431  0859               	movf	vfpfcnvrt@ll+4,w
  5753  0432  00B4               	movwf	dtoa@d+4
  5754  0433  085A               	movf	vfpfcnvrt@ll+5,w
  5755  0434  00B5               	movwf	dtoa@d+5
  5756  0435  085B               	movf	vfpfcnvrt@ll+6,w
  5757  0436  00B6               	movwf	dtoa@d+6
  5758  0437  085C               	movf	vfpfcnvrt@ll+7,w
  5759  0438  00B7               	movwf	dtoa@d+7
  5760  0439  085D               	movf	vfpfcnvrt@fp,w
  5761  043A  3186  2687  3183   	fcall	_dtoa
  5762  043D  0020               	movlb	0	; select bank0
  5763  043E  0831               	movf	?_dtoa+1,w
  5764  043F  00CF               	movwf	?_vfpfcnvrt+1
  5765  0440  0830               	movf	?_dtoa,w
  5766  0441  00CE               	movwf	?_vfpfcnvrt
  5767  0442  2C9B               	goto	l979
  5768  0443                     l1855:
  5769                           
  5770                           ;C:\Program Files\Microchip\xc8\v2.31\pic\sources\c99\common\doprnt.c: 1372:         if 
      +                          ((*fmt)[0] == '%') {
  5771  0443  084E               	movf	vfpfcnvrt@fmt,w
  5772  0444  0086               	movwf	6
  5773  0445  0187               	clrf	7
  5774  0446  3F40               	moviw [0]fsr1
  5775  0447  00D0               	movwf	??_vfpfcnvrt
  5776  0448  3F41               	moviw [1]fsr1
  5777  0449  00D1               	movwf	??_vfpfcnvrt+1
  5778  044A  0850               	movf	??_vfpfcnvrt,w
  5779  044B  0084               	movwf	4
  5780  044C  0851               	movf	??_vfpfcnvrt+1,w
  5781  044D  0085               	movwf	5
  5782  044E  0012               	moviw fsr0++
  5783  044F  3A25               	xorlw	37
  5784  0450  1D03               	btfss	3,2
  5785  0451  2C53               	goto	u1451
  5786  0452  2C54               	goto	u1450
  5787  0453                     u1451:
  5788  0453  2C6D               	goto	l1865
  5789  0454                     u1450:
  5790  0454                     l1857:
  5791                           
  5792                           ;C:\Program Files\Microchip\xc8\v2.31\pic\sources\c99\common\doprnt.c: 1373:            
      +                           ++*fmt;
  5793  0454  084E               	movf	vfpfcnvrt@fmt,w
  5794  0455  0086               	movwf	6
  5795  0456  0187               	clrf	7
  5796  0457  3001               	movlw	1
  5797  0458  0781               	addwf	1,f
  5798  0459  3141               	addfsr 1,1
  5799  045A  1803               	skipnc
  5800  045B  0A81               	incf	1,f
  5801  045C                     l1859:
  5802                           
  5803                           ;C:\Program Files\Microchip\xc8\v2.31\pic\sources\c99\common\doprnt.c: 1374:            
      +                           fputc((int)'%', fp);
  5804  045C  3025               	movlw	37
  5805  045D  00F2               	movwf	fputc@c
  5806  045E  3000               	movlw	0
  5807  045F  00F3               	movwf	fputc@c+1
  5808  0460  085D               	movf	vfpfcnvrt@fp,w
  5809  0461  00D0               	movwf	??_vfpfcnvrt
  5810  0462  0850               	movf	??_vfpfcnvrt,w
  5811  0463  00F4               	movwf	fputc@fp
  5812  0464  3180  20ED  3183   	fcall	_fputc
  5813  0467                     l1861:
  5814                           
  5815                           ;C:\Program Files\Microchip\xc8\v2.31\pic\sources\c99\common\doprnt.c: 1375:            
      +                           return 1;
  5816  0467  3001               	movlw	1
  5817  0468  0020               	movlb	0	; select bank0
  5818  0469  00CE               	movwf	?_vfpfcnvrt
  5819  046A  3000               	movlw	0
  5820  046B  00CF               	movwf	?_vfpfcnvrt+1
  5821  046C  2C9B               	goto	l979
  5822  046D                     l1865:
  5823                           
  5824                           ;C:\Program Files\Microchip\xc8\v2.31\pic\sources\c99\common\doprnt.c: 1379:         ++*
      +                          fmt;
  5825  046D  084E               	movf	vfpfcnvrt@fmt,w
  5826  046E  0086               	movwf	6
  5827  046F  0187               	clrf	7
  5828  0470  3001               	movlw	1
  5829  0471  0781               	addwf	1,f
  5830  0472  3141               	addfsr 1,1
  5831  0473  1803               	skipnc
  5832  0474  0A81               	incf	1,f
  5833  0475                     l1867:
  5834                           
  5835                           ;C:\Program Files\Microchip\xc8\v2.31\pic\sources\c99\common\doprnt.c: 1380:         ret
      +                          urn 0;
  5836  0475  01CE               	clrf	?_vfpfcnvrt
  5837  0476  01CF               	clrf	?_vfpfcnvrt+1
  5838  0477  2C9B               	goto	l979
  5839  0478                     l1871:
  5840                           
  5841                           ;C:\Program Files\Microchip\xc8\v2.31\pic\sources\c99\common\doprnt.c: 1384:     fputc((
      +                          int)(*fmt)[0], fp);
  5842  0478  084E               	movf	vfpfcnvrt@fmt,w
  5843  0479  0086               	movwf	6
  5844  047A  0187               	clrf	7
  5845  047B  3F40               	moviw [0]fsr1
  5846  047C  00D0               	movwf	??_vfpfcnvrt
  5847  047D  3F41               	moviw [1]fsr1
  5848  047E  00D1               	movwf	??_vfpfcnvrt+1
  5849  047F  0850               	movf	??_vfpfcnvrt,w
  5850  0480  0084               	movwf	4
  5851  0481  0851               	movf	??_vfpfcnvrt+1,w
  5852  0482  0085               	movwf	5
  5853  0483  0800               	movf	0,w	;code access
  5854  0484  00D2               	movwf	??_vfpfcnvrt+2
  5855  0485  01D3               	clrf	??_vfpfcnvrt+3
  5856  0486  0852               	movf	??_vfpfcnvrt+2,w
  5857  0487  00F2               	movwf	fputc@c
  5858  0488  0853               	movf	??_vfpfcnvrt+3,w
  5859  0489  00F3               	movwf	fputc@c+1
  5860  048A  085D               	movf	vfpfcnvrt@fp,w
  5861  048B  00D4               	movwf	??_vfpfcnvrt+4
  5862  048C  0854               	movf	??_vfpfcnvrt+4,w
  5863  048D  00F4               	movwf	fputc@fp
  5864  048E  3180  20ED  3183   	fcall	_fputc
  5865  0491                     l1873:
  5866                           
  5867                           ;C:\Program Files\Microchip\xc8\v2.31\pic\sources\c99\common\doprnt.c: 1385:     ++*fmt;
  5868  0491  0020               	movlb	0	; select bank0
  5869  0492  084E               	movf	vfpfcnvrt@fmt,w
  5870  0493  0086               	movwf	6
  5871  0494  0187               	clrf	7
  5872  0495  3001               	movlw	1
  5873  0496  0781               	addwf	1,f
  5874  0497  3141               	addfsr 1,1
  5875  0498  1803               	skipnc
  5876  0499  0A81               	incf	1,f
  5877  049A  2C67               	goto	l1861
  5878  049B                     l979:
  5879  049B  0008               	return
  5880  049C                     __end_of_vfpfcnvrt:
  5881                           
  5882                           	psect	text22
  5883  0687                     __ptext22:	
  5884 ;; *************** function _dtoa *****************
  5885 ;; Defined at:
  5886 ;;		line 287 in file "C:\Program Files\Microchip\xc8\v2.31\pic\sources\c99\common\doprnt.c"
  5887 ;; Parameters:    Size  Location     Type
  5888 ;;  fp              1    wreg     PTR struct _IO_FILE
  5889 ;;		 -> NULL(0), 
  5890 ;;  d               8   16[BANK0 ] long long 
  5891 ;; Auto vars:     Size  Location     Type
  5892 ;;  fp              1   31[BANK0 ] PTR struct _IO_FILE
  5893 ;;		 -> NULL(0), 
  5894 ;;  n               8   36[BANK0 ] long long 
  5895 ;;  i               2   44[BANK0 ] int 
  5896 ;;  s               2   34[BANK0 ] int 
  5897 ;;  w               2   32[BANK0 ] int 
  5898 ;;  p               2   29[BANK0 ] int 
  5899 ;; Return value:  Size  Location     Type
  5900 ;;                  2   16[BANK0 ] int 
  5901 ;; Registers used:
  5902 ;;		wreg, fsr1l, fsr1h, status,2, status,0, pclath, cstack
  5903 ;; Tracked objects:
  5904 ;;		On entry : 0/0
  5905 ;;		On exit  : 0/0
  5906 ;;		Unchanged: 0/0
  5907 ;; Data sizes:     COMMON   BANK0   BANK1   BANK2   BANK3   BANK4   BANK5   BANK6   BANK7   BANK8   BANK9  BANK10  BANK1
      +1  BANK12
  5908 ;;      Params:         0       8       0       0       0       0       0       0       0       0       0       0       
      +0       0
  5909 ;;      Locals:         0      19       0       0       0       0       0       0       0       0       0       0       
      +0       0
  5910 ;;      Temps:          0       3       0       0       0       0       0       0       0       0       0       0       
      +0       0
  5911 ;;      Totals:         0      30       0       0       0       0       0       0       0       0       0       0       
      +0       0
  5912 ;;Total ram usage:       30 bytes
  5913 ;; Hardware stack levels used:    1
  5914 ;; Hardware stack levels required when called:    5
  5915 ;; This function calls:
  5916 ;;		___aodiv
  5917 ;;		___aomod
  5918 ;;		_abs
  5919 ;;		_pad
  5920 ;; This function is called by:
  5921 ;;		_vfpfcnvrt
  5922 ;; This function uses a non-reentrant model
  5923 ;;
  5924                           
  5925                           
  5926                           ;psect for function _dtoa
  5927  0687                     _dtoa:
  5928                           
  5929                           ;incstack = 0
  5930                           ; Regs used in _dtoa: [wreg+fsr1l+fsr1h+status,2+status,0+pclath+cstack]
  5931                           ;dtoa@fp stored from wreg
  5932  0687  0020               	movlb	0	; select bank0
  5933  0688  00BF               	movwf	dtoa@fp
  5934  0689                     l1777:
  5935                           
  5936                           ;C:\Program Files\Microchip\xc8\v2.31\pic\sources\c99\common\doprnt.c: 287: static int d
      +                          toa(FILE *fp, long long d);C:\Program Files\Microchip\xc8\v2.31\pic\sources\c99\common\d
      +                          oprnt.c: 288: {;C:\Program Files\Microchip\xc8\v2.31\pic\sources\c99\common\doprnt.c: 28
      +                          9:     int i, p, s, w;;C:\Program Files\Microchip\xc8\v2.31\pic\sources\c99\common\doprn
      +                          t.c: 290:     long long n;;C:\Program Files\Microchip\xc8\v2.31\pic\sources\c99\common\d
      +                          oprnt.c: 293:     n = d;
  5937  0689  0830               	movf	dtoa@d,w
  5938  068A  00C4               	movwf	dtoa@n
  5939  068B  0831               	movf	dtoa@d+1,w
  5940  068C  00C5               	movwf	dtoa@n+1
  5941  068D  0832               	movf	dtoa@d+2,w
  5942  068E  00C6               	movwf	dtoa@n+2
  5943  068F  0833               	movf	dtoa@d+3,w
  5944  0690  00C7               	movwf	dtoa@n+3
  5945  0691  0834               	movf	dtoa@d+4,w
  5946  0692  00C8               	movwf	dtoa@n+4
  5947  0693  0835               	movf	dtoa@d+5,w
  5948  0694  00C9               	movwf	dtoa@n+5
  5949  0695  0836               	movf	dtoa@d+6,w
  5950  0696  00CA               	movwf	dtoa@n+6
  5951  0697  0837               	movf	dtoa@d+7,w
  5952  0698  00CB               	movwf	dtoa@n+7
  5953  0699                     l1779:
  5954                           
  5955                           ;C:\Program Files\Microchip\xc8\v2.31\pic\sources\c99\common\doprnt.c: 294:     s = n < 
      +                          0 ? 1 : 0;
  5956  0699  3044               	movlw	low dtoa@n
  5957  069A  0086               	movwf	6
  5958  069B  3000               	movlw	high dtoa@n
  5959  069C  0087               	movwf	7
  5960  069D  3F47               	moviw [7]fsr1
  5961  069E  00B8               	movwf	??_dtoa
  5962  069F  1BB8               	btfsc	??_dtoa,7
  5963  06A0  2EA2               	goto	u1261
  5964  06A1  2EA4               	goto	u1260
  5965  06A2                     u1261:
  5966  06A2  3001               	movlw	1
  5967  06A3  2EA5               	goto	u1270
  5968  06A4                     u1260:
  5969  06A4  3000               	movlw	0
  5970  06A5                     u1270:
  5971  06A5  0020               	movlb	0	; select bank0
  5972  06A6  00B9               	movwf	??_dtoa+1
  5973  06A7  01BA               	clrf	??_dtoa+2
  5974  06A8  0839               	movf	??_dtoa+1,w
  5975  06A9  00C2               	movwf	dtoa@s
  5976  06AA  083A               	movf	??_dtoa+2,w
  5977  06AB  00C3               	movwf	dtoa@s+1
  5978  06AC                     l1781:
  5979                           
  5980                           ;C:\Program Files\Microchip\xc8\v2.31\pic\sources\c99\common\doprnt.c: 295:     if (s) {
  5981  06AC  0842               	movf	dtoa@s,w
  5982  06AD  0443               	iorwf	dtoa@s+1,w
  5983  06AE  1903               	btfsc	3,2
  5984  06AF  2EB1               	goto	u1281
  5985  06B0  2EB2               	goto	u1280
  5986  06B1                     u1281:
  5987  06B1  2ED0               	goto	l949
  5988  06B2                     u1280:
  5989  06B2                     l1783:
  5990                           
  5991                           ;C:\Program Files\Microchip\xc8\v2.31\pic\sources\c99\common\doprnt.c: 296:         n = 
      +                          -n;
  5992  06B2  09C4               	comf	dtoa@n,f
  5993  06B3  09C5               	comf	dtoa@n+1,f
  5994  06B4  09C6               	comf	dtoa@n+2,f
  5995  06B5  09C7               	comf	dtoa@n+3,f
  5996  06B6  09C8               	comf	dtoa@n+4,f
  5997  06B7  09C9               	comf	dtoa@n+5,f
  5998  06B8  09CA               	comf	dtoa@n+6,f
  5999  06B9  09CB               	comf	dtoa@n+7,f
  6000  06BA  0AC4               	incf	dtoa@n,f
  6001  06BB  1D03               	skipz
  6002  06BC  2ED0               	goto	u129lld
  6003  06BD  0AC5               	incf	dtoa@n+1,f
  6004  06BE  1D03               	skipz
  6005  06BF  2ED0               	goto	u129lld
  6006  06C0  0AC6               	incf	dtoa@n+2,f
  6007  06C1  1D03               	skipz
  6008  06C2  2ED0               	goto	u129lld
  6009  06C3  0AC7               	incf	dtoa@n+3,f
  6010  06C4  1D03               	skipz
  6011  06C5  2ED0               	goto	u129lld
  6012  06C6  0AC8               	incf	dtoa@n+4,f
  6013  06C7  1D03               	skipz
  6014  06C8  2ED0               	goto	u129lld
  6015  06C9  0AC9               	incf	dtoa@n+5,f
  6016  06CA  1D03               	skipz
  6017  06CB  2ED0               	goto	u129lld
  6018  06CC  0ACA               	incf	dtoa@n+6,f
  6019  06CD  1D03               	skipz
  6020  06CE  2ED0               	goto	u129lld
  6021  06CF  0ACB               	incf	dtoa@n+7,f
  6022  06D0                     u129lld:
  6023  06D0                     l949:	
  6024                           ;C:\Program Files\Microchip\xc8\v2.31\pic\sources\c99\common\doprnt.c: 297:     }
  6025                           
  6026                           
  6027                           ;C:\Program Files\Microchip\xc8\v2.31\pic\sources\c99\common\doprnt.c: 300:     if (!(pr
      +                          ec < 0)) {
  6028  06D0  0021               	movlb	1	; select bank1
  6029  06D1  1BA5               	btfsc	(_prec+1)^(0+128),7
  6030  06D2  2ED4               	goto	u1301
  6031  06D3  2ED5               	goto	u1300
  6032  06D4                     u1301:
  6033  06D4  2ED9               	goto	l950
  6034  06D5                     u1300:
  6035  06D5                     l1785:
  6036                           
  6037                           ;C:\Program Files\Microchip\xc8\v2.31\pic\sources\c99\common\doprnt.c: 301:         flag
      +                          s &= ~(1 << 1);
  6038  06D5  30FD               	movlw	253
  6039  06D6  05A6               	andwf	_flags^(0+128),f
  6040  06D7  30FF               	movlw	255
  6041  06D8  05A7               	andwf	(_flags+1)^(0+128),f
  6042  06D9                     l950:	
  6043                           ;C:\Program Files\Microchip\xc8\v2.31\pic\sources\c99\common\doprnt.c: 302:     }
  6044                           
  6045                           
  6046                           ;C:\Program Files\Microchip\xc8\v2.31\pic\sources\c99\common\doprnt.c: 303:     p = (0 <
      +                           prec) ? prec : 1;
  6047  06D9  0825               	movf	(_prec+1)^(0+128),w
  6048  06DA  3A80               	xorlw	128
  6049  06DB  0020               	movlb	0	; select bank0
  6050  06DC  00B8               	movwf	??_dtoa
  6051  06DD  3080               	movlw	128
  6052  06DE  0238               	subwf	??_dtoa,w
  6053  06DF  1D03               	skipz
  6054  06E0  2EE4               	goto	u1315
  6055  06E1  3001               	movlw	1
  6056  06E2  0021               	movlb	1	; select bank1
  6057  06E3  0224               	subwf	_prec^(0+128),w
  6058  06E4                     u1315:
  6059  06E4  1803               	skipnc
  6060  06E5  2EE7               	goto	u1311
  6061  06E6  2EE8               	goto	u1310
  6062  06E7                     u1311:
  6063  06E7  2EEE               	goto	l1789
  6064  06E8                     u1310:
  6065  06E8                     l1787:
  6066  06E8  3001               	movlw	1
  6067  06E9  0020               	movlb	0	; select bank0
  6068  06EA  00BD               	movwf	dtoa@p
  6069  06EB  3000               	movlw	0
  6070  06EC  00BE               	movwf	dtoa@p+1
  6071  06ED  2EF6               	goto	l954
  6072  06EE                     l1789:
  6073  06EE  0021               	movlb	1	; select bank1
  6074  06EF  0825               	movf	(_prec+1)^(0+128),w
  6075  06F0  0020               	movlb	0	; select bank0
  6076  06F1  00BE               	movwf	dtoa@p+1
  6077  06F2  0021               	movlb	1	; select bank1
  6078  06F3  0824               	movf	_prec^(0+128),w
  6079  06F4  0020               	movlb	0	; select bank0
  6080  06F5  00BD               	movwf	dtoa@p
  6081  06F6                     l954:
  6082                           
  6083                           ;C:\Program Files\Microchip\xc8\v2.31\pic\sources\c99\common\doprnt.c: 304:     w = widt
      +                          h;
  6084  06F6  0021               	movlb	1	; select bank1
  6085  06F7  0823               	movf	(_width+1)^(0+128),w
  6086  06F8  0020               	movlb	0	; select bank0
  6087  06F9  00C1               	movwf	dtoa@w+1
  6088  06FA  0021               	movlb	1	; select bank1
  6089  06FB  0822               	movf	_width^(0+128),w
  6090  06FC  0020               	movlb	0	; select bank0
  6091  06FD  00C0               	movwf	dtoa@w
  6092  06FE                     l1791:
  6093                           
  6094                           ;C:\Program Files\Microchip\xc8\v2.31\pic\sources\c99\common\doprnt.c: 305:     if (s ||
      +                           (flags & (1 << 2))) {
  6095  06FE  0842               	movf	dtoa@s,w
  6096  06FF  0443               	iorwf	dtoa@s+1,w
  6097  0700  1D03               	btfss	3,2
  6098  0701  2F03               	goto	u1321
  6099  0702  2F04               	goto	u1320
  6100  0703                     u1321:
  6101  0703  2F09               	goto	l1795
  6102  0704                     u1320:
  6103  0704                     l1793:
  6104  0704  0021               	movlb	1	; select bank1
  6105  0705  1D26               	btfss	_flags^(0+128),2
  6106  0706  2F08               	goto	u1331
  6107  0707  2F09               	goto	u1330
  6108  0708                     u1331:
  6109  0708  2F0E               	goto	l955
  6110  0709                     u1330:
  6111  0709                     l1795:
  6112                           
  6113                           ;C:\Program Files\Microchip\xc8\v2.31\pic\sources\c99\common\doprnt.c: 306:         --w;
  6114  0709  30FF               	movlw	255
  6115  070A  0020               	movlb	0	; select bank0
  6116  070B  07C0               	addwf	dtoa@w,f
  6117  070C  30FF               	movlw	255
  6118  070D  3DC1               	addwfc	dtoa@w+1,f
  6119  070E                     l955:	
  6120                           ;C:\Program Files\Microchip\xc8\v2.31\pic\sources\c99\common\doprnt.c: 307:     }
  6121                           
  6122                           
  6123                           ;C:\Program Files\Microchip\xc8\v2.31\pic\sources\c99\common\doprnt.c: 310:     i = size
      +                          of(dbuf) - 1;
  6124  070E  301F               	movlw	31
  6125  070F  0020               	movlb	0	; select bank0
  6126  0710  00CC               	movwf	dtoa@i
  6127  0711  3000               	movlw	0
  6128  0712  00CD               	movwf	dtoa@i+1
  6129  0713                     l1797:
  6130                           
  6131                           ;C:\Program Files\Microchip\xc8\v2.31\pic\sources\c99\common\doprnt.c: 311:     dbuf[i] 
      +                          = '\0';
  6132  0713  0021               	movlb	1	; select bank1
  6133  0714  01C8               	clrf	(_dbuf^(0+128)+31)
  6134                           
  6135                           ;C:\Program Files\Microchip\xc8\v2.31\pic\sources\c99\common\doprnt.c: 312:     while (!
      +                          (i < 1) && (n || (0 < p) || ((0 < w) && (flags & (1 << 1))))) {
  6136  0715  2F7E               	goto	l958
  6137  0716                     l1799:
  6138                           
  6139                           ;C:\Program Files\Microchip\xc8\v2.31\pic\sources\c99\common\doprnt.c: 313:         --i;
  6140  0716  30FF               	movlw	255
  6141  0717  0020               	movlb	0	; select bank0
  6142  0718  07CC               	addwf	dtoa@i,f
  6143  0719  30FF               	movlw	255
  6144  071A  3DCD               	addwfc	dtoa@i+1,f
  6145  071B                     l1801:
  6146                           
  6147                           ;C:\Program Files\Microchip\xc8\v2.31\pic\sources\c99\common\doprnt.c: 314:         dbuf
      +                          [i] = (char)((int)'0' + abs(n % 10));
  6148  071B  300A               	movlw	10
  6149  071C  00A0               	movwf	___aomod@divisor
  6150  071D  01A1               	clrf	___aomod@divisor+1
  6151  071E  01A2               	clrf	___aomod@divisor+2
  6152  071F  01A3               	clrf	___aomod@divisor+3
  6153  0720  01A4               	clrf	___aomod@divisor+4
  6154  0721  01A5               	clrf	___aomod@divisor+5
  6155  0722  01A6               	clrf	___aomod@divisor+6
  6156  0723  01A7               	clrf	___aomod@divisor+7
  6157  0724  0844               	movf	dtoa@n,w
  6158  0725  00A8               	movwf	___aomod@dividend
  6159  0726  0845               	movf	dtoa@n+1,w
  6160  0727  00A9               	movwf	___aomod@dividend+1
  6161  0728  0846               	movf	dtoa@n+2,w
  6162  0729  00AA               	movwf	___aomod@dividend+2
  6163  072A  0847               	movf	dtoa@n+3,w
  6164  072B  00AB               	movwf	___aomod@dividend+3
  6165  072C  0848               	movf	dtoa@n+4,w
  6166  072D  00AC               	movwf	___aomod@dividend+4
  6167  072E  0849               	movf	dtoa@n+5,w
  6168  072F  00AD               	movwf	___aomod@dividend+5
  6169  0730  084A               	movf	dtoa@n+6,w
  6170  0731  00AE               	movwf	___aomod@dividend+6
  6171  0732  084B               	movf	dtoa@n+7,w
  6172  0733  00AF               	movwf	___aomod@dividend+7
  6173  0734  3184  249C  3186   	fcall	___aomod
  6174  0737  0020               	movlb	0	; select bank0
  6175  0738  0821               	movf	?___aomod+1,w
  6176  0739  00F4               	movwf	abs@a+1
  6177  073A  0820               	movf	?___aomod,w
  6178  073B  00F3               	movwf	abs@a
  6179  073C  3180  2014  3186   	fcall	_abs
  6180  073F  0873               	movf	?_abs,w
  6181  0740  3E30               	addlw	48
  6182  0741  0020               	movlb	0	; select bank0
  6183  0742  00B8               	movwf	??_dtoa
  6184  0743  084C               	movf	dtoa@i,w
  6185  0744  3EA9               	addlw	(low (_dbuf| 0))& (0+255)
  6186  0745  0086               	movwf	6
  6187  0746  0187               	clrf	7
  6188  0747  0838               	movf	??_dtoa,w
  6189  0748  0081               	movwf	1
  6190  0749                     l1803:
  6191                           
  6192                           ;C:\Program Files\Microchip\xc8\v2.31\pic\sources\c99\common\doprnt.c: 315:         --p;
  6193  0749  30FF               	movlw	255
  6194  074A  07BD               	addwf	dtoa@p,f
  6195  074B  30FF               	movlw	255
  6196  074C  3DBE               	addwfc	dtoa@p+1,f
  6197  074D                     l1805:
  6198                           
  6199                           ;C:\Program Files\Microchip\xc8\v2.31\pic\sources\c99\common\doprnt.c: 316:         --w;
  6200  074D  30FF               	movlw	255
  6201  074E  07C0               	addwf	dtoa@w,f
  6202  074F  30FF               	movlw	255
  6203  0750  3DC1               	addwfc	dtoa@w+1,f
  6204  0751                     l1807:
  6205                           
  6206                           ;C:\Program Files\Microchip\xc8\v2.31\pic\sources\c99\common\doprnt.c: 317:         n = 
      +                          n / 10;
  6207  0751  300A               	movlw	10
  6208  0752  00A0               	movwf	___aodiv@divisor
  6209  0753  01A1               	clrf	___aodiv@divisor+1
  6210  0754  01A2               	clrf	___aodiv@divisor+2
  6211  0755  01A3               	clrf	___aodiv@divisor+3
  6212  0756  01A4               	clrf	___aodiv@divisor+4
  6213  0757  01A5               	clrf	___aodiv@divisor+5
  6214  0758  01A6               	clrf	___aodiv@divisor+6
  6215  0759  01A7               	clrf	___aodiv@divisor+7
  6216  075A  0844               	movf	dtoa@n,w
  6217  075B  00A8               	movwf	___aodiv@dividend
  6218  075C  0845               	movf	dtoa@n+1,w
  6219  075D  00A9               	movwf	___aodiv@dividend+1
  6220  075E  0846               	movf	dtoa@n+2,w
  6221  075F  00AA               	movwf	___aodiv@dividend+2
  6222  0760  0847               	movf	dtoa@n+3,w
  6223  0761  00AB               	movwf	___aodiv@dividend+3
  6224  0762  0848               	movf	dtoa@n+4,w
  6225  0763  00AC               	movwf	___aodiv@dividend+4
  6226  0764  0849               	movf	dtoa@n+5,w
  6227  0765  00AD               	movwf	___aodiv@dividend+5
  6228  0766  084A               	movf	dtoa@n+6,w
  6229  0767  00AE               	movwf	___aodiv@dividend+6
  6230  0768  084B               	movf	dtoa@n+7,w
  6231  0769  00AF               	movwf	___aodiv@dividend+7
  6232  076A  3185  2586  3186   	fcall	___aodiv
  6233  076D  0020               	movlb	0	; select bank0
  6234  076E  0820               	movf	?___aodiv,w
  6235  076F  00C4               	movwf	dtoa@n
  6236  0770  0821               	movf	?___aodiv+1,w
  6237  0771  00C5               	movwf	dtoa@n+1
  6238  0772  0822               	movf	?___aodiv+2,w
  6239  0773  00C6               	movwf	dtoa@n+2
  6240  0774  0823               	movf	?___aodiv+3,w
  6241  0775  00C7               	movwf	dtoa@n+3
  6242  0776  0824               	movf	?___aodiv+4,w
  6243  0777  00C8               	movwf	dtoa@n+4
  6244  0778  0825               	movf	?___aodiv+5,w
  6245  0779  00C9               	movwf	dtoa@n+5
  6246  077A  0826               	movf	?___aodiv+6,w
  6247  077B  00CA               	movwf	dtoa@n+6
  6248  077C  0827               	movf	?___aodiv+7,w
  6249  077D  00CB               	movwf	dtoa@n+7
  6250  077E                     l958:	
  6251                           ;C:\Program Files\Microchip\xc8\v2.31\pic\sources\c99\common\doprnt.c: 318:     }
  6252                           
  6253                           
  6254                           ;C:\Program Files\Microchip\xc8\v2.31\pic\sources\c99\common\doprnt.c: 312:     while (!
      +                          (i < 1) && (n || (0 < p) || ((0 < w) && (flags & (1 << 1))))) {
  6255  077E  0020               	movlb	0	; select bank0
  6256  077F  084D               	movf	dtoa@i+1,w
  6257  0780  3A80               	xorlw	128
  6258  0781  00B8               	movwf	??_dtoa
  6259  0782  3080               	movlw	128
  6260  0783  0238               	subwf	??_dtoa,w
  6261  0784  1D03               	skipz
  6262  0785  2F88               	goto	u1345
  6263  0786  3001               	movlw	1
  6264  0787  024C               	subwf	dtoa@i,w
  6265  0788                     u1345:
  6266  0788  1C03               	skipc
  6267  0789  2F8B               	goto	u1341
  6268  078A  2F8C               	goto	u1340
  6269  078B                     u1341:
  6270  078B  2FB9               	goto	l1817
  6271  078C                     u1340:
  6272  078C                     l1809:
  6273  078C  0020               	movlb	0	; select bank0
  6274  078D  0844               	movf	dtoa@n,w
  6275  078E  0445               	iorwf	dtoa@n+1,w
  6276  078F  0446               	iorwf	dtoa@n+2,w
  6277  0790  0447               	iorwf	dtoa@n+3,w
  6278  0791  0448               	iorwf	dtoa@n+4,w
  6279  0792  0449               	iorwf	dtoa@n+5,w
  6280  0793  044A               	iorwf	dtoa@n+6,w
  6281  0794  044B               	iorwf	dtoa@n+7,w
  6282  0795  1D03               	skipz
  6283  0796  2F98               	goto	u1351
  6284  0797  2F99               	goto	u1350
  6285  0798                     u1351:
  6286  0798  2F16               	goto	l1799
  6287  0799                     u1350:
  6288  0799                     l1811:
  6289  0799  083E               	movf	dtoa@p+1,w
  6290  079A  3A80               	xorlw	128
  6291  079B  00B8               	movwf	??_dtoa
  6292  079C  3080               	movlw	128
  6293  079D  0238               	subwf	??_dtoa,w
  6294  079E  1D03               	skipz
  6295  079F  2FA2               	goto	u1365
  6296  07A0  3001               	movlw	1
  6297  07A1  023D               	subwf	dtoa@p,w
  6298  07A2                     u1365:
  6299  07A2  1803               	skipnc
  6300  07A3  2FA5               	goto	u1361
  6301  07A4  2FA6               	goto	u1360
  6302  07A5                     u1361:
  6303  07A5  2F16               	goto	l1799
  6304  07A6                     u1360:
  6305  07A6                     l1813:
  6306  07A6  0020               	movlb	0	; select bank0
  6307  07A7  0841               	movf	dtoa@w+1,w
  6308  07A8  3A80               	xorlw	128
  6309  07A9  00B8               	movwf	??_dtoa
  6310  07AA  3080               	movlw	128
  6311  07AB  0238               	subwf	??_dtoa,w
  6312  07AC  1D03               	skipz
  6313  07AD  2FB0               	goto	u1375
  6314  07AE  3001               	movlw	1
  6315  07AF  0240               	subwf	dtoa@w,w
  6316  07B0                     u1375:
  6317  07B0  1C03               	skipc
  6318  07B1  2FB3               	goto	u1371
  6319  07B2  2FB4               	goto	u1370
  6320  07B3                     u1371:
  6321  07B3  2FB9               	goto	l1817
  6322  07B4                     u1370:
  6323  07B4                     l1815:
  6324  07B4  0021               	movlb	1	; select bank1
  6325  07B5  18A6               	btfsc	_flags^(0+128),1
  6326  07B6  2FB8               	goto	u1381
  6327  07B7  2FB9               	goto	u1380
  6328  07B8                     u1381:
  6329  07B8  2F16               	goto	l1799
  6330  07B9                     u1380:
  6331  07B9                     l1817:
  6332                           
  6333                           ;C:\Program Files\Microchip\xc8\v2.31\pic\sources\c99\common\doprnt.c: 321:     if (s ||
      +                           (flags & (1 << 2))) {
  6334  07B9  0020               	movlb	0	; select bank0
  6335  07BA  0842               	movf	dtoa@s,w
  6336  07BB  0443               	iorwf	dtoa@s+1,w
  6337  07BC  1D03               	btfss	3,2
  6338  07BD  2FBF               	goto	u1391
  6339  07BE  2FC0               	goto	u1390
  6340  07BF                     u1391:
  6341  07BF  2FC5               	goto	l1821
  6342  07C0                     u1390:
  6343  07C0                     l1819:
  6344  07C0  0021               	movlb	1	; select bank1
  6345  07C1  1D26               	btfss	_flags^(0+128),2
  6346  07C2  2FC4               	goto	u1401
  6347  07C3  2FC5               	goto	u1400
  6348  07C4                     u1401:
  6349  07C4  2FE1               	goto	l1831
  6350  07C5                     u1400:
  6351  07C5                     l1821:
  6352                           
  6353                           ;C:\Program Files\Microchip\xc8\v2.31\pic\sources\c99\common\doprnt.c: 322:         --i;
  6354  07C5  30FF               	movlw	255
  6355  07C6  0020               	movlb	0	; select bank0
  6356  07C7  07CC               	addwf	dtoa@i,f
  6357  07C8  30FF               	movlw	255
  6358  07C9  3DCD               	addwfc	dtoa@i+1,f
  6359  07CA                     l1823:
  6360                           
  6361                           ;C:\Program Files\Microchip\xc8\v2.31\pic\sources\c99\common\doprnt.c: 323:         dbuf
      +                          [i] = s ? '-' : '+';
  6362  07CA  0842               	movf	dtoa@s,w
  6363  07CB  0443               	iorwf	dtoa@s+1,w
  6364  07CC  1D03               	btfss	3,2
  6365  07CD  2FCF               	goto	u1411
  6366  07CE  2FD0               	goto	u1410
  6367  07CF                     u1411:
  6368  07CF  2FD5               	goto	l1827
  6369  07D0                     u1410:
  6370  07D0                     l1825:
  6371  07D0  302B               	movlw	43
  6372  07D1  00BB               	movwf	_dtoa$1067
  6373  07D2  3000               	movlw	0
  6374  07D3  00BC               	movwf	_dtoa$1067+1
  6375  07D4  2FD9               	goto	l1829
  6376  07D5                     l1827:
  6377  07D5  302D               	movlw	45
  6378  07D6  00BB               	movwf	_dtoa$1067
  6379  07D7  3000               	movlw	0
  6380  07D8  00BC               	movwf	_dtoa$1067+1
  6381  07D9                     l1829:
  6382  07D9  083B               	movf	_dtoa$1067,w
  6383  07DA  00B8               	movwf	??_dtoa
  6384  07DB  084C               	movf	dtoa@i,w
  6385  07DC  3EA9               	addlw	(low (_dbuf| 0))& (0+255)
  6386  07DD  0086               	movwf	6
  6387  07DE  0187               	clrf	7
  6388  07DF  0838               	movf	??_dtoa,w
  6389  07E0  0081               	movwf	1
  6390  07E1                     l1831:
  6391                           
  6392                           ;C:\Program Files\Microchip\xc8\v2.31\pic\sources\c99\common\doprnt.c: 327:     return p
      +                          ad(fp, &dbuf[i], w);
  6393  07E1  0020               	movlb	0	; select bank0
  6394  07E2  084C               	movf	dtoa@i,w
  6395  07E3  3EA9               	addlw	(low (_dbuf| 0))& (0+255)
  6396  07E4  00B8               	movwf	??_dtoa
  6397  07E5  0838               	movf	??_dtoa,w
  6398  07E6  00A4               	movwf	pad@buf
  6399  07E7  0841               	movf	dtoa@w+1,w
  6400  07E8  00A6               	movwf	pad@p+1
  6401  07E9  0840               	movf	dtoa@w,w
  6402  07EA  00A5               	movwf	pad@p
  6403  07EB  083F               	movf	dtoa@fp,w
  6404  07EC  3182  2215  3186   	fcall	_pad
  6405  07EF  0020               	movlb	0	; select bank0
  6406  07F0  0825               	movf	?_pad+1,w
  6407  07F1  00B1               	movwf	?_dtoa+1
  6408  07F2  0824               	movf	?_pad,w
  6409  07F3  00B0               	movwf	?_dtoa
  6410  07F4                     l972:
  6411  07F4  0008               	return
  6412  07F5                     __end_of_dtoa:
  6413                           
  6414                           	psect	text23
  6415  0215                     __ptext23:	
  6416 ;; *************** function _pad *****************
  6417 ;; Defined at:
  6418 ;;		line 72 in file "C:\Program Files\Microchip\xc8\v2.31\pic\sources\c99\common\doprnt.c"
  6419 ;; Parameters:    Size  Location     Type
  6420 ;;  fp              1    wreg     PTR struct _IO_FILE
  6421 ;;		 -> NULL(0), 
  6422 ;;  buf             1    4[BANK0 ] PTR unsigned char 
  6423 ;;		 -> dbuf(32), 
  6424 ;;  p               2    5[BANK0 ] int 
  6425 ;; Auto vars:     Size  Location     Type
  6426 ;;  fp              1   12[BANK0 ] PTR struct _IO_FILE
  6427 ;;		 -> NULL(0), 
  6428 ;;  w               2   10[BANK0 ] int 
  6429 ;;  i               2    8[BANK0 ] int 
  6430 ;; Return value:  Size  Location     Type
  6431 ;;                  2    4[BANK0 ] int 
  6432 ;; Registers used:
  6433 ;;		wreg, fsr1l, fsr1h, status,2, status,0, pclath, cstack
  6434 ;; Tracked objects:
  6435 ;;		On entry : 0/0
  6436 ;;		On exit  : 0/0
  6437 ;;		Unchanged: 0/0
  6438 ;; Data sizes:     COMMON   BANK0   BANK1   BANK2   BANK3   BANK4   BANK5   BANK6   BANK7   BANK8   BANK9  BANK10  BANK1
      +1  BANK12
  6439 ;;      Params:         0       3       0       0       0       0       0       0       0       0       0       0       
      +0       0
  6440 ;;      Locals:         0       5       0       0       0       0       0       0       0       0       0       0       
      +0       0
  6441 ;;      Temps:          0       1       0       0       0       0       0       0       0       0       0       0       
      +0       0
  6442 ;;      Totals:         0       9       0       0       0       0       0       0       0       0       0       0       
      +0       0
  6443 ;;Total ram usage:        9 bytes
  6444 ;; Hardware stack levels used:    1
  6445 ;; Hardware stack levels required when called:    4
  6446 ;; This function calls:
  6447 ;;		_fputc
  6448 ;;		_fputs
  6449 ;;		_strlen
  6450 ;; This function is called by:
  6451 ;;		_dtoa
  6452 ;; This function uses a non-reentrant model
  6453 ;;
  6454                           
  6455                           
  6456                           ;psect for function _pad
  6457  0215                     _pad:
  6458                           
  6459                           ;incstack = 0
  6460                           ; Regs used in _pad: [wreg+fsr1l+fsr1h+status,2+status,0+pclath+cstack]
  6461                           ;pad@fp stored from wreg
  6462  0215  0020               	movlb	0	; select bank0
  6463  0216  00AC               	movwf	pad@fp
  6464  0217                     l1753:
  6465                           
  6466                           ;C:\Program Files\Microchip\xc8\v2.31\pic\sources\c99\common\doprnt.c: 72: static int pa
      +                          d(FILE *fp, char *buf, int p);C:\Program Files\Microchip\xc8\v2.31\pic\sources\c99\commo
      +                          n\doprnt.c: 73: {;C:\Program Files\Microchip\xc8\v2.31\pic\sources\c99\common\doprnt.c: 
      +                          74:     int i, w;;C:\Program Files\Microchip\xc8\v2.31\pic\sources\c99\common\doprnt.c: 
      +                          77:     if (flags & (1 << 0)) {
  6467  0217  0021               	movlb	1	; select bank1
  6468  0218  1C26               	btfss	_flags^(0+128),0
  6469  0219  2A1B               	goto	u1211
  6470  021A  2A1C               	goto	u1210
  6471  021B                     u1211:
  6472  021B  2A25               	goto	l1757
  6473  021C                     u1210:
  6474  021C                     l1755:
  6475                           
  6476                           ;C:\Program Files\Microchip\xc8\v2.31\pic\sources\c99\common\doprnt.c: 78:         fputs
      +                          ((const char *)buf, fp);
  6477  021C  0020               	movlb	0	; select bank0
  6478  021D  082C               	movf	pad@fp,w
  6479  021E  00A7               	movwf	??_pad
  6480  021F  0827               	movf	??_pad,w
  6481  0220  00FA               	movwf	fputs@fp
  6482  0221  0824               	movf	pad@buf,w
  6483  0222  3180  2094  3182   	fcall	_fputs
  6484  0225                     l1757:
  6485                           
  6486                           ;C:\Program Files\Microchip\xc8\v2.31\pic\sources\c99\common\doprnt.c: 82:     w = (p < 
      +                          0) ? 0 : p;
  6487  0225  0020               	movlb	0	; select bank0
  6488  0226  1BA6               	btfsc	pad@p+1,7
  6489  0227  2A29               	goto	u1221
  6490  0228  2A2A               	goto	u1220
  6491  0229                     u1221:
  6492  0229  2A2F               	goto	l1761
  6493  022A                     u1220:
  6494  022A                     l1759:
  6495  022A  0826               	movf	pad@p+1,w
  6496  022B  00AB               	movwf	pad@w+1
  6497  022C  0825               	movf	pad@p,w
  6498  022D  00AA               	movwf	pad@w
  6499  022E  2A31               	goto	l941
  6500  022F                     l1761:
  6501  022F  01AA               	clrf	pad@w
  6502  0230  01AB               	clrf	pad@w+1
  6503  0231                     l941:
  6504                           
  6505                           ;C:\Program Files\Microchip\xc8\v2.31\pic\sources\c99\common\doprnt.c: 83:     i = 0;
  6506  0231  01A8               	clrf	pad@i
  6507  0232  01A9               	clrf	pad@i+1
  6508                           
  6509                           ;C:\Program Files\Microchip\xc8\v2.31\pic\sources\c99\common\doprnt.c: 84:     while (i 
      +                          < w) {
  6510  0233  2A45               	goto	l1767
  6511  0234                     l1763:
  6512                           
  6513                           ;C:\Program Files\Microchip\xc8\v2.31\pic\sources\c99\common\doprnt.c: 85:         fputc
      +                          (' ', fp);
  6514  0234  3020               	movlw	32
  6515  0235  00F2               	movwf	fputc@c
  6516  0236  3000               	movlw	0
  6517  0237  00F3               	movwf	fputc@c+1
  6518  0238  0020               	movlb	0	; select bank0
  6519  0239  082C               	movf	pad@fp,w
  6520  023A  00A7               	movwf	??_pad
  6521  023B  0827               	movf	??_pad,w
  6522  023C  00F4               	movwf	fputc@fp
  6523  023D  3180  20ED  3182   	fcall	_fputc
  6524  0240                     l1765:
  6525                           
  6526                           ;C:\Program Files\Microchip\xc8\v2.31\pic\sources\c99\common\doprnt.c: 86:         ++i;
  6527  0240  3001               	movlw	1
  6528  0241  0020               	movlb	0	; select bank0
  6529  0242  07A8               	addwf	pad@i,f
  6530  0243  3000               	movlw	0
  6531  0244  3DA9               	addwfc	pad@i+1,f
  6532  0245                     l1767:
  6533                           
  6534                           ;C:\Program Files\Microchip\xc8\v2.31\pic\sources\c99\common\doprnt.c: 84:     while (i 
      +                          < w) {
  6535  0245  0829               	movf	pad@i+1,w
  6536  0246  3A80               	xorlw	128
  6537  0247  00A7               	movwf	??_pad
  6538  0248  082B               	movf	pad@w+1,w
  6539  0249  3A80               	xorlw	128
  6540  024A  0227               	subwf	??_pad,w
  6541  024B  1D03               	skipz
  6542  024C  2A4F               	goto	u1235
  6543  024D  082A               	movf	pad@w,w
  6544  024E  0228               	subwf	pad@i,w
  6545  024F                     u1235:
  6546  024F  1C03               	skipc
  6547  0250  2A52               	goto	u1231
  6548  0251  2A53               	goto	u1230
  6549  0252                     u1231:
  6550  0252  2A34               	goto	l1763
  6551  0253                     u1230:
  6552  0253                     l944:
  6553                           
  6554                           ;C:\Program Files\Microchip\xc8\v2.31\pic\sources\c99\common\doprnt.c: 90:     if (!(fla
      +                          gs & (1 << 0))) {
  6555  0253  0021               	movlb	1	; select bank1
  6556  0254  1826               	btfsc	_flags^(0+128),0
  6557  0255  2A57               	goto	u1241
  6558  0256  2A58               	goto	u1240
  6559  0257                     u1241:
  6560  0257  2A61               	goto	l945
  6561  0258                     u1240:
  6562  0258                     l1769:
  6563                           
  6564                           ;C:\Program Files\Microchip\xc8\v2.31\pic\sources\c99\common\doprnt.c: 91:         fputs
      +                          ((const char *)buf, fp);
  6565  0258  0020               	movlb	0	; select bank0
  6566  0259  082C               	movf	pad@fp,w
  6567  025A  00A7               	movwf	??_pad
  6568  025B  0827               	movf	??_pad,w
  6569  025C  00FA               	movwf	fputs@fp
  6570  025D  0824               	movf	pad@buf,w
  6571  025E  3180  2094  3182   	fcall	_fputs
  6572  0261                     l945:	
  6573                           ;C:\Program Files\Microchip\xc8\v2.31\pic\sources\c99\common\doprnt.c: 92:     }
  6574                           
  6575                           
  6576                           ;C:\Program Files\Microchip\xc8\v2.31\pic\sources\c99\common\doprnt.c: 94:     return (i
      +                          nt)(strlen(buf) + (size_t)w);
  6577  0261  0020               	movlb	0	; select bank0
  6578  0262  0824               	movf	pad@buf,w
  6579  0263  318F  279C  3182   	fcall	_strlen
  6580  0266  0020               	movlb	0	; select bank0
  6581  0267  082A               	movf	pad@w,w
  6582  0268  0770               	addwf	?_strlen,w
  6583  0269  00A4               	movwf	?_pad
  6584  026A  082B               	movf	pad@w+1,w
  6585  026B  3D71               	addwfc	?_strlen+1,w
  6586  026C  00A5               	movwf	?_pad+1
  6587  026D                     l946:
  6588  026D  0008               	return
  6589  026E                     __end_of_pad:
  6590                           
  6591                           	psect	text24
  6592  0F9C                     __ptext24:	
  6593 ;; *************** function _strlen *****************
  6594 ;; Defined at:
  6595 ;;		line 5 in file "C:\Program Files\Microchip\xc8\v2.31\pic\sources\c99\common\strlen.c"
  6596 ;; Parameters:    Size  Location     Type
  6597 ;;  s               1    wreg     PTR const unsigned char 
  6598 ;;		 -> dbuf(32), 
  6599 ;; Auto vars:     Size  Location     Type
  6600 ;;  s               1    4[COMMON] PTR const unsigned char 
  6601 ;;		 -> dbuf(32), 
  6602 ;;  a               1    3[COMMON] PTR const unsigned char 
  6603 ;;		 -> dbuf(32), 
  6604 ;; Return value:  Size  Location     Type
  6605 ;;                  2    0[COMMON] unsigned int 
  6606 ;; Registers used:
  6607 ;;		wreg, fsr1l, fsr1h, status,2, status,0
  6608 ;; Tracked objects:
  6609 ;;		On entry : 0/0
  6610 ;;		On exit  : 0/0
  6611 ;;		Unchanged: 0/0
  6612 ;; Data sizes:     COMMON   BANK0   BANK1   BANK2   BANK3   BANK4   BANK5   BANK6   BANK7   BANK8   BANK9  BANK10  BANK1
      +1  BANK12
  6613 ;;      Params:         2       0       0       0       0       0       0       0       0       0       0       0       
      +0       0
  6614 ;;      Locals:         2       0       0       0       0       0       0       0       0       0       0       0       
      +0       0
  6615 ;;      Temps:          1       0       0       0       0       0       0       0       0       0       0       0       
      +0       0
  6616 ;;      Totals:         5       0       0       0       0       0       0       0       0       0       0       0       
      +0       0
  6617 ;;Total ram usage:        5 bytes
  6618 ;; Hardware stack levels used:    1
  6619 ;; This function calls:
  6620 ;;		Nothing
  6621 ;; This function is called by:
  6622 ;;		_pad
  6623 ;; This function uses a non-reentrant model
  6624 ;;
  6625                           
  6626                           
  6627                           ;psect for function _strlen
  6628  0F9C                     _strlen:
  6629                           
  6630                           ;incstack = 0
  6631                           ; Regs used in _strlen: [wreg+fsr1l+fsr1h+status,2+status,0]
  6632                           ;strlen@s stored from wreg
  6633  0F9C  00F4               	movwf	strlen@s
  6634  0F9D                     l1675:
  6635  0F9D  0874               	movf	strlen@s,w
  6636  0F9E  00F2               	movwf	??_strlen
  6637  0F9F  0872               	movf	??_strlen,w
  6638  0FA0  00F3               	movwf	strlen@a
  6639  0FA1  2FA6               	goto	l1679
  6640  0FA2                     l1677:
  6641  0FA2  3001               	movlw	1
  6642  0FA3  00F2               	movwf	??_strlen
  6643  0FA4  0872               	movf	??_strlen,w
  6644  0FA5  07F4               	addwf	strlen@s,f
  6645  0FA6                     l1679:
  6646  0FA6  0874               	movf	strlen@s,w
  6647  0FA7  0086               	movwf	6
  6648  0FA8  0187               	clrf	7
  6649  0FA9  0801               	movf	1,w
  6650  0FAA  1D03               	btfss	3,2
  6651  0FAB  2FAD               	goto	u991
  6652  0FAC  2FAE               	goto	u990
  6653  0FAD                     u991:
  6654  0FAD  2FA2               	goto	l1677
  6655  0FAE                     u990:
  6656  0FAE                     l1681:
  6657  0FAE  0873               	movf	strlen@a,w
  6658  0FAF  0274               	subwf	strlen@s,w
  6659  0FB0  00F0               	movwf	?_strlen
  6660  0FB1  01F1               	clrf	?_strlen+1
  6661  0FB2  1BF0               	btfsc	?_strlen,7
  6662  0FB3  03F1               	decf	?_strlen+1,f
  6663  0FB4                     l1019:
  6664  0FB4  0008               	return
  6665  0FB5                     __end_of_strlen:
  6666                           
  6667                           	psect	text25
  6668  0094                     __ptext25:	
  6669 ;; *************** function _fputs *****************
  6670 ;; Defined at:
  6671 ;;		line 8 in file "C:\Program Files\Microchip\xc8\v2.31\pic\sources\c99\common\nf_fputs.c"
  6672 ;; Parameters:    Size  Location     Type
  6673 ;;  s               1    wreg     PTR const unsigned char 
  6674 ;;		 -> dbuf(32), 
  6675 ;;  fp              1   10[COMMON] PTR struct _IO_FILE
  6676 ;;		 -> NULL(0), 
  6677 ;; Auto vars:     Size  Location     Type
  6678 ;;  s               1    3[BANK0 ] PTR const unsigned char 
  6679 ;;		 -> dbuf(32), 
  6680 ;;  i               2    1[BANK0 ] int 
  6681 ;;  c               1    0[BANK0 ] unsigned char 
  6682 ;; Return value:  Size  Location     Type
  6683 ;;                  2   10[COMMON] int 
  6684 ;; Registers used:
  6685 ;;		wreg, fsr1l, fsr1h, status,2, status,0, pclath, cstack
  6686 ;; Tracked objects:
  6687 ;;		On entry : 0/0
  6688 ;;		On exit  : 0/0
  6689 ;;		Unchanged: 0/0
  6690 ;; Data sizes:     COMMON   BANK0   BANK1   BANK2   BANK3   BANK4   BANK5   BANK6   BANK7   BANK8   BANK9  BANK10  BANK1
      +1  BANK12
  6691 ;;      Params:         1       0       0       0       0       0       0       0       0       0       0       0       
      +0       0
  6692 ;;      Locals:         0       4       0       0       0       0       0       0       0       0       0       0       
      +0       0
  6693 ;;      Temps:          3       0       0       0       0       0       0       0       0       0       0       0       
      +0       0
  6694 ;;      Totals:         4       4       0       0       0       0       0       0       0       0       0       0       
      +0       0
  6695 ;;Total ram usage:        8 bytes
  6696 ;; Hardware stack levels used:    1
  6697 ;; Hardware stack levels required when called:    3
  6698 ;; This function calls:
  6699 ;;		_fputc
  6700 ;; This function is called by:
  6701 ;;		_pad
  6702 ;; This function uses a non-reentrant model
  6703 ;;
  6704                           
  6705                           
  6706                           ;psect for function _fputs
  6707  0094                     _fputs:
  6708                           
  6709                           ;incstack = 0
  6710                           ; Regs used in _fputs: [wreg+fsr1l+fsr1h+status,2+status,0+pclath+cstack]
  6711                           ;fputs@s stored from wreg
  6712  0094  0020               	movlb	0	; select bank0
  6713  0095  00A3               	movwf	fputs@s
  6714  0096                     l1667:
  6715  0096  01A1               	clrf	fputs@i
  6716  0097  01A2               	clrf	fputs@i+1
  6717  0098  28AC               	goto	l1673
  6718  0099                     l1669:
  6719  0099  0820               	movf	fputs@c,w
  6720  009A  00FB               	movwf	??_fputs
  6721  009B  01FC               	clrf	??_fputs+1
  6722  009C  087B               	movf	??_fputs,w
  6723  009D  00F2               	movwf	fputc@c
  6724  009E  087C               	movf	??_fputs+1,w
  6725  009F  00F3               	movwf	fputc@c+1
  6726  00A0  087A               	movf	fputs@fp,w
  6727  00A1  00FD               	movwf	??_fputs+2
  6728  00A2  087D               	movf	??_fputs+2,w
  6729  00A3  00F4               	movwf	fputc@fp
  6730  00A4  3180  20ED  3180   	fcall	_fputc
  6731  00A7                     l1671:
  6732  00A7  3001               	movlw	1
  6733  00A8  0020               	movlb	0	; select bank0
  6734  00A9  07A1               	addwf	fputs@i,f
  6735  00AA  3000               	movlw	0
  6736  00AB  3DA2               	addwfc	fputs@i+1,f
  6737  00AC                     l1673:
  6738  00AC  0821               	movf	fputs@i,w
  6739  00AD  0723               	addwf	fputs@s,w
  6740  00AE  00FB               	movwf	??_fputs
  6741  00AF  087B               	movf	??_fputs,w
  6742  00B0  0086               	movwf	6
  6743  00B1  0187               	clrf	7
  6744  00B2  0801               	movf	1,w
  6745  00B3  00FC               	movwf	??_fputs+1
  6746  00B4  087C               	movf	??_fputs+1,w
  6747  00B5  00A0               	movwf	fputs@c
  6748  00B6  0820               	movf	fputs@c,w
  6749  00B7  1D03               	btfss	3,2
  6750  00B8  28BA               	goto	u981
  6751  00B9  28BB               	goto	u980
  6752  00BA                     u981:
  6753  00BA  2899               	goto	l1669
  6754  00BB                     u980:
  6755  00BB                     l1013:
  6756  00BB  0008               	return
  6757  00BC                     __end_of_fputs:
  6758                           
  6759                           	psect	text26
  6760  00ED                     __ptext26:	
  6761 ;; *************** function _fputc *****************
  6762 ;; Defined at:
  6763 ;;		line 8 in file "C:\Program Files\Microchip\xc8\v2.31\pic\sources\c99\common\nf_fputc.c"
  6764 ;; Parameters:    Size  Location     Type
  6765 ;;  c               2    2[COMMON] int 
  6766 ;;  fp              1    4[COMMON] PTR struct _IO_FILE
  6767 ;;		 -> NULL(0), 
  6768 ;; Auto vars:     Size  Location     Type
  6769 ;;		None
  6770 ;; Return value:  Size  Location     Type
  6771 ;;                  2    2[COMMON] int 
  6772 ;; Registers used:
  6773 ;;		wreg, fsr1l, fsr1h, status,2, status,0, pclath, cstack
  6774 ;; Tracked objects:
  6775 ;;		On entry : 0/0
  6776 ;;		On exit  : 0/0
  6777 ;;		Unchanged: 0/0
  6778 ;; Data sizes:     COMMON   BANK0   BANK1   BANK2   BANK3   BANK4   BANK5   BANK6   BANK7   BANK8   BANK9  BANK10  BANK1
      +1  BANK12
  6779 ;;      Params:         3       0       0       0       0       0       0       0       0       0       0       0       
      +0       0
  6780 ;;      Locals:         0       0       0       0       0       0       0       0       0       0       0       0       
      +0       0
  6781 ;;      Temps:          5       0       0       0       0       0       0       0       0       0       0       0       
      +0       0
  6782 ;;      Totals:         8       0       0       0       0       0       0       0       0       0       0       0       
      +0       0
  6783 ;;Total ram usage:        8 bytes
  6784 ;; Hardware stack levels used:    1
  6785 ;; Hardware stack levels required when called:    2
  6786 ;; This function calls:
  6787 ;;		_putch
  6788 ;; This function is called by:
  6789 ;;		_pad
  6790 ;;		_vfpfcnvrt
  6791 ;;		_fputs
  6792 ;; This function uses a non-reentrant model
  6793 ;;
  6794                           
  6795                           
  6796                           ;psect for function _fputc
  6797  00ED                     _fputc:
  6798  00ED                     l1653:	
  6799                           ;incstack = 0
  6800                           ; Regs used in _fputc: [wreg+fsr1l+fsr1h+status,2+status,0+pclath+cstack]
  6801                           
  6802  00ED  0874               	movf	fputc@fp,w
  6803  00EE  1903               	btfsc	3,2
  6804  00EF  28F1               	goto	u941
  6805  00F0  28F2               	goto	u940
  6806  00F1                     u941:
  6807  00F1  28F7               	goto	l1657
  6808  00F2                     u940:
  6809  00F2                     l1655:
  6810  00F2  0874               	movf	fputc@fp,w
  6811  00F3  1D03               	btfss	3,2
  6812  00F4  28F6               	goto	u951
  6813  00F5  28F7               	goto	u950
  6814  00F6                     u951:
  6815  00F6  28FC               	goto	l1659
  6816  00F7                     u950:
  6817  00F7                     l1657:
  6818  00F7  0872               	movf	fputc@c,w
  6819  00F8  318E  26AF  3180   	fcall	_putch
  6820  00FB  292B               	goto	l1005
  6821  00FC                     l1659:
  6822  00FC  0874               	movf	fputc@fp,w
  6823  00FD  3E03               	addlw	3
  6824  00FE  0086               	movwf	6
  6825  00FF  0187               	clrf	7
  6826  0100  0016               	moviw fsr1++
  6827  0101  0401               	iorwf	1,w
  6828  0102  1903               	btfsc	3,2
  6829  0103  2905               	goto	u961
  6830  0104  2906               	goto	u960
  6831  0105                     u961:
  6832  0105  2923               	goto	l1663
  6833  0106                     u960:
  6834  0106                     l1661:
  6835  0106  0874               	movf	fputc@fp,w
  6836  0107  3E03               	addlw	3
  6837  0108  0086               	movwf	6
  6838  0109  0187               	clrf	7
  6839  010A  3F40               	moviw [0]fsr1
  6840  010B  00F5               	movwf	??_fputc
  6841  010C  3F41               	moviw [1]fsr1
  6842  010D  00F6               	movwf	??_fputc+1
  6843  010E  0A74               	incf	fputc@fp,w
  6844  010F  0086               	movwf	6
  6845  0110  0187               	clrf	7
  6846  0111  3F40               	moviw [0]fsr1
  6847  0112  00F7               	movwf	??_fputc+2
  6848  0113  3F41               	moviw [1]fsr1
  6849  0114  00F8               	movwf	??_fputc+3
  6850  0115  0878               	movf	??_fputc+3,w
  6851  0116  3A80               	xorlw	128
  6852  0117  00F9               	movwf	??_fputc+4
  6853  0118  0876               	movf	??_fputc+1,w
  6854  0119  3A80               	xorlw	128
  6855  011A  0279               	subwf	??_fputc+4,w
  6856  011B  1D03               	skipz
  6857  011C  291F               	goto	u975
  6858  011D  0875               	movf	??_fputc,w
  6859  011E  0277               	subwf	??_fputc+2,w
  6860  011F                     u975:
  6861  011F  1803               	skipnc
  6862  0120  2922               	goto	u971
  6863  0121  2923               	goto	u970
  6864  0122                     u971:
  6865  0122  292B               	goto	l1005
  6866  0123                     u970:
  6867  0123                     l1663:
  6868  0123  0A74               	incf	fputc@fp,w
  6869  0124  0086               	movwf	6
  6870  0125  0187               	clrf	7
  6871  0126  3001               	movlw	1
  6872  0127  0781               	addwf	1,f
  6873  0128  3141               	addfsr 1,1
  6874  0129  1803               	skipnc
  6875  012A  0A81               	incf	1,f
  6876  012B                     l1005:
  6877  012B  0008               	return
  6878  012C                     __end_of_fputc:
  6879                           
  6880                           	psect	text27
  6881  0EAF                     __ptext27:	
  6882 ;; *************** function _putch *****************
  6883 ;; Defined at:
  6884 ;;		line 146 in file "mcc_generated_files/eusart.c"
  6885 ;; Parameters:    Size  Location     Type
  6886 ;;  txData          1    wreg     unsigned char 
  6887 ;; Auto vars:     Size  Location     Type
  6888 ;;  txData          1    1[COMMON] unsigned char 
  6889 ;; Return value:  Size  Location     Type
  6890 ;;                  1    wreg      void 
  6891 ;; Registers used:
  6892 ;;		wreg, status,2, status,0, pclath, cstack
  6893 ;; Tracked objects:
  6894 ;;		On entry : 0/0
  6895 ;;		On exit  : 0/0
  6896 ;;		Unchanged: 0/0
  6897 ;; Data sizes:     COMMON   BANK0   BANK1   BANK2   BANK3   BANK4   BANK5   BANK6   BANK7   BANK8   BANK9  BANK10  BANK1
      +1  BANK12
  6898 ;;      Params:         0       0       0       0       0       0       0       0       0       0       0       0       
      +0       0
  6899 ;;      Locals:         1       0       0       0       0       0       0       0       0       0       0       0       
      +0       0
  6900 ;;      Temps:          0       0       0       0       0       0       0       0       0       0       0       0       
      +0       0
  6901 ;;      Totals:         1       0       0       0       0       0       0       0       0       0       0       0       
      +0       0
  6902 ;;Total ram usage:        1 bytes
  6903 ;; Hardware stack levels used:    1
  6904 ;; Hardware stack levels required when called:    1
  6905 ;; This function calls:
  6906 ;;		_EUSART_Write
  6907 ;; This function is called by:
  6908 ;;		_fputc
  6909 ;; This function uses a non-reentrant model
  6910 ;;
  6911                           
  6912                           
  6913                           ;psect for function _putch
  6914  0EAF                     _putch:
  6915                           
  6916                           ;incstack = 0
  6917                           ; Regs used in _putch: [wreg+status,2+status,0+pclath+cstack]
  6918                           ;putch@txData stored from wreg
  6919  0EAF  00F1               	movwf	putch@txData
  6920  0EB0                     l1651:
  6921                           
  6922                           ;mcc_generated_files/eusart.c: 146: void putch(char txData);mcc_generated_files/eusart.c
      +                          : 147: {;mcc_generated_files/eusart.c: 148:     EUSART_Write(txData);
  6923  0EB0  0871               	movf	putch@txData,w
  6924  0EB1  318E  26E7  318E   	fcall	_EUSART_Write
  6925  0EB4                     l193:
  6926  0EB4  0008               	return
  6927  0EB5                     __end_of_putch:
  6928                           
  6929                           	psect	text28
  6930  0EE7                     __ptext28:	
  6931 ;; *************** function _EUSART_Write *****************
  6932 ;; Defined at:
  6933 ;;		line 132 in file "mcc_generated_files/eusart.c"
  6934 ;; Parameters:    Size  Location     Type
  6935 ;;  txData          1    wreg     unsigned char 
  6936 ;; Auto vars:     Size  Location     Type
  6937 ;;  txData          1    0[COMMON] unsigned char 
  6938 ;; Return value:  Size  Location     Type
  6939 ;;                  1    wreg      void 
  6940 ;; Registers used:
  6941 ;;		wreg
  6942 ;; Tracked objects:
  6943 ;;		On entry : 0/0
  6944 ;;		On exit  : 0/0
  6945 ;;		Unchanged: 0/0
  6946 ;; Data sizes:     COMMON   BANK0   BANK1   BANK2   BANK3   BANK4   BANK5   BANK6   BANK7   BANK8   BANK9  BANK10  BANK1
      +1  BANK12
  6947 ;;      Params:         0       0       0       0       0       0       0       0       0       0       0       0       
      +0       0
  6948 ;;      Locals:         1       0       0       0       0       0       0       0       0       0       0       0       
      +0       0
  6949 ;;      Temps:          0       0       0       0       0       0       0       0       0       0       0       0       
      +0       0
  6950 ;;      Totals:         1       0       0       0       0       0       0       0       0       0       0       0       
      +0       0
  6951 ;;Total ram usage:        1 bytes
  6952 ;; Hardware stack levels used:    1
  6953 ;; This function calls:
  6954 ;;		Nothing
  6955 ;; This function is called by:
  6956 ;;		_putch
  6957 ;; This function uses a non-reentrant model
  6958 ;;
  6959                           
  6960                           
  6961                           ;psect for function _EUSART_Write
  6962  0EE7                     _EUSART_Write:
  6963                           
  6964                           ;incstack = 0
  6965                           ; Regs used in _EUSART_Write: [wreg]
  6966                           ;EUSART_Write@txData stored from wreg
  6967  0EE7  00F0               	movwf	EUSART_Write@txData
  6968  0EE8                     l1647:
  6969  0EE8                     l184:	
  6970                           ;mcc_generated_files/eusart.c: 135:     {;mcc_generated_files/eusart.c: 136:     }
  6971                           
  6972                           
  6973                           ;mcc_generated_files/eusart.c: 134:     while(0 == PIR1bits.TXIF)
  6974  0EE8  0020               	movlb	0	; select bank0
  6975  0EE9  1E11               	btfss	17,4	;volatile
  6976  0EEA  2EEC               	goto	u931
  6977  0EEB  2EED               	goto	u930
  6978  0EEC                     u931:
  6979  0EEC  2EE8               	goto	l184
  6980  0EED                     u930:
  6981  0EED                     l1649:
  6982                           
  6983                           ;mcc_generated_files/eusart.c: 138:     TX1REG = txData;
  6984  0EED  0870               	movf	EUSART_Write@txData,w
  6985  0EEE  0023               	movlb	3	; select bank3
  6986  0EEF  009A               	movwf	26	;volatile
  6987  0EF0                     l187:
  6988  0EF0  0008               	return
  6989  0EF1                     __end_of_EUSART_Write:
  6990                           
  6991                           	psect	text29
  6992  0014                     __ptext29:	
  6993 ;; *************** function _abs *****************
  6994 ;; Defined at:
  6995 ;;		line 1 in file "C:\Program Files\Microchip\xc8\v2.31\pic\sources\c99\common\abs.c"
  6996 ;; Parameters:    Size  Location     Type
  6997 ;;  a               2    3[COMMON] int 
  6998 ;; Auto vars:     Size  Location     Type
  6999 ;;		None
  7000 ;; Return value:  Size  Location     Type
  7001 ;;                  2    3[COMMON] int 
  7002 ;; Registers used:
  7003 ;;		wreg, status,2, status,0
  7004 ;; Tracked objects:
  7005 ;;		On entry : 0/0
  7006 ;;		On exit  : 0/0
  7007 ;;		Unchanged: 0/0
  7008 ;; Data sizes:     COMMON   BANK0   BANK1   BANK2   BANK3   BANK4   BANK5   BANK6   BANK7   BANK8   BANK9  BANK10  BANK1
      +1  BANK12
  7009 ;;      Params:         2       0       0       0       0       0       0       0       0       0       0       0       
      +0       0
  7010 ;;      Locals:         0       0       0       0       0       0       0       0       0       0       0       0       
      +0       0
  7011 ;;      Temps:          2       0       0       0       0       0       0       0       0       0       0       0       
      +0       0
  7012 ;;      Totals:         4       0       0       0       0       0       0       0       0       0       0       0       
      +0       0
  7013 ;;Total ram usage:        4 bytes
  7014 ;; Hardware stack levels used:    1
  7015 ;; This function calls:
  7016 ;;		Nothing
  7017 ;; This function is called by:
  7018 ;;		_dtoa
  7019 ;; This function uses a non-reentrant model
  7020 ;;
  7021                           
  7022                           
  7023                           ;psect for function _abs
  7024  0014                     _abs:
  7025  0014                     l1773:	
  7026                           ;incstack = 0
  7027                           ; Regs used in _abs: [wreg+status,2+status,0]
  7028                           
  7029  0014  0874               	movf	abs@a+1,w
  7030  0015  3A80               	xorlw	128
  7031  0016  00F5               	movwf	??_abs
  7032  0017  3080               	movlw	128
  7033  0018  0275               	subwf	??_abs,w
  7034  0019  1D03               	skipz
  7035  001A  281D               	goto	u1255
  7036  001B  3001               	movlw	1
  7037  001C  0273               	subwf	abs@a,w
  7038  001D                     u1255:
  7039  001D  1803               	skipnc
  7040  001E  2820               	goto	u1251
  7041  001F  2821               	goto	u1250
  7042  0020                     u1251:
  7043  0020  282D               	goto	l990
  7044  0021                     u1250:
  7045  0021                     l1775:
  7046  0021  0973               	comf	abs@a,w
  7047  0022  00F5               	movwf	??_abs
  7048  0023  0974               	comf	abs@a+1,w
  7049  0024  00F6               	movwf	??_abs+1
  7050  0025  0AF5               	incf	??_abs,f
  7051  0026  1903               	skipnz
  7052  0027  0AF6               	incf	??_abs+1,f
  7053  0028  0875               	movf	??_abs,w
  7054  0029  00F3               	movwf	?_abs
  7055  002A  0876               	movf	??_abs+1,w
  7056  002B  00F4               	movwf	?_abs+1
  7057  002C  282D               	goto	l993
  7058  002D                     l990:
  7059  002D                     l993:
  7060  002D  0008               	return
  7061  002E                     __end_of_abs:
  7062                           
  7063                           	psect	text30
  7064  049C                     __ptext30:	
  7065 ;; *************** function ___aomod *****************
  7066 ;; Defined at:
  7067 ;;		line 7 in file "C:\Program Files\Microchip\xc8\v2.31\pic\sources\c99\common\aomod.c"
  7068 ;; Parameters:    Size  Location     Type
  7069 ;;  divisor         8    0[BANK0 ] long long 
  7070 ;;  dividend        8    8[BANK0 ] long long 
  7071 ;; Auto vars:     Size  Location     Type
  7072 ;;  sign            1    2[COMMON] unsigned char 
  7073 ;;  counter         1    1[COMMON] unsigned char 
  7074 ;; Return value:  Size  Location     Type
  7075 ;;                  8    0[BANK0 ] long long 
  7076 ;; Registers used:
  7077 ;;		wreg, fsr1l, fsr1h, status,2, status,0
  7078 ;; Tracked objects:
  7079 ;;		On entry : 0/0
  7080 ;;		On exit  : 0/0
  7081 ;;		Unchanged: 0/0
  7082 ;; Data sizes:     COMMON   BANK0   BANK1   BANK2   BANK3   BANK4   BANK5   BANK6   BANK7   BANK8   BANK9  BANK10  BANK1
      +1  BANK12
  7083 ;;      Params:         0      16       0       0       0       0       0       0       0       0       0       0       
      +0       0
  7084 ;;      Locals:         2       0       0       0       0       0       0       0       0       0       0       0       
      +0       0
  7085 ;;      Temps:          1       0       0       0       0       0       0       0       0       0       0       0       
      +0       0
  7086 ;;      Totals:         3      16       0       0       0       0       0       0       0       0       0       0       
      +0       0
  7087 ;;Total ram usage:       19 bytes
  7088 ;; Hardware stack levels used:    1
  7089 ;; This function calls:
  7090 ;;		Nothing
  7091 ;; This function is called by:
  7092 ;;		_dtoa
  7093 ;; This function uses a non-reentrant model
  7094 ;;
  7095                           
  7096                           
  7097                           ;psect for function ___aomod
  7098  049C                     ___aomod:
  7099  049C                     l1723:	
  7100                           ;incstack = 0
  7101                           ; Regs used in ___aomod: [wreg+fsr1l+fsr1h+status,2+status,0]
  7102                           
  7103  049C  01F2               	clrf	___aomod@sign
  7104  049D                     l1725:
  7105  049D  3028               	movlw	low ___aomod@dividend
  7106  049E  0086               	movwf	6
  7107  049F  3000               	movlw	high ___aomod@dividend
  7108  04A0  0087               	movwf	7
  7109  04A1  3F47               	moviw [7]fsr1
  7110  04A2  00F0               	movwf	??___aomod
  7111  04A3  1FF0               	btfss	??___aomod,7
  7112  04A4  2CA6               	goto	u1111
  7113  04A5  2CA7               	goto	u1110
  7114  04A6                     u1111:
  7115  04A6  2CC8               	goto	l1729
  7116  04A7                     u1110:
  7117  04A7                     l1727:
  7118  04A7  0020               	movlb	0	; select bank0
  7119  04A8  09A8               	comf	___aomod@dividend,f
  7120  04A9  09A9               	comf	___aomod@dividend+1,f
  7121  04AA  09AA               	comf	___aomod@dividend+2,f
  7122  04AB  09AB               	comf	___aomod@dividend+3,f
  7123  04AC  09AC               	comf	___aomod@dividend+4,f
  7124  04AD  09AD               	comf	___aomod@dividend+5,f
  7125  04AE  09AE               	comf	___aomod@dividend+6,f
  7126  04AF  09AF               	comf	___aomod@dividend+7,f
  7127  04B0  0AA8               	incf	___aomod@dividend,f
  7128  04B1  1D03               	skipz
  7129  04B2  2CC6               	goto	u112lld
  7130  04B3  0AA9               	incf	___aomod@dividend+1,f
  7131  04B4  1D03               	skipz
  7132  04B5  2CC6               	goto	u112lld
  7133  04B6  0AAA               	incf	___aomod@dividend+2,f
  7134  04B7  1D03               	skipz
  7135  04B8  2CC6               	goto	u112lld
  7136  04B9  0AAB               	incf	___aomod@dividend+3,f
  7137  04BA  1D03               	skipz
  7138  04BB  2CC6               	goto	u112lld
  7139  04BC  0AAC               	incf	___aomod@dividend+4,f
  7140  04BD  1D03               	skipz
  7141  04BE  2CC6               	goto	u112lld
  7142  04BF  0AAD               	incf	___aomod@dividend+5,f
  7143  04C0  1D03               	skipz
  7144  04C1  2CC6               	goto	u112lld
  7145  04C2  0AAE               	incf	___aomod@dividend+6,f
  7146  04C3  1D03               	skipz
  7147  04C4  2CC6               	goto	u112lld
  7148  04C5  0AAF               	incf	___aomod@dividend+7,f
  7149  04C6                     u112lld:
  7150  04C6  01F2               	clrf	___aomod@sign
  7151  04C7  0AF2               	incf	___aomod@sign,f
  7152  04C8                     l1729:
  7153  04C8  3020               	movlw	low ___aomod@divisor
  7154  04C9  0086               	movwf	6
  7155  04CA  3000               	movlw	high ___aomod@divisor
  7156  04CB  0087               	movwf	7
  7157  04CC  3F47               	moviw [7]fsr1
  7158  04CD  00F0               	movwf	??___aomod
  7159  04CE  1FF0               	btfss	??___aomod,7
  7160  04CF  2CD1               	goto	u1131
  7161  04D0  2CD2               	goto	u1130
  7162  04D1                     u1131:
  7163  04D1  2CF1               	goto	l1733
  7164  04D2                     u1130:
  7165  04D2                     l1731:
  7166  04D2  0020               	movlb	0	; select bank0
  7167  04D3  09A0               	comf	___aomod@divisor,f
  7168  04D4  09A1               	comf	___aomod@divisor+1,f
  7169  04D5  09A2               	comf	___aomod@divisor+2,f
  7170  04D6  09A3               	comf	___aomod@divisor+3,f
  7171  04D7  09A4               	comf	___aomod@divisor+4,f
  7172  04D8  09A5               	comf	___aomod@divisor+5,f
  7173  04D9  09A6               	comf	___aomod@divisor+6,f
  7174  04DA  09A7               	comf	___aomod@divisor+7,f
  7175  04DB  0AA0               	incf	___aomod@divisor,f
  7176  04DC  1D03               	skipz
  7177  04DD  2CF1               	goto	u114lld
  7178  04DE  0AA1               	incf	___aomod@divisor+1,f
  7179  04DF  1D03               	skipz
  7180  04E0  2CF1               	goto	u114lld
  7181  04E1  0AA2               	incf	___aomod@divisor+2,f
  7182  04E2  1D03               	skipz
  7183  04E3  2CF1               	goto	u114lld
  7184  04E4  0AA3               	incf	___aomod@divisor+3,f
  7185  04E5  1D03               	skipz
  7186  04E6  2CF1               	goto	u114lld
  7187  04E7  0AA4               	incf	___aomod@divisor+4,f
  7188  04E8  1D03               	skipz
  7189  04E9  2CF1               	goto	u114lld
  7190  04EA  0AA5               	incf	___aomod@divisor+5,f
  7191  04EB  1D03               	skipz
  7192  04EC  2CF1               	goto	u114lld
  7193  04ED  0AA6               	incf	___aomod@divisor+6,f
  7194  04EE  1D03               	skipz
  7195  04EF  2CF1               	goto	u114lld
  7196  04F0  0AA7               	incf	___aomod@divisor+7,f
  7197  04F1                     u114lld:
  7198  04F1                     l1733:
  7199  04F1  0020               	movlb	0	; select bank0
  7200  04F2  0820               	movf	___aomod@divisor,w
  7201  04F3  0421               	iorwf	___aomod@divisor+1,w
  7202  04F4  0422               	iorwf	___aomod@divisor+2,w
  7203  04F5  0423               	iorwf	___aomod@divisor+3,w
  7204  04F6  0424               	iorwf	___aomod@divisor+4,w
  7205  04F7  0425               	iorwf	___aomod@divisor+5,w
  7206  04F8  0426               	iorwf	___aomod@divisor+6,w
  7207  04F9  0427               	iorwf	___aomod@divisor+7,w
  7208  04FA  1903               	skipnz
  7209  04FB  2CFD               	goto	u1151
  7210  04FC  2CFE               	goto	u1150
  7211  04FD                     u1151:
  7212  04FD  2D51               	goto	l1749
  7213  04FE                     u1150:
  7214  04FE                     l1735:
  7215  04FE  01F1               	clrf	___aomod@counter
  7216  04FF  0AF1               	incf	___aomod@counter,f
  7217  0500  2D0D               	goto	l1741
  7218  0501                     l1737:
  7219  0501  35A0               	lslf	___aomod@divisor,f
  7220  0502  0DA1               	rlf	___aomod@divisor+1,f
  7221  0503  0DA2               	rlf	___aomod@divisor+2,f
  7222  0504  0DA3               	rlf	___aomod@divisor+3,f
  7223  0505  0DA4               	rlf	___aomod@divisor+4,f
  7224  0506  0DA5               	rlf	___aomod@divisor+5,f
  7225  0507  0DA6               	rlf	___aomod@divisor+6,f
  7226  0508  0DA7               	rlf	___aomod@divisor+7,f
  7227  0509                     l1739:
  7228  0509  3001               	movlw	1
  7229  050A  00F0               	movwf	??___aomod
  7230  050B  0870               	movf	??___aomod,w
  7231  050C  07F1               	addwf	___aomod@counter,f
  7232  050D                     l1741:
  7233  050D  1FA7               	btfss	___aomod@divisor+7,7
  7234  050E  2D10               	goto	u1161
  7235  050F  2D11               	goto	u1160
  7236  0510                     u1161:
  7237  0510  2D01               	goto	l1737
  7238  0511                     u1160:
  7239  0511                     l1743:
  7240  0511  0827               	movf	___aomod@divisor+7,w
  7241  0512  022F               	subwf	___aomod@dividend+7,w
  7242  0513  1D03               	skipz
  7243  0514  2D2F               	goto	u1175
  7244  0515  0826               	movf	___aomod@divisor+6,w
  7245  0516  022E               	subwf	___aomod@dividend+6,w
  7246  0517  1D03               	skipz
  7247  0518  2D2F               	goto	u1175
  7248  0519  0825               	movf	___aomod@divisor+5,w
  7249  051A  022D               	subwf	___aomod@dividend+5,w
  7250  051B  1D03               	skipz
  7251  051C  2D2F               	goto	u1175
  7252  051D  0824               	movf	___aomod@divisor+4,w
  7253  051E  022C               	subwf	___aomod@dividend+4,w
  7254  051F  1D03               	skipz
  7255  0520  2D2F               	goto	u1175
  7256  0521  0823               	movf	___aomod@divisor+3,w
  7257  0522  022B               	subwf	___aomod@dividend+3,w
  7258  0523  1D03               	skipz
  7259  0524  2D2F               	goto	u1175
  7260  0525  0822               	movf	___aomod@divisor+2,w
  7261  0526  022A               	subwf	___aomod@dividend+2,w
  7262  0527  1D03               	skipz
  7263  0528  2D2F               	goto	u1175
  7264  0529  0821               	movf	___aomod@divisor+1,w
  7265  052A  0229               	subwf	___aomod@dividend+1,w
  7266  052B  1D03               	skipz
  7267  052C  2D2F               	goto	u1175
  7268  052D  0820               	movf	___aomod@divisor,w
  7269  052E  0228               	subwf	___aomod@dividend,w
  7270  052F                     u1175:
  7271  052F  1C03               	skipc
  7272  0530  2D32               	goto	u1171
  7273  0531  2D33               	goto	u1170
  7274  0532                     u1171:
  7275  0532  2D43               	goto	l1747
  7276  0533                     u1170:
  7277  0533                     l1745:
  7278  0533  0820               	movf	___aomod@divisor,w
  7279  0534  02A8               	subwf	___aomod@dividend,f
  7280  0535  0821               	movf	___aomod@divisor+1,w
  7281  0536  3BA9               	subwfb	___aomod@dividend+1,f
  7282  0537  0822               	movf	___aomod@divisor+2,w
  7283  0538  3BAA               	subwfb	___aomod@dividend+2,f
  7284  0539  0823               	movf	___aomod@divisor+3,w
  7285  053A  3BAB               	subwfb	___aomod@dividend+3,f
  7286  053B  0824               	movf	___aomod@divisor+4,w
  7287  053C  3BAC               	subwfb	___aomod@dividend+4,f
  7288  053D  0825               	movf	___aomod@divisor+5,w
  7289  053E  3BAD               	subwfb	___aomod@dividend+5,f
  7290  053F  0826               	movf	___aomod@divisor+6,w
  7291  0540  3BAE               	subwfb	___aomod@dividend+6,f
  7292  0541  0827               	movf	___aomod@divisor+7,w
  7293  0542  3BAF               	subwfb	___aomod@dividend+7,f
  7294  0543                     l1747:
  7295  0543  36A7               	lsrf	___aomod@divisor+7,f
  7296  0544  0CA6               	rrf	___aomod@divisor+6,f
  7297  0545  0CA5               	rrf	___aomod@divisor+5,f
  7298  0546  0CA4               	rrf	___aomod@divisor+4,f
  7299  0547  0CA3               	rrf	___aomod@divisor+3,f
  7300  0548  0CA2               	rrf	___aomod@divisor+2,f
  7301  0549  0CA1               	rrf	___aomod@divisor+1,f
  7302  054A  0CA0               	rrf	___aomod@divisor,f
  7303  054B  3001               	movlw	1
  7304  054C  02F1               	subwf	___aomod@counter,f
  7305  054D  1D03               	btfss	3,2
  7306  054E  2D50               	goto	u1181
  7307  054F  2D51               	goto	u1180
  7308  0550                     u1181:
  7309  0550  2D11               	goto	l1743
  7310  0551                     u1180:
  7311  0551                     l1749:
  7312  0551  0872               	movf	___aomod@sign,w
  7313  0552  1903               	btfsc	3,2
  7314  0553  2D55               	goto	u1191
  7315  0554  2D56               	goto	u1190
  7316  0555                     u1191:
  7317  0555  2D74               	goto	l564
  7318  0556                     u1190:
  7319  0556                     l1751:
  7320  0556  09A8               	comf	___aomod@dividend,f
  7321  0557  09A9               	comf	___aomod@dividend+1,f
  7322  0558  09AA               	comf	___aomod@dividend+2,f
  7323  0559  09AB               	comf	___aomod@dividend+3,f
  7324  055A  09AC               	comf	___aomod@dividend+4,f
  7325  055B  09AD               	comf	___aomod@dividend+5,f
  7326  055C  09AE               	comf	___aomod@dividend+6,f
  7327  055D  09AF               	comf	___aomod@dividend+7,f
  7328  055E  0AA8               	incf	___aomod@dividend,f
  7329  055F  1D03               	skipz
  7330  0560  2D74               	goto	u120lld
  7331  0561  0AA9               	incf	___aomod@dividend+1,f
  7332  0562  1D03               	skipz
  7333  0563  2D74               	goto	u120lld
  7334  0564  0AAA               	incf	___aomod@dividend+2,f
  7335  0565  1D03               	skipz
  7336  0566  2D74               	goto	u120lld
  7337  0567  0AAB               	incf	___aomod@dividend+3,f
  7338  0568  1D03               	skipz
  7339  0569  2D74               	goto	u120lld
  7340  056A  0AAC               	incf	___aomod@dividend+4,f
  7341  056B  1D03               	skipz
  7342  056C  2D74               	goto	u120lld
  7343  056D  0AAD               	incf	___aomod@dividend+5,f
  7344  056E  1D03               	skipz
  7345  056F  2D74               	goto	u120lld
  7346  0570  0AAE               	incf	___aomod@dividend+6,f
  7347  0571  1D03               	skipz
  7348  0572  2D74               	goto	u120lld
  7349  0573  0AAF               	incf	___aomod@dividend+7,f
  7350  0574                     u120lld:
  7351  0574                     l564:
  7352  0574  0020               	movlb	0	; select bank0
  7353  0575  0828               	movf	___aomod@dividend,w
  7354  0576  00A0               	movwf	?___aomod
  7355  0577  0829               	movf	___aomod@dividend+1,w
  7356  0578  00A1               	movwf	?___aomod+1
  7357  0579  082A               	movf	___aomod@dividend+2,w
  7358  057A  00A2               	movwf	?___aomod+2
  7359  057B  082B               	movf	___aomod@dividend+3,w
  7360  057C  00A3               	movwf	?___aomod+3
  7361  057D  082C               	movf	___aomod@dividend+4,w
  7362  057E  00A4               	movwf	?___aomod+4
  7363  057F  082D               	movf	___aomod@dividend+5,w
  7364  0580  00A5               	movwf	?___aomod+5
  7365  0581  082E               	movf	___aomod@dividend+6,w
  7366  0582  00A6               	movwf	?___aomod+6
  7367  0583  082F               	movf	___aomod@dividend+7,w
  7368  0584  00A7               	movwf	?___aomod+7
  7369  0585                     l565:
  7370  0585  0008               	return
  7371  0586                     __end_of___aomod:
  7372                           
  7373                           	psect	text31
  7374  0586                     __ptext31:	
  7375 ;; *************** function ___aodiv *****************
  7376 ;; Defined at:
  7377 ;;		line 7 in file "C:\Program Files\Microchip\xc8\v2.31\pic\sources\c99\common\aodiv.c"
  7378 ;; Parameters:    Size  Location     Type
  7379 ;;  divisor         8    0[BANK0 ] long long 
  7380 ;;  dividend        8    8[BANK0 ] long long 
  7381 ;; Auto vars:     Size  Location     Type
  7382 ;;  quotient        8    3[COMMON] long long 
  7383 ;;  sign            1    2[COMMON] unsigned char 
  7384 ;;  counter         1    1[COMMON] unsigned char 
  7385 ;; Return value:  Size  Location     Type
  7386 ;;                  8    0[BANK0 ] long long 
  7387 ;; Registers used:
  7388 ;;		wreg, fsr1l, fsr1h, status,2, status,0
  7389 ;; Tracked objects:
  7390 ;;		On entry : 0/0
  7391 ;;		On exit  : 0/0
  7392 ;;		Unchanged: 0/0
  7393 ;; Data sizes:     COMMON   BANK0   BANK1   BANK2   BANK3   BANK4   BANK5   BANK6   BANK7   BANK8   BANK9  BANK10  BANK1
      +1  BANK12
  7394 ;;      Params:         0      16       0       0       0       0       0       0       0       0       0       0       
      +0       0
  7395 ;;      Locals:        10       0       0       0       0       0       0       0       0       0       0       0       
      +0       0
  7396 ;;      Temps:          1       0       0       0       0       0       0       0       0       0       0       0       
      +0       0
  7397 ;;      Totals:        11      16       0       0       0       0       0       0       0       0       0       0       
      +0       0
  7398 ;;Total ram usage:       27 bytes
  7399 ;; Hardware stack levels used:    1
  7400 ;; This function calls:
  7401 ;;		Nothing
  7402 ;; This function is called by:
  7403 ;;		_dtoa
  7404 ;; This function uses a non-reentrant model
  7405 ;;
  7406                           
  7407                           
  7408                           ;psect for function ___aodiv
  7409  0586                     ___aodiv:
  7410  0586                     l1685:	
  7411                           ;incstack = 0
  7412                           ; Regs used in ___aodiv: [wreg+fsr1l+fsr1h+status,2+status,0]
  7413                           
  7414  0586  01F2               	clrf	___aodiv@sign
  7415  0587                     l1687:
  7416  0587  3020               	movlw	low ___aodiv@divisor
  7417  0588  0086               	movwf	6
  7418  0589  3000               	movlw	high ___aodiv@divisor
  7419  058A  0087               	movwf	7
  7420  058B  3F47               	moviw [7]fsr1
  7421  058C  00F0               	movwf	??___aodiv
  7422  058D  1FF0               	btfss	??___aodiv,7
  7423  058E  2D90               	goto	u1001
  7424  058F  2D91               	goto	u1000
  7425  0590                     u1001:
  7426  0590  2DB2               	goto	l1691
  7427  0591                     u1000:
  7428  0591                     l1689:
  7429  0591  0020               	movlb	0	; select bank0
  7430  0592  09A0               	comf	___aodiv@divisor,f
  7431  0593  09A1               	comf	___aodiv@divisor+1,f
  7432  0594  09A2               	comf	___aodiv@divisor+2,f
  7433  0595  09A3               	comf	___aodiv@divisor+3,f
  7434  0596  09A4               	comf	___aodiv@divisor+4,f
  7435  0597  09A5               	comf	___aodiv@divisor+5,f
  7436  0598  09A6               	comf	___aodiv@divisor+6,f
  7437  0599  09A7               	comf	___aodiv@divisor+7,f
  7438  059A  0AA0               	incf	___aodiv@divisor,f
  7439  059B  1D03               	skipz
  7440  059C  2DB0               	goto	u101lld
  7441  059D  0AA1               	incf	___aodiv@divisor+1,f
  7442  059E  1D03               	skipz
  7443  059F  2DB0               	goto	u101lld
  7444  05A0  0AA2               	incf	___aodiv@divisor+2,f
  7445  05A1  1D03               	skipz
  7446  05A2  2DB0               	goto	u101lld
  7447  05A3  0AA3               	incf	___aodiv@divisor+3,f
  7448  05A4  1D03               	skipz
  7449  05A5  2DB0               	goto	u101lld
  7450  05A6  0AA4               	incf	___aodiv@divisor+4,f
  7451  05A7  1D03               	skipz
  7452  05A8  2DB0               	goto	u101lld
  7453  05A9  0AA5               	incf	___aodiv@divisor+5,f
  7454  05AA  1D03               	skipz
  7455  05AB  2DB0               	goto	u101lld
  7456  05AC  0AA6               	incf	___aodiv@divisor+6,f
  7457  05AD  1D03               	skipz
  7458  05AE  2DB0               	goto	u101lld
  7459  05AF  0AA7               	incf	___aodiv@divisor+7,f
  7460  05B0                     u101lld:
  7461  05B0  01F2               	clrf	___aodiv@sign
  7462  05B1  0AF2               	incf	___aodiv@sign,f
  7463  05B2                     l1691:
  7464  05B2  3028               	movlw	low ___aodiv@dividend
  7465  05B3  0086               	movwf	6
  7466  05B4  3000               	movlw	high ___aodiv@dividend
  7467  05B5  0087               	movwf	7
  7468  05B6  3F47               	moviw [7]fsr1
  7469  05B7  00F0               	movwf	??___aodiv
  7470  05B8  1FF0               	btfss	??___aodiv,7
  7471  05B9  2DBB               	goto	u1021
  7472  05BA  2DBC               	goto	u1020
  7473  05BB                     u1021:
  7474  05BB  2DDF               	goto	l1697
  7475  05BC                     u1020:
  7476  05BC                     l1693:
  7477  05BC  0020               	movlb	0	; select bank0
  7478  05BD  09A8               	comf	___aodiv@dividend,f
  7479  05BE  09A9               	comf	___aodiv@dividend+1,f
  7480  05BF  09AA               	comf	___aodiv@dividend+2,f
  7481  05C0  09AB               	comf	___aodiv@dividend+3,f
  7482  05C1  09AC               	comf	___aodiv@dividend+4,f
  7483  05C2  09AD               	comf	___aodiv@dividend+5,f
  7484  05C3  09AE               	comf	___aodiv@dividend+6,f
  7485  05C4  09AF               	comf	___aodiv@dividend+7,f
  7486  05C5  0AA8               	incf	___aodiv@dividend,f
  7487  05C6  1D03               	skipz
  7488  05C7  2DDB               	goto	u103lld
  7489  05C8  0AA9               	incf	___aodiv@dividend+1,f
  7490  05C9  1D03               	skipz
  7491  05CA  2DDB               	goto	u103lld
  7492  05CB  0AAA               	incf	___aodiv@dividend+2,f
  7493  05CC  1D03               	skipz
  7494  05CD  2DDB               	goto	u103lld
  7495  05CE  0AAB               	incf	___aodiv@dividend+3,f
  7496  05CF  1D03               	skipz
  7497  05D0  2DDB               	goto	u103lld
  7498  05D1  0AAC               	incf	___aodiv@dividend+4,f
  7499  05D2  1D03               	skipz
  7500  05D3  2DDB               	goto	u103lld
  7501  05D4  0AAD               	incf	___aodiv@dividend+5,f
  7502  05D5  1D03               	skipz
  7503  05D6  2DDB               	goto	u103lld
  7504  05D7  0AAE               	incf	___aodiv@dividend+6,f
  7505  05D8  1D03               	skipz
  7506  05D9  2DDB               	goto	u103lld
  7507  05DA  0AAF               	incf	___aodiv@dividend+7,f
  7508  05DB                     u103lld:
  7509  05DB                     l1695:
  7510  05DB  3001               	movlw	1
  7511  05DC  00F0               	movwf	??___aodiv
  7512  05DD  0870               	movf	??___aodiv,w
  7513  05DE  06F2               	xorwf	___aodiv@sign,f
  7514  05DF                     l1697:
  7515  05DF  3073               	movlw	low ___aodiv@quotient
  7516  05E0  0086               	movwf	6
  7517  05E1  3000               	movlw	high ___aodiv@quotient
  7518  05E2  0087               	movwf	7
  7519  05E3  3008               	movlw	8
  7520  05E4  00F0               	movwf	??___aodiv
  7521  05E5  3000               	movlw	0
  7522  05E6                     u1040:
  7523  05E6  001E               	movwi fsr1++
  7524  05E7  0BF0               	decfsz	??___aodiv,f
  7525  05E8  2DE6               	goto	u1040
  7526  05E9                     l1699:
  7527  05E9  0020               	movlb	0	; select bank0
  7528  05EA  0820               	movf	___aodiv@divisor,w
  7529  05EB  0421               	iorwf	___aodiv@divisor+1,w
  7530  05EC  0422               	iorwf	___aodiv@divisor+2,w
  7531  05ED  0423               	iorwf	___aodiv@divisor+3,w
  7532  05EE  0424               	iorwf	___aodiv@divisor+4,w
  7533  05EF  0425               	iorwf	___aodiv@divisor+5,w
  7534  05F0  0426               	iorwf	___aodiv@divisor+6,w
  7535  05F1  0427               	iorwf	___aodiv@divisor+7,w
  7536  05F2  1903               	skipnz
  7537  05F3  2DF5               	goto	u1051
  7538  05F4  2DF6               	goto	u1050
  7539  05F5                     u1051:
  7540  05F5  2E52               	goto	l1719
  7541  05F6                     u1050:
  7542  05F6                     l1701:
  7543  05F6  01F1               	clrf	___aodiv@counter
  7544  05F7  0AF1               	incf	___aodiv@counter,f
  7545  05F8  2E05               	goto	l1707
  7546  05F9                     l1703:
  7547  05F9  35A0               	lslf	___aodiv@divisor,f
  7548  05FA  0DA1               	rlf	___aodiv@divisor+1,f
  7549  05FB  0DA2               	rlf	___aodiv@divisor+2,f
  7550  05FC  0DA3               	rlf	___aodiv@divisor+3,f
  7551  05FD  0DA4               	rlf	___aodiv@divisor+4,f
  7552  05FE  0DA5               	rlf	___aodiv@divisor+5,f
  7553  05FF  0DA6               	rlf	___aodiv@divisor+6,f
  7554  0600  0DA7               	rlf	___aodiv@divisor+7,f
  7555  0601                     l1705:
  7556  0601  3001               	movlw	1
  7557  0602  00F0               	movwf	??___aodiv
  7558  0603  0870               	movf	??___aodiv,w
  7559  0604  07F1               	addwf	___aodiv@counter,f
  7560  0605                     l1707:
  7561  0605  1FA7               	btfss	___aodiv@divisor+7,7
  7562  0606  2E08               	goto	u1061
  7563  0607  2E09               	goto	u1060
  7564  0608                     u1061:
  7565  0608  2DF9               	goto	l1703
  7566  0609                     u1060:
  7567  0609                     l1709:
  7568  0609  35F3               	lslf	___aodiv@quotient,f
  7569  060A  0DF4               	rlf	___aodiv@quotient+1,f
  7570  060B  0DF5               	rlf	___aodiv@quotient+2,f
  7571  060C  0DF6               	rlf	___aodiv@quotient+3,f
  7572  060D  0DF7               	rlf	___aodiv@quotient+4,f
  7573  060E  0DF8               	rlf	___aodiv@quotient+5,f
  7574  060F  0DF9               	rlf	___aodiv@quotient+6,f
  7575  0610  0DFA               	rlf	___aodiv@quotient+7,f
  7576  0611                     l1711:
  7577  0611  0827               	movf	___aodiv@divisor+7,w
  7578  0612  022F               	subwf	___aodiv@dividend+7,w
  7579  0613  1D03               	skipz
  7580  0614  2E2F               	goto	u1075
  7581  0615  0826               	movf	___aodiv@divisor+6,w
  7582  0616  022E               	subwf	___aodiv@dividend+6,w
  7583  0617  1D03               	skipz
  7584  0618  2E2F               	goto	u1075
  7585  0619  0825               	movf	___aodiv@divisor+5,w
  7586  061A  022D               	subwf	___aodiv@dividend+5,w
  7587  061B  1D03               	skipz
  7588  061C  2E2F               	goto	u1075
  7589  061D  0824               	movf	___aodiv@divisor+4,w
  7590  061E  022C               	subwf	___aodiv@dividend+4,w
  7591  061F  1D03               	skipz
  7592  0620  2E2F               	goto	u1075
  7593  0621  0823               	movf	___aodiv@divisor+3,w
  7594  0622  022B               	subwf	___aodiv@dividend+3,w
  7595  0623  1D03               	skipz
  7596  0624  2E2F               	goto	u1075
  7597  0625  0822               	movf	___aodiv@divisor+2,w
  7598  0626  022A               	subwf	___aodiv@dividend+2,w
  7599  0627  1D03               	skipz
  7600  0628  2E2F               	goto	u1075
  7601  0629  0821               	movf	___aodiv@divisor+1,w
  7602  062A  0229               	subwf	___aodiv@dividend+1,w
  7603  062B  1D03               	skipz
  7604  062C  2E2F               	goto	u1075
  7605  062D  0820               	movf	___aodiv@divisor,w
  7606  062E  0228               	subwf	___aodiv@dividend,w
  7607  062F                     u1075:
  7608  062F  1C03               	skipc
  7609  0630  2E32               	goto	u1071
  7610  0631  2E33               	goto	u1070
  7611  0632                     u1071:
  7612  0632  2E44               	goto	l1717
  7613  0633                     u1070:
  7614  0633                     l1713:
  7615  0633  0820               	movf	___aodiv@divisor,w
  7616  0634  02A8               	subwf	___aodiv@dividend,f
  7617  0635  0821               	movf	___aodiv@divisor+1,w
  7618  0636  3BA9               	subwfb	___aodiv@dividend+1,f
  7619  0637  0822               	movf	___aodiv@divisor+2,w
  7620  0638  3BAA               	subwfb	___aodiv@dividend+2,f
  7621  0639  0823               	movf	___aodiv@divisor+3,w
  7622  063A  3BAB               	subwfb	___aodiv@dividend+3,f
  7623  063B  0824               	movf	___aodiv@divisor+4,w
  7624  063C  3BAC               	subwfb	___aodiv@dividend+4,f
  7625  063D  0825               	movf	___aodiv@divisor+5,w
  7626  063E  3BAD               	subwfb	___aodiv@dividend+5,f
  7627  063F  0826               	movf	___aodiv@divisor+6,w
  7628  0640  3BAE               	subwfb	___aodiv@dividend+6,f
  7629  0641  0827               	movf	___aodiv@divisor+7,w
  7630  0642  3BAF               	subwfb	___aodiv@dividend+7,f
  7631  0643                     l1715:
  7632  0643  1473               	bsf	___aodiv@quotient,0
  7633  0644                     l1717:
  7634  0644  36A7               	lsrf	___aodiv@divisor+7,f
  7635  0645  0CA6               	rrf	___aodiv@divisor+6,f
  7636  0646  0CA5               	rrf	___aodiv@divisor+5,f
  7637  0647  0CA4               	rrf	___aodiv@divisor+4,f
  7638  0648  0CA3               	rrf	___aodiv@divisor+3,f
  7639  0649  0CA2               	rrf	___aodiv@divisor+2,f
  7640  064A  0CA1               	rrf	___aodiv@divisor+1,f
  7641  064B  0CA0               	rrf	___aodiv@divisor,f
  7642  064C  3001               	movlw	1
  7643  064D  02F1               	subwf	___aodiv@counter,f
  7644  064E  1D03               	btfss	3,2
  7645  064F  2E51               	goto	u1081
  7646  0650  2E52               	goto	u1080
  7647  0651                     u1081:
  7648  0651  2E09               	goto	l1709
  7649  0652                     u1080:
  7650  0652                     l1719:
  7651  0652  0872               	movf	___aodiv@sign,w
  7652  0653  1903               	btfsc	3,2
  7653  0654  2E56               	goto	u1091
  7654  0655  2E57               	goto	u1090
  7655  0656                     u1091:
  7656  0656  2E75               	goto	l551
  7657  0657                     u1090:
  7658  0657                     l1721:
  7659  0657  09F3               	comf	___aodiv@quotient,f
  7660  0658  09F4               	comf	___aodiv@quotient+1,f
  7661  0659  09F5               	comf	___aodiv@quotient+2,f
  7662  065A  09F6               	comf	___aodiv@quotient+3,f
  7663  065B  09F7               	comf	___aodiv@quotient+4,f
  7664  065C  09F8               	comf	___aodiv@quotient+5,f
  7665  065D  09F9               	comf	___aodiv@quotient+6,f
  7666  065E  09FA               	comf	___aodiv@quotient+7,f
  7667  065F  0AF3               	incf	___aodiv@quotient,f
  7668  0660  1D03               	skipz
  7669  0661  2E75               	goto	u110lld
  7670  0662  0AF4               	incf	___aodiv@quotient+1,f
  7671  0663  1D03               	skipz
  7672  0664  2E75               	goto	u110lld
  7673  0665  0AF5               	incf	___aodiv@quotient+2,f
  7674  0666  1D03               	skipz
  7675  0667  2E75               	goto	u110lld
  7676  0668  0AF6               	incf	___aodiv@quotient+3,f
  7677  0669  1D03               	skipz
  7678  066A  2E75               	goto	u110lld
  7679  066B  0AF7               	incf	___aodiv@quotient+4,f
  7680  066C  1D03               	skipz
  7681  066D  2E75               	goto	u110lld
  7682  066E  0AF8               	incf	___aodiv@quotient+5,f
  7683  066F  1D03               	skipz
  7684  0670  2E75               	goto	u110lld
  7685  0671  0AF9               	incf	___aodiv@quotient+6,f
  7686  0672  1D03               	skipz
  7687  0673  2E75               	goto	u110lld
  7688  0674  0AFA               	incf	___aodiv@quotient+7,f
  7689  0675                     u110lld:
  7690  0675                     l551:
  7691  0675  0873               	movf	___aodiv@quotient,w
  7692  0676  0020               	movlb	0	; select bank0
  7693  0677  00A0               	movwf	?___aodiv
  7694  0678  0874               	movf	___aodiv@quotient+1,w
  7695  0679  00A1               	movwf	?___aodiv+1
  7696  067A  0875               	movf	___aodiv@quotient+2,w
  7697  067B  00A2               	movwf	?___aodiv+2
  7698  067C  0876               	movf	___aodiv@quotient+3,w
  7699  067D  00A3               	movwf	?___aodiv+3
  7700  067E  0877               	movf	___aodiv@quotient+4,w
  7701  067F  00A4               	movwf	?___aodiv+4
  7702  0680  0878               	movf	___aodiv@quotient+5,w
  7703  0681  00A5               	movwf	?___aodiv+5
  7704  0682  0879               	movf	___aodiv@quotient+6,w
  7705  0683  00A6               	movwf	?___aodiv+6
  7706  0684  087A               	movf	___aodiv@quotient+7,w
  7707  0685  00A7               	movwf	?___aodiv+7
  7708  0686                     l552:
  7709  0686  0008               	return
  7710  0687                     __end_of___aodiv:
  7711                           
  7712                           	psect	text32
  7713  01C2                     __ptext32:	
  7714 ;; *************** function ___awmod *****************
  7715 ;; Defined at:
  7716 ;;		line 5 in file "C:\Program Files\Microchip\xc8\v2.31\pic\sources\c99\common\awmod.c"
  7717 ;; Parameters:    Size  Location     Type
  7718 ;;  divisor         2    0[COMMON] int 
  7719 ;;  dividend        2    2[COMMON] int 
  7720 ;; Auto vars:     Size  Location     Type
  7721 ;;  sign            1    6[COMMON] unsigned char 
  7722 ;;  counter         1    5[COMMON] unsigned char 
  7723 ;; Return value:  Size  Location     Type
  7724 ;;                  2    0[COMMON] int 
  7725 ;; Registers used:
  7726 ;;		wreg, status,2, status,0
  7727 ;; Tracked objects:
  7728 ;;		On entry : 0/0
  7729 ;;		On exit  : 0/0
  7730 ;;		Unchanged: 0/0
  7731 ;; Data sizes:     COMMON   BANK0   BANK1   BANK2   BANK3   BANK4   BANK5   BANK6   BANK7   BANK8   BANK9  BANK10  BANK1
      +1  BANK12
  7732 ;;      Params:         4       0       0       0       0       0       0       0       0       0       0       0       
      +0       0
  7733 ;;      Locals:         2       0       0       0       0       0       0       0       0       0       0       0       
      +0       0
  7734 ;;      Temps:          1       0       0       0       0       0       0       0       0       0       0       0       
      +0       0
  7735 ;;      Totals:         7       0       0       0       0       0       0       0       0       0       0       0       
      +0       0
  7736 ;;Total ram usage:        7 bytes
  7737 ;; Hardware stack levels used:    1
  7738 ;; This function calls:
  7739 ;;		Nothing
  7740 ;; This function is called by:
  7741 ;;		_main
  7742 ;; This function uses a non-reentrant model
  7743 ;;
  7744                           
  7745                           
  7746                           ;psect for function ___awmod
  7747  01C2                     ___awmod:
  7748  01C2                     l2135:	
  7749                           ;incstack = 0
  7750                           ; Regs used in ___awmod: [wreg+status,2+status,0]
  7751                           
  7752  01C2  01F6               	clrf	___awmod@sign
  7753  01C3                     l2137:
  7754  01C3  1FF3               	btfss	___awmod@dividend+1,7
  7755  01C4  29C6               	goto	u1731
  7756  01C5  29C7               	goto	u1730
  7757  01C6                     u1731:
  7758  01C6  29CE               	goto	l2143
  7759  01C7                     u1730:
  7760  01C7                     l2139:
  7761  01C7  09F2               	comf	___awmod@dividend,f
  7762  01C8  09F3               	comf	___awmod@dividend+1,f
  7763  01C9  0AF2               	incf	___awmod@dividend,f
  7764  01CA  1903               	skipnz
  7765  01CB  0AF3               	incf	___awmod@dividend+1,f
  7766  01CC                     l2141:
  7767  01CC  01F6               	clrf	___awmod@sign
  7768  01CD  0AF6               	incf	___awmod@sign,f
  7769  01CE                     l2143:
  7770  01CE  1FF1               	btfss	___awmod@divisor+1,7
  7771  01CF  29D1               	goto	u1741
  7772  01D0  29D2               	goto	u1740
  7773  01D1                     u1741:
  7774  01D1  29D7               	goto	l2147
  7775  01D2                     u1740:
  7776  01D2                     l2145:
  7777  01D2  09F0               	comf	___awmod@divisor,f
  7778  01D3  09F1               	comf	___awmod@divisor+1,f
  7779  01D4  0AF0               	incf	___awmod@divisor,f
  7780  01D5  1903               	skipnz
  7781  01D6  0AF1               	incf	___awmod@divisor+1,f
  7782  01D7                     l2147:
  7783  01D7  0870               	movf	___awmod@divisor,w
  7784  01D8  0471               	iorwf	___awmod@divisor+1,w
  7785  01D9  1903               	btfsc	3,2
  7786  01DA  29DC               	goto	u1751
  7787  01DB  29DD               	goto	u1750
  7788  01DC                     u1751:
  7789  01DC  2A06               	goto	l2165
  7790  01DD                     u1750:
  7791  01DD                     l2149:
  7792  01DD  01F5               	clrf	___awmod@counter
  7793  01DE  0AF5               	incf	___awmod@counter,f
  7794  01DF  29E9               	goto	l2155
  7795  01E0                     l2151:
  7796  01E0  3001               	movlw	1
  7797  01E1                     u1765:
  7798  01E1  35F0               	lslf	___awmod@divisor,f
  7799  01E2  0DF1               	rlf	___awmod@divisor+1,f
  7800  01E3  0B89               	decfsz	9,f
  7801  01E4  29E1               	goto	u1765
  7802  01E5                     l2153:
  7803  01E5  3001               	movlw	1
  7804  01E6  00F4               	movwf	??___awmod
  7805  01E7  0874               	movf	??___awmod,w
  7806  01E8  07F5               	addwf	___awmod@counter,f
  7807  01E9                     l2155:
  7808  01E9  1FF1               	btfss	___awmod@divisor+1,7
  7809  01EA  29EC               	goto	u1771
  7810  01EB  29ED               	goto	u1770
  7811  01EC                     u1771:
  7812  01EC  29E0               	goto	l2151
  7813  01ED                     u1770:
  7814  01ED                     l2157:
  7815  01ED  0871               	movf	___awmod@divisor+1,w
  7816  01EE  0273               	subwf	___awmod@dividend+1,w
  7817  01EF  1D03               	skipz
  7818  01F0  29F3               	goto	u1785
  7819  01F1  0870               	movf	___awmod@divisor,w
  7820  01F2  0272               	subwf	___awmod@dividend,w
  7821  01F3                     u1785:
  7822  01F3  1C03               	skipc
  7823  01F4  29F6               	goto	u1781
  7824  01F5  29F7               	goto	u1780
  7825  01F6                     u1781:
  7826  01F6  29FB               	goto	l2161
  7827  01F7                     u1780:
  7828  01F7                     l2159:
  7829  01F7  0870               	movf	___awmod@divisor,w
  7830  01F8  02F2               	subwf	___awmod@dividend,f
  7831  01F9  0871               	movf	___awmod@divisor+1,w
  7832  01FA  3BF3               	subwfb	___awmod@dividend+1,f
  7833  01FB                     l2161:
  7834  01FB  3001               	movlw	1
  7835  01FC                     u1795:
  7836  01FC  36F1               	lsrf	___awmod@divisor+1,f
  7837  01FD  0CF0               	rrf	___awmod@divisor,f
  7838  01FE  0B89               	decfsz	9,f
  7839  01FF  29FC               	goto	u1795
  7840  0200                     l2163:
  7841  0200  3001               	movlw	1
  7842  0201  02F5               	subwf	___awmod@counter,f
  7843  0202  1D03               	btfss	3,2
  7844  0203  2A05               	goto	u1801
  7845  0204  2A06               	goto	u1800
  7846  0205                     u1801:
  7847  0205  29ED               	goto	l2157
  7848  0206                     u1800:
  7849  0206                     l2165:
  7850  0206  0876               	movf	___awmod@sign,w
  7851  0207  1903               	btfsc	3,2
  7852  0208  2A0A               	goto	u1811
  7853  0209  2A0B               	goto	u1810
  7854  020A                     u1811:
  7855  020A  2A10               	goto	l2169
  7856  020B                     u1810:
  7857  020B                     l2167:
  7858  020B  09F2               	comf	___awmod@dividend,f
  7859  020C  09F3               	comf	___awmod@dividend+1,f
  7860  020D  0AF2               	incf	___awmod@dividend,f
  7861  020E  1903               	skipnz
  7862  020F  0AF3               	incf	___awmod@dividend+1,f
  7863  0210                     l2169:
  7864  0210  0873               	movf	___awmod@dividend+1,w
  7865  0211  00F1               	movwf	?___awmod+1
  7866  0212  0872               	movf	___awmod@dividend,w
  7867  0213  00F0               	movwf	?___awmod
  7868  0214                     l617:
  7869  0214  0008               	return
  7870  0215                     __end_of___awmod:
  7871                           
  7872                           	psect	text33
  7873  0F5A                     __ptext33:	
  7874 ;; *************** function _SYSTEM_Initialize *****************
  7875 ;; Defined at:
  7876 ;;		line 50 in file "mcc_generated_files/mcc.c"
  7877 ;; Parameters:    Size  Location     Type
  7878 ;;		None
  7879 ;; Auto vars:     Size  Location     Type
  7880 ;;		None
  7881 ;; Return value:  Size  Location     Type
  7882 ;;                  1    wreg      void 
  7883 ;; Registers used:
  7884 ;;		wreg, status,2, status,0, pclath, cstack
  7885 ;; Tracked objects:
  7886 ;;		On entry : 0/0
  7887 ;;		On exit  : 0/0
  7888 ;;		Unchanged: 0/0
  7889 ;; Data sizes:     COMMON   BANK0   BANK1   BANK2   BANK3   BANK4   BANK5   BANK6   BANK7   BANK8   BANK9  BANK10  BANK1
      +1  BANK12
  7890 ;;      Params:         0       0       0       0       0       0       0       0       0       0       0       0       
      +0       0
  7891 ;;      Locals:         0       0       0       0       0       0       0       0       0       0       0       0       
      +0       0
  7892 ;;      Temps:          0       0       0       0       0       0       0       0       0       0       0       0       
      +0       0
  7893 ;;      Totals:         0       0       0       0       0       0       0       0       0       0       0       0       
      +0       0
  7894 ;;Total ram usage:        0 bytes
  7895 ;; Hardware stack levels used:    1
  7896 ;; Hardware stack levels required when called:    2
  7897 ;; This function calls:
  7898 ;;		_EUSART_Initialize
  7899 ;;		_OSCILLATOR_Initialize
  7900 ;;		_PIN_MANAGER_Initialize
  7901 ;;		_PWM3_Initialize
  7902 ;;		_PWM4_Initialize
  7903 ;;		_TMR4_Initialize
  7904 ;;		_WDT_Initialize
  7905 ;; This function is called by:
  7906 ;;		_main
  7907 ;; This function uses a non-reentrant model
  7908 ;;
  7909                           
  7910                           
  7911                           ;psect for function _SYSTEM_Initialize
  7912  0F5A                     _SYSTEM_Initialize:
  7913  0F5A                     l2081:	
  7914                           ;incstack = 0
  7915                           ; Regs used in _SYSTEM_Initialize: [wreg+status,2+status,0+pclath+cstack]
  7916                           
  7917                           
  7918                           ;mcc_generated_files/mcc.c: 53:     PIN_MANAGER_Initialize();
  7919  0F5A  3181  212C  318F   	fcall	_PIN_MANAGER_Initialize
  7920                           
  7921                           ;mcc_generated_files/mcc.c: 54:     OSCILLATOR_Initialize();
  7922  0F5D  318E  26BB  318F   	fcall	_OSCILLATOR_Initialize
  7923                           
  7924                           ;mcc_generated_files/mcc.c: 55:     WDT_Initialize();
  7925  0F60  318E  2699  318F   	fcall	_WDT_Initialize
  7926                           
  7927                           ;mcc_generated_files/mcc.c: 56:     TMR4_Initialize();
  7928  0F63  318E  26DD  318F   	fcall	_TMR4_Initialize
  7929                           
  7930                           ;mcc_generated_files/mcc.c: 57:     PWM4_Initialize();
  7931  0F66  318E  26FC  318F   	fcall	_PWM4_Initialize
  7932                           
  7933                           ;mcc_generated_files/mcc.c: 58:     PWM3_Initialize();
  7934  0F69  318E  26F1  318F   	fcall	_PWM3_Initialize
  7935                           
  7936                           ;mcc_generated_files/mcc.c: 59:     EUSART_Initialize();
  7937  0F6C  3180  204D  318F   	fcall	_EUSART_Initialize
  7938  0F6F                     l25:
  7939  0F6F  0008               	return
  7940  0F70                     __end_of_SYSTEM_Initialize:
  7941                           
  7942                           	psect	text34
  7943  0E99                     __ptext34:	
  7944 ;; *************** function _WDT_Initialize *****************
  7945 ;; Defined at:
  7946 ;;		line 72 in file "mcc_generated_files/mcc.c"
  7947 ;; Parameters:    Size  Location     Type
  7948 ;;		None
  7949 ;; Auto vars:     Size  Location     Type
  7950 ;;		None
  7951 ;; Return value:  Size  Location     Type
  7952 ;;                  1    wreg      void 
  7953 ;; Registers used:
  7954 ;;		wreg
  7955 ;; Tracked objects:
  7956 ;;		On entry : 0/0
  7957 ;;		On exit  : 0/0
  7958 ;;		Unchanged: 0/0
  7959 ;; Data sizes:     COMMON   BANK0   BANK1   BANK2   BANK3   BANK4   BANK5   BANK6   BANK7   BANK8   BANK9  BANK10  BANK1
      +1  BANK12
  7960 ;;      Params:         0       0       0       0       0       0       0       0       0       0       0       0       
      +0       0
  7961 ;;      Locals:         0       0       0       0       0       0       0       0       0       0       0       0       
      +0       0
  7962 ;;      Temps:          0       0       0       0       0       0       0       0       0       0       0       0       
      +0       0
  7963 ;;      Totals:         0       0       0       0       0       0       0       0       0       0       0       0       
      +0       0
  7964 ;;Total ram usage:        0 bytes
  7965 ;; Hardware stack levels used:    1
  7966 ;; This function calls:
  7967 ;;		Nothing
  7968 ;; This function is called by:
  7969 ;;		_SYSTEM_Initialize
  7970 ;; This function uses a non-reentrant model
  7971 ;;
  7972                           
  7973                           
  7974                           ;psect for function _WDT_Initialize
  7975  0E99                     _WDT_Initialize:
  7976  0E99                     l2023:	
  7977                           ;incstack = 0
  7978                           ; Regs used in _WDT_Initialize: [wreg]
  7979                           
  7980                           
  7981                           ;mcc_generated_files/mcc.c: 75:     WDTCON = 0x16;
  7982  0E99  3016               	movlw	22
  7983  0E9A  0021               	movlb	1	; select bank1
  7984  0E9B  0097               	movwf	23	;volatile
  7985  0E9C                     l31:
  7986  0E9C  0008               	return
  7987  0E9D                     __end_of_WDT_Initialize:
  7988                           
  7989                           	psect	text35
  7990  0EDD                     __ptext35:	
  7991 ;; *************** function _TMR4_Initialize *****************
  7992 ;; Defined at:
  7993 ;;		line 62 in file "mcc_generated_files/tmr4.c"
  7994 ;; Parameters:    Size  Location     Type
  7995 ;;		None
  7996 ;; Auto vars:     Size  Location     Type
  7997 ;;		None
  7998 ;; Return value:  Size  Location     Type
  7999 ;;                  1    wreg      void 
  8000 ;; Registers used:
  8001 ;;		wreg, status,2
  8002 ;; Tracked objects:
  8003 ;;		On entry : 0/0
  8004 ;;		On exit  : 0/0
  8005 ;;		Unchanged: 0/0
  8006 ;; Data sizes:     COMMON   BANK0   BANK1   BANK2   BANK3   BANK4   BANK5   BANK6   BANK7   BANK8   BANK9  BANK10  BANK1
      +1  BANK12
  8007 ;;      Params:         0       0       0       0       0       0       0       0       0       0       0       0       
      +0       0
  8008 ;;      Locals:         0       0       0       0       0       0       0       0       0       0       0       0       
      +0       0
  8009 ;;      Temps:          0       0       0       0       0       0       0       0       0       0       0       0       
      +0       0
  8010 ;;      Totals:         0       0       0       0       0       0       0       0       0       0       0       0       
      +0       0
  8011 ;;Total ram usage:        0 bytes
  8012 ;; Hardware stack levels used:    1
  8013 ;; This function calls:
  8014 ;;		Nothing
  8015 ;; This function is called by:
  8016 ;;		_SYSTEM_Initialize
  8017 ;; This function uses a non-reentrant model
  8018 ;;
  8019                           
  8020                           
  8021                           ;psect for function _TMR4_Initialize
  8022  0EDD                     _TMR4_Initialize:
  8023  0EDD                     l2025:	
  8024                           ;incstack = 0
  8025                           ; Regs used in _TMR4_Initialize: [wreg+status,2]
  8026                           
  8027                           
  8028                           ;mcc_generated_files/tmr4.c: 67:     PR4 = 0xF9;
  8029  0EDD  30F9               	movlw	249
  8030  0EDE  0028               	movlb	8	; select bank8
  8031  0EDF  0096               	movwf	22	;volatile
  8032  0EE0                     l2027:
  8033                           
  8034                           ;mcc_generated_files/tmr4.c: 70:     TMR4 = 0x00;
  8035  0EE0  0195               	clrf	21	;volatile
  8036  0EE1                     l2029:
  8037                           
  8038                           ;mcc_generated_files/tmr4.c: 73:     PIR2bits.TMR4IF = 0;
  8039  0EE1  0020               	movlb	0	; select bank0
  8040  0EE2  1092               	bcf	18,1	;volatile
  8041  0EE3                     l2031:
  8042                           
  8043                           ;mcc_generated_files/tmr4.c: 76:     T4CON = 0x0C;
  8044  0EE3  300C               	movlw	12
  8045  0EE4  0028               	movlb	8	; select bank8
  8046  0EE5  0097               	movwf	23	;volatile
  8047  0EE6                     l336:
  8048  0EE6  0008               	return
  8049  0EE7                     __end_of_TMR4_Initialize:
  8050                           
  8051                           	psect	text36
  8052  0EFC                     __ptext36:	
  8053 ;; *************** function _PWM4_Initialize *****************
  8054 ;; Defined at:
  8055 ;;		line 58 in file "mcc_generated_files/pwm4.c"
  8056 ;; Parameters:    Size  Location     Type
  8057 ;;		None
  8058 ;; Auto vars:     Size  Location     Type
  8059 ;;		None
  8060 ;; Return value:  Size  Location     Type
  8061 ;;                  1    wreg      void 
  8062 ;; Registers used:
  8063 ;;		wreg, status,2, status,0
  8064 ;; Tracked objects:
  8065 ;;		On entry : 0/0
  8066 ;;		On exit  : 0/0
  8067 ;;		Unchanged: 0/0
  8068 ;; Data sizes:     COMMON   BANK0   BANK1   BANK2   BANK3   BANK4   BANK5   BANK6   BANK7   BANK8   BANK9  BANK10  BANK1
      +1  BANK12
  8069 ;;      Params:         0       0       0       0       0       0       0       0       0       0       0       0       
      +0       0
  8070 ;;      Locals:         0       0       0       0       0       0       0       0       0       0       0       0       
      +0       0
  8071 ;;      Temps:          0       0       0       0       0       0       0       0       0       0       0       0       
      +0       0
  8072 ;;      Totals:         0       0       0       0       0       0       0       0       0       0       0       0       
      +0       0
  8073 ;;Total ram usage:        0 bytes
  8074 ;; Hardware stack levels used:    1
  8075 ;; This function calls:
  8076 ;;		Nothing
  8077 ;; This function is called by:
  8078 ;;		_SYSTEM_Initialize
  8079 ;; This function uses a non-reentrant model
  8080 ;;
  8081                           
  8082                           
  8083                           ;psect for function _PWM4_Initialize
  8084  0EFC                     _PWM4_Initialize:
  8085  0EFC                     l2033:	
  8086                           ;incstack = 0
  8087                           ; Regs used in _PWM4_Initialize: [wreg+status,2+status,0]
  8088                           
  8089                           
  8090                           ;mcc_generated_files/pwm4.c: 62:     PWM4CON = 0x80;
  8091  0EFC  3080               	movlw	128
  8092  0EFD  002C               	movlb	12	; select bank12
  8093  0EFE  009C               	movwf	28	;volatile
  8094  0EFF                     l2035:
  8095                           
  8096                           ;mcc_generated_files/pwm4.c: 65:     PWM4DCH = 0x00;
  8097  0EFF  019B               	clrf	27	;volatile
  8098  0F00                     l2037:
  8099                           
  8100                           ;mcc_generated_files/pwm4.c: 68:     PWM4DCL = 0x00;
  8101  0F00  019A               	clrf	26	;volatile
  8102  0F01                     l2039:
  8103                           
  8104                           ;mcc_generated_files/pwm4.c: 71:     CCPTMRSbits.P4TSEL = 1;
  8105  0F01  0025               	movlb	5	; select bank5
  8106  0F02  081E               	movf	30,w	;volatile
  8107  0F03  393F               	andlw	-193
  8108  0F04  3840               	iorlw	64
  8109  0F05  009E               	movwf	30	;volatile
  8110  0F06                     l366:
  8111  0F06  0008               	return
  8112  0F07                     __end_of_PWM4_Initialize:
  8113                           
  8114                           	psect	text37
  8115  0EF1                     __ptext37:	
  8116 ;; *************** function _PWM3_Initialize *****************
  8117 ;; Defined at:
  8118 ;;		line 58 in file "mcc_generated_files/pwm3.c"
  8119 ;; Parameters:    Size  Location     Type
  8120 ;;		None
  8121 ;; Auto vars:     Size  Location     Type
  8122 ;;		None
  8123 ;; Return value:  Size  Location     Type
  8124 ;;                  1    wreg      void 
  8125 ;; Registers used:
  8126 ;;		wreg, status,2, status,0
  8127 ;; Tracked objects:
  8128 ;;		On entry : 0/0
  8129 ;;		On exit  : 0/0
  8130 ;;		Unchanged: 0/0
  8131 ;; Data sizes:     COMMON   BANK0   BANK1   BANK2   BANK3   BANK4   BANK5   BANK6   BANK7   BANK8   BANK9  BANK10  BANK1
      +1  BANK12
  8132 ;;      Params:         0       0       0       0       0       0       0       0       0       0       0       0       
      +0       0
  8133 ;;      Locals:         0       0       0       0       0       0       0       0       0       0       0       0       
      +0       0
  8134 ;;      Temps:          0       0       0       0       0       0       0       0       0       0       0       0       
      +0       0
  8135 ;;      Totals:         0       0       0       0       0       0       0       0       0       0       0       0       
      +0       0
  8136 ;;Total ram usage:        0 bytes
  8137 ;; Hardware stack levels used:    1
  8138 ;; This function calls:
  8139 ;;		Nothing
  8140 ;; This function is called by:
  8141 ;;		_SYSTEM_Initialize
  8142 ;; This function uses a non-reentrant model
  8143 ;;
  8144                           
  8145                           
  8146                           ;psect for function _PWM3_Initialize
  8147  0EF1                     _PWM3_Initialize:
  8148  0EF1                     l2041:	
  8149                           ;incstack = 0
  8150                           ; Regs used in _PWM3_Initialize: [wreg+status,2+status,0]
  8151                           
  8152                           
  8153                           ;mcc_generated_files/pwm3.c: 62:     PWM3CON = 0x80;
  8154  0EF1  3080               	movlw	128
  8155  0EF2  002C               	movlb	12	; select bank12
  8156  0EF3  0099               	movwf	25	;volatile
  8157  0EF4                     l2043:
  8158                           
  8159                           ;mcc_generated_files/pwm3.c: 65:     PWM3DCH = 0x00;
  8160  0EF4  0198               	clrf	24	;volatile
  8161  0EF5                     l2045:
  8162                           
  8163                           ;mcc_generated_files/pwm3.c: 68:     PWM3DCL = 0x00;
  8164  0EF5  0197               	clrf	23	;volatile
  8165  0EF6                     l2047:
  8166                           
  8167                           ;mcc_generated_files/pwm3.c: 71:     CCPTMRSbits.P3TSEL = 1;
  8168  0EF6  0025               	movlb	5	; select bank5
  8169  0EF7  081E               	movf	30,w	;volatile
  8170  0EF8  39CF               	andlw	-49
  8171  0EF9  3810               	iorlw	16
  8172  0EFA  009E               	movwf	30	;volatile
  8173  0EFB                     l380:
  8174  0EFB  0008               	return
  8175  0EFC                     __end_of_PWM3_Initialize:
  8176                           
  8177                           	psect	text38
  8178  012C                     __ptext38:	
  8179 ;; *************** function _PIN_MANAGER_Initialize *****************
  8180 ;; Defined at:
  8181 ;;		line 55 in file "mcc_generated_files/pin_manager.c"
  8182 ;; Parameters:    Size  Location     Type
  8183 ;;		None
  8184 ;; Auto vars:     Size  Location     Type
  8185 ;;		None
  8186 ;; Return value:  Size  Location     Type
  8187 ;;                  1    wreg      void 
  8188 ;; Registers used:
  8189 ;;		wreg, status,2
  8190 ;; Tracked objects:
  8191 ;;		On entry : 0/0
  8192 ;;		On exit  : 0/0
  8193 ;;		Unchanged: 0/0
  8194 ;; Data sizes:     COMMON   BANK0   BANK1   BANK2   BANK3   BANK4   BANK5   BANK6   BANK7   BANK8   BANK9  BANK10  BANK1
      +1  BANK12
  8195 ;;      Params:         0       0       0       0       0       0       0       0       0       0       0       0       
      +0       0
  8196 ;;      Locals:         0       0       0       0       0       0       0       0       0       0       0       0       
      +0       0
  8197 ;;      Temps:          0       0       0       0       0       0       0       0       0       0       0       0       
      +0       0
  8198 ;;      Totals:         0       0       0       0       0       0       0       0       0       0       0       0       
      +0       0
  8199 ;;Total ram usage:        0 bytes
  8200 ;; Hardware stack levels used:    1
  8201 ;; This function calls:
  8202 ;;		Nothing
  8203 ;; This function is called by:
  8204 ;;		_SYSTEM_Initialize
  8205 ;; This function uses a non-reentrant model
  8206 ;;
  8207                           
  8208                           
  8209                           ;psect for function _PIN_MANAGER_Initialize
  8210  012C                     _PIN_MANAGER_Initialize:
  8211  012C                     l1965:	
  8212                           ;incstack = 0
  8213                           ; Regs used in _PIN_MANAGER_Initialize: [wreg+status,2]
  8214                           
  8215                           
  8216                           ;mcc_generated_files/pin_manager.c: 60:     LATE = 0x00;
  8217  012C  0022               	movlb	2	; select bank2
  8218  012D  0190               	clrf	16	;volatile
  8219                           
  8220                           ;mcc_generated_files/pin_manager.c: 61:     LATD = 0x00;
  8221  012E  018F               	clrf	15	;volatile
  8222                           
  8223                           ;mcc_generated_files/pin_manager.c: 62:     LATA = 0x00;
  8224  012F  018C               	clrf	12	;volatile
  8225                           
  8226                           ;mcc_generated_files/pin_manager.c: 63:     LATB = 0x00;
  8227  0130  018D               	clrf	13	;volatile
  8228                           
  8229                           ;mcc_generated_files/pin_manager.c: 64:     LATC = 0x00;
  8230  0131  018E               	clrf	14	;volatile
  8231  0132                     l1967:
  8232                           
  8233                           ;mcc_generated_files/pin_manager.c: 69:     TRISE = 0x0F;
  8234  0132  300F               	movlw	15
  8235  0133  0021               	movlb	1	; select bank1
  8236  0134  0090               	movwf	16	;volatile
  8237  0135                     l1969:
  8238                           
  8239                           ;mcc_generated_files/pin_manager.c: 70:     TRISA = 0xFF;
  8240  0135  30FF               	movlw	255
  8241  0136  008C               	movwf	12	;volatile
  8242  0137                     l1971:
  8243                           
  8244                           ;mcc_generated_files/pin_manager.c: 71:     TRISB = 0xE0;
  8245  0137  30E0               	movlw	224
  8246  0138  008D               	movwf	13	;volatile
  8247  0139                     l1973:
  8248                           
  8249                           ;mcc_generated_files/pin_manager.c: 72:     TRISC = 0xBF;
  8250  0139  30BF               	movlw	191
  8251  013A  008E               	movwf	14	;volatile
  8252  013B                     l1975:
  8253                           
  8254                           ;mcc_generated_files/pin_manager.c: 73:     TRISD = 0xFF;
  8255  013B  30FF               	movlw	255
  8256  013C  008F               	movwf	15	;volatile
  8257  013D                     l1977:
  8258                           
  8259                           ;mcc_generated_files/pin_manager.c: 78:     ANSELD = 0xFF;
  8260  013D  30FF               	movlw	255
  8261  013E  0023               	movlb	3	; select bank3
  8262  013F  008F               	movwf	15	;volatile
  8263  0140                     l1979:
  8264                           
  8265                           ;mcc_generated_files/pin_manager.c: 79:     ANSELC = 0x7C;
  8266  0140  307C               	movlw	124
  8267  0141  008E               	movwf	14	;volatile
  8268  0142                     l1981:
  8269                           
  8270                           ;mcc_generated_files/pin_manager.c: 80:     ANSELB = 0x23;
  8271  0142  3023               	movlw	35
  8272  0143  008D               	movwf	13	;volatile
  8273  0144                     l1983:
  8274                           
  8275                           ;mcc_generated_files/pin_manager.c: 81:     ANSELE = 0x07;
  8276  0144  3007               	movlw	7
  8277  0145  0090               	movwf	16	;volatile
  8278  0146                     l1985:
  8279                           
  8280                           ;mcc_generated_files/pin_manager.c: 82:     ANSELA = 0x3F;
  8281  0146  303F               	movlw	63
  8282  0147  008C               	movwf	12	;volatile
  8283                           
  8284                           ;mcc_generated_files/pin_manager.c: 87:     WPUD = 0x00;
  8285  0148  0024               	movlb	4	; select bank4
  8286  0149  018F               	clrf	15	;volatile
  8287                           
  8288                           ;mcc_generated_files/pin_manager.c: 88:     WPUE = 0x00;
  8289  014A  0190               	clrf	16	;volatile
  8290                           
  8291                           ;mcc_generated_files/pin_manager.c: 89:     WPUB = 0x00;
  8292  014B  018D               	clrf	13	;volatile
  8293                           
  8294                           ;mcc_generated_files/pin_manager.c: 90:     WPUA = 0x00;
  8295  014C  018C               	clrf	12	;volatile
  8296                           
  8297                           ;mcc_generated_files/pin_manager.c: 91:     WPUC = 0x00;
  8298  014D  018E               	clrf	14	;volatile
  8299  014E                     l1987:
  8300                           
  8301                           ;mcc_generated_files/pin_manager.c: 92:     OPTION_REGbits.nWPUEN = 1;
  8302  014E  0021               	movlb	1	; select bank1
  8303  014F  1795               	bsf	21,7	;volatile
  8304                           
  8305                           ;mcc_generated_files/pin_manager.c: 97:     ODCONE = 0x00;
  8306  0150  0025               	movlb	5	; select bank5
  8307  0151  0190               	clrf	16	;volatile
  8308                           
  8309                           ;mcc_generated_files/pin_manager.c: 98:     ODCONA = 0x00;
  8310  0152  018C               	clrf	12	;volatile
  8311                           
  8312                           ;mcc_generated_files/pin_manager.c: 99:     ODCONB = 0x00;
  8313  0153  018D               	clrf	13	;volatile
  8314                           
  8315                           ;mcc_generated_files/pin_manager.c: 100:     ODCONC = 0x00;
  8316  0154  018E               	clrf	14	;volatile
  8317                           
  8318                           ;mcc_generated_files/pin_manager.c: 101:     ODCOND = 0x00;
  8319  0155  018F               	clrf	15	;volatile
  8320  0156                     l1989:
  8321                           
  8322                           ;mcc_generated_files/pin_manager.c: 106:     SLRCONA = 0xFF;
  8323  0156  30FF               	movlw	255
  8324  0157  0026               	movlb	6	; select bank6
  8325  0158  008C               	movwf	12	;volatile
  8326  0159                     l1991:
  8327                           
  8328                           ;mcc_generated_files/pin_manager.c: 107:     SLRCONB = 0xFF;
  8329  0159  30FF               	movlw	255
  8330  015A  008D               	movwf	13	;volatile
  8331  015B                     l1993:
  8332                           
  8333                           ;mcc_generated_files/pin_manager.c: 108:     SLRCONC = 0xFF;
  8334  015B  30FF               	movlw	255
  8335  015C  008E               	movwf	14	;volatile
  8336  015D                     l1995:
  8337                           
  8338                           ;mcc_generated_files/pin_manager.c: 109:     SLRCOND = 0xFF;
  8339  015D  30FF               	movlw	255
  8340  015E  008F               	movwf	15	;volatile
  8341  015F                     l1997:
  8342                           
  8343                           ;mcc_generated_files/pin_manager.c: 110:     SLRCONE = 0x07;
  8344  015F  3007               	movlw	7
  8345  0160  0090               	movwf	16	;volatile
  8346  0161                     l1999:
  8347                           
  8348                           ;mcc_generated_files/pin_manager.c: 115:     INLVLA = 0xFF;
  8349  0161  30FF               	movlw	255
  8350  0162  0027               	movlb	7	; select bank7
  8351  0163  008C               	movwf	12	;volatile
  8352  0164                     l2001:
  8353                           
  8354                           ;mcc_generated_files/pin_manager.c: 116:     INLVLB = 0xFF;
  8355  0164  30FF               	movlw	255
  8356  0165  008D               	movwf	13	;volatile
  8357  0166                     l2003:
  8358                           
  8359                           ;mcc_generated_files/pin_manager.c: 117:     INLVLC = 0xFF;
  8360  0166  30FF               	movlw	255
  8361  0167  008E               	movwf	14	;volatile
  8362  0168                     l2005:
  8363                           
  8364                           ;mcc_generated_files/pin_manager.c: 118:     INLVLD = 0xFF;
  8365  0168  30FF               	movlw	255
  8366  0169  008F               	movwf	15	;volatile
  8367  016A                     l2007:
  8368                           
  8369                           ;mcc_generated_files/pin_manager.c: 119:     INLVLE = 0x0F;
  8370  016A  300F               	movlw	15
  8371  016B  0090               	movwf	16	;volatile
  8372  016C                     l2009:
  8373                           
  8374                           ;mcc_generated_files/pin_manager.c: 128:     RXPPS = 0x17;
  8375  016C  3017               	movlw	23
  8376  016D  003C               	movlb	28	; select bank28
  8377  016E  00A4               	movwf	36	;volatile
  8378  016F                     l2011:
  8379                           
  8380                           ;mcc_generated_files/pin_manager.c: 129:     RB1PPS = 0x0F;
  8381  016F  300F               	movlw	15
  8382  0170  003D               	movlb	29	; select bank29
  8383  0171  0099               	movwf	25	;volatile
  8384  0172                     l2013:
  8385                           
  8386                           ;mcc_generated_files/pin_manager.c: 130:     RB0PPS = 0x0E;
  8387  0172  300E               	movlw	14
  8388  0173  0098               	movwf	24	;volatile
  8389  0174                     l2015:
  8390                           
  8391                           ;mcc_generated_files/pin_manager.c: 131:     RC6PPS = 0x14;
  8392  0174  3014               	movlw	20
  8393  0175  00A6               	movwf	38	;volatile
  8394  0176                     l114:
  8395  0176  0008               	return
  8396  0177                     __end_of_PIN_MANAGER_Initialize:
  8397                           
  8398                           	psect	text39
  8399  0EBB                     __ptext39:	
  8400 ;; *************** function _OSCILLATOR_Initialize *****************
  8401 ;; Defined at:
  8402 ;;		line 62 in file "mcc_generated_files/mcc.c"
  8403 ;; Parameters:    Size  Location     Type
  8404 ;;		None
  8405 ;; Auto vars:     Size  Location     Type
  8406 ;;		None
  8407 ;; Return value:  Size  Location     Type
  8408 ;;                  1    wreg      void 
  8409 ;; Registers used:
  8410 ;;		wreg, status,2
  8411 ;; Tracked objects:
  8412 ;;		On entry : 0/0
  8413 ;;		On exit  : 0/0
  8414 ;;		Unchanged: 0/0
  8415 ;; Data sizes:     COMMON   BANK0   BANK1   BANK2   BANK3   BANK4   BANK5   BANK6   BANK7   BANK8   BANK9  BANK10  BANK1
      +1  BANK12
  8416 ;;      Params:         0       0       0       0       0       0       0       0       0       0       0       0       
      +0       0
  8417 ;;      Locals:         0       0       0       0       0       0       0       0       0       0       0       0       
      +0       0
  8418 ;;      Temps:          0       0       0       0       0       0       0       0       0       0       0       0       
      +0       0
  8419 ;;      Totals:         0       0       0       0       0       0       0       0       0       0       0       0       
      +0       0
  8420 ;;Total ram usage:        0 bytes
  8421 ;; Hardware stack levels used:    1
  8422 ;; This function calls:
  8423 ;;		Nothing
  8424 ;; This function is called by:
  8425 ;;		_SYSTEM_Initialize
  8426 ;; This function uses a non-reentrant model
  8427 ;;
  8428                           
  8429                           
  8430                           ;psect for function _OSCILLATOR_Initialize
  8431  0EBB                     _OSCILLATOR_Initialize:
  8432  0EBB                     l2017:	
  8433                           ;incstack = 0
  8434                           ; Regs used in _OSCILLATOR_Initialize: [wreg+status,2]
  8435                           
  8436                           
  8437                           ;mcc_generated_files/mcc.c: 65:     OSCCON = 0x58;
  8438  0EBB  3058               	movlw	88
  8439  0EBC  0021               	movlb	1	; select bank1
  8440  0EBD  0099               	movwf	25	;volatile
  8441  0EBE                     l2019:
  8442                           
  8443                           ;mcc_generated_files/mcc.c: 67:     OSCTUNE = 0x00;
  8444  0EBE  0198               	clrf	24	;volatile
  8445  0EBF                     l2021:
  8446                           
  8447                           ;mcc_generated_files/mcc.c: 69:     BORCON = 0x00;
  8448  0EBF  0022               	movlb	2	; select bank2
  8449  0EC0  0196               	clrf	22	;volatile
  8450  0EC1                     l28:
  8451  0EC1  0008               	return
  8452  0EC2                     __end_of_OSCILLATOR_Initialize:
  8453                           
  8454                           	psect	text40
  8455  004D                     __ptext40:	
  8456 ;; *************** function _EUSART_Initialize *****************
  8457 ;; Defined at:
  8458 ;;		line 66 in file "mcc_generated_files/eusart.c"
  8459 ;; Parameters:    Size  Location     Type
  8460 ;;		None
  8461 ;; Auto vars:     Size  Location     Type
  8462 ;;		None
  8463 ;; Return value:  Size  Location     Type
  8464 ;;                  1    wreg      void 
  8465 ;; Registers used:
  8466 ;;		wreg, status,2, status,0, pclath, cstack
  8467 ;; Tracked objects:
  8468 ;;		On entry : 0/0
  8469 ;;		On exit  : 0/0
  8470 ;;		Unchanged: 0/0
  8471 ;; Data sizes:     COMMON   BANK0   BANK1   BANK2   BANK3   BANK4   BANK5   BANK6   BANK7   BANK8   BANK9  BANK10  BANK1
      +1  BANK12
  8472 ;;      Params:         0       0       0       0       0       0       0       0       0       0       0       0       
      +0       0
  8473 ;;      Locals:         0       0       0       0       0       0       0       0       0       0       0       0       
      +0       0
  8474 ;;      Temps:          0       0       0       0       0       0       0       0       0       0       0       0       
      +0       0
  8475 ;;      Totals:         0       0       0       0       0       0       0       0       0       0       0       0       
      +0       0
  8476 ;;Total ram usage:        0 bytes
  8477 ;; Hardware stack levels used:    1
  8478 ;; Hardware stack levels required when called:    1
  8479 ;; This function calls:
  8480 ;;		_EUSART_SetErrorHandler
  8481 ;;		_EUSART_SetFramingErrorHandler
  8482 ;;		_EUSART_SetOverrunErrorHandler
  8483 ;; This function is called by:
  8484 ;;		_SYSTEM_Initialize
  8485 ;; This function uses a non-reentrant model
  8486 ;;
  8487                           
  8488                           
  8489                           ;psect for function _EUSART_Initialize
  8490  004D                     _EUSART_Initialize:
  8491  004D                     l2049:	
  8492                           ;incstack = 0
  8493                           ; Regs used in _EUSART_Initialize: [wreg+status,2+status,0+pclath+cstack]
  8494                           
  8495                           
  8496                           ;mcc_generated_files/eusart.c: 71:     BAUD1CON = 0x08;
  8497  004D  3008               	movlw	8
  8498  004E  0023               	movlb	3	; select bank3
  8499  004F  009F               	movwf	31	;volatile
  8500                           
  8501                           ;mcc_generated_files/eusart.c: 74:     RC1STA = 0x90;
  8502  0050  3090               	movlw	144
  8503  0051  009D               	movwf	29	;volatile
  8504                           
  8505                           ;mcc_generated_files/eusart.c: 77:     TX1STA = 0x24;
  8506  0052  3024               	movlw	36
  8507  0053  009E               	movwf	30	;volatile
  8508                           
  8509                           ;mcc_generated_files/eusart.c: 80:     SP1BRGL = 0x19;
  8510  0054  3019               	movlw	25
  8511  0055  009B               	movwf	27	;volatile
  8512  0056                     l2051:
  8513                           
  8514                           ;mcc_generated_files/eusart.c: 83:     SP1BRGH = 0x00;
  8515  0056  019C               	clrf	28	;volatile
  8516  0057                     l2053:
  8517                           
  8518                           ;mcc_generated_files/eusart.c: 86:     EUSART_SetFramingErrorHandler(EUSART_DefaultFrami
      +                          ngErrorHandler);
  8519  0057  3000               	movlw	0
  8520  0058  00F0               	movwf	EUSART_SetFramingErrorHandler@interruptHandler
  8521  0059  3000               	movlw	0
  8522  005A  00F1               	movwf	EUSART_SetFramingErrorHandler@interruptHandler+1
  8523  005B  318E  26A3  3180   	fcall	_EUSART_SetFramingErrorHandler
  8524  005E                     l2055:
  8525                           
  8526                           ;mcc_generated_files/eusart.c: 87:     EUSART_SetOverrunErrorHandler(EUSART_DefaultOverr
      +                          unErrorHandler);
  8527  005E  3000               	movlw	0
  8528  005F  00F0               	movwf	EUSART_SetOverrunErrorHandler@interruptHandler
  8529  0060  3000               	movlw	0
  8530  0061  00F1               	movwf	EUSART_SetOverrunErrorHandler@interruptHandler+1
  8531  0062  318E  26A9  3180   	fcall	_EUSART_SetOverrunErrorHandler
  8532  0065                     l2057:
  8533                           
  8534                           ;mcc_generated_files/eusart.c: 88:     EUSART_SetErrorHandler(EUSART_DefaultErrorHandler
      +                          );
  8535  0065  3000               	movlw	0
  8536  0066  00F0               	movwf	EUSART_SetErrorHandler@interruptHandler
  8537  0067  3000               	movlw	0
  8538  0068  00F1               	movwf	EUSART_SetErrorHandler@interruptHandler+1
  8539  0069  318E  269D  3180   	fcall	_EUSART_SetErrorHandler
  8540  006C                     l2059:
  8541                           
  8542                           ;mcc_generated_files/eusart.c: 90:     eusartRxLastError.status = 0;
  8543  006C  0021               	movlb	1	; select bank1
  8544  006D  01A8               	clrf	_eusartRxLastError^(0+128)	;volatile
  8545  006E                     l160:
  8546  006E  0008               	return
  8547  006F                     __end_of_EUSART_Initialize:
  8548                           
  8549                           	psect	text41
  8550  0EA9                     __ptext41:	
  8551 ;; *************** function _EUSART_SetOverrunErrorHandler *****************
  8552 ;; Defined at:
  8553 ;;		line 170 in file "mcc_generated_files/eusart.c"
  8554 ;; Parameters:    Size  Location     Type
  8555 ;;  interruptHan    2    0[COMMON] PTR FTN()void 
  8556 ;;		 -> EUSART_DefaultOverrunErrorHandler(1), 
  8557 ;; Auto vars:     Size  Location     Type
  8558 ;;		None
  8559 ;; Return value:  Size  Location     Type
  8560 ;;                  1    wreg      void 
  8561 ;; Registers used:
  8562 ;;		wreg
  8563 ;; Tracked objects:
  8564 ;;		On entry : 0/0
  8565 ;;		On exit  : 0/0
  8566 ;;		Unchanged: 0/0
  8567 ;; Data sizes:     COMMON   BANK0   BANK1   BANK2   BANK3   BANK4   BANK5   BANK6   BANK7   BANK8   BANK9  BANK10  BANK1
      +1  BANK12
  8568 ;;      Params:         2       0       0       0       0       0       0       0       0       0       0       0       
      +0       0
  8569 ;;      Locals:         0       0       0       0       0       0       0       0       0       0       0       0       
      +0       0
  8570 ;;      Temps:          0       0       0       0       0       0       0       0       0       0       0       0       
      +0       0
  8571 ;;      Totals:         2       0       0       0       0       0       0       0       0       0       0       0       
      +0       0
  8572 ;;Total ram usage:        2 bytes
  8573 ;; Hardware stack levels used:    1
  8574 ;; This function calls:
  8575 ;;		Nothing
  8576 ;; This function is called by:
  8577 ;;		_EUSART_Initialize
  8578 ;; This function uses a non-reentrant model
  8579 ;;
  8580                           
  8581                           
  8582                           ;psect for function _EUSART_SetOverrunErrorHandler
  8583  0EA9                     _EUSART_SetOverrunErrorHandler:
  8584  0EA9                     l1893:	
  8585                           ;incstack = 0
  8586                           ; Regs used in _EUSART_SetOverrunErrorHandler: [wreg]
  8587                           
  8588                           
  8589                           ;mcc_generated_files/eusart.c: 171:     EUSART_OverrunErrorHandler = interruptHandler;
  8590  0EA9  0871               	movf	EUSART_SetOverrunErrorHandler@interruptHandler+1,w
  8591  0EAA  0021               	movlb	1	; select bank1
  8592  0EAB  00EA               	movwf	(_EUSART_OverrunErrorHandler+1)^(0+128)
  8593  0EAC  0870               	movf	EUSART_SetOverrunErrorHandler@interruptHandler,w
  8594  0EAD  00E9               	movwf	_EUSART_OverrunErrorHandler^(0+128)
  8595  0EAE                     l208:
  8596  0EAE  0008               	return
  8597  0EAF                     __end_of_EUSART_SetOverrunErrorHandler:
  8598                           
  8599                           	psect	text42
  8600  0EA3                     __ptext42:	
  8601 ;; *************** function _EUSART_SetFramingErrorHandler *****************
  8602 ;; Defined at:
  8603 ;;		line 166 in file "mcc_generated_files/eusart.c"
  8604 ;; Parameters:    Size  Location     Type
  8605 ;;  interruptHan    2    0[COMMON] PTR FTN()void 
  8606 ;;		 -> EUSART_DefaultFramingErrorHandler(1), 
  8607 ;; Auto vars:     Size  Location     Type
  8608 ;;		None
  8609 ;; Return value:  Size  Location     Type
  8610 ;;                  1    wreg      void 
  8611 ;; Registers used:
  8612 ;;		wreg
  8613 ;; Tracked objects:
  8614 ;;		On entry : 0/0
  8615 ;;		On exit  : 0/0
  8616 ;;		Unchanged: 0/0
  8617 ;; Data sizes:     COMMON   BANK0   BANK1   BANK2   BANK3   BANK4   BANK5   BANK6   BANK7   BANK8   BANK9  BANK10  BANK1
      +1  BANK12
  8618 ;;      Params:         2       0       0       0       0       0       0       0       0       0       0       0       
      +0       0
  8619 ;;      Locals:         0       0       0       0       0       0       0       0       0       0       0       0       
      +0       0
  8620 ;;      Temps:          0       0       0       0       0       0       0       0       0       0       0       0       
      +0       0
  8621 ;;      Totals:         2       0       0       0       0       0       0       0       0       0       0       0       
      +0       0
  8622 ;;Total ram usage:        2 bytes
  8623 ;; Hardware stack levels used:    1
  8624 ;; This function calls:
  8625 ;;		Nothing
  8626 ;; This function is called by:
  8627 ;;		_EUSART_Initialize
  8628 ;; This function uses a non-reentrant model
  8629 ;;
  8630                           
  8631                           
  8632                           ;psect for function _EUSART_SetFramingErrorHandler
  8633  0EA3                     _EUSART_SetFramingErrorHandler:
  8634  0EA3                     l1891:	
  8635                           ;incstack = 0
  8636                           ; Regs used in _EUSART_SetFramingErrorHandler: [wreg]
  8637                           
  8638                           
  8639                           ;mcc_generated_files/eusart.c: 167:     EUSART_FramingErrorHandler = interruptHandler;
  8640  0EA3  0871               	movf	EUSART_SetFramingErrorHandler@interruptHandler+1,w
  8641  0EA4  0021               	movlb	1	; select bank1
  8642  0EA5  00EC               	movwf	(_EUSART_FramingErrorHandler+1)^(0+128)
  8643  0EA6  0870               	movf	EUSART_SetFramingErrorHandler@interruptHandler,w
  8644  0EA7  00EB               	movwf	_EUSART_FramingErrorHandler^(0+128)
  8645  0EA8                     l205:
  8646  0EA8  0008               	return
  8647  0EA9                     __end_of_EUSART_SetFramingErrorHandler:
  8648                           
  8649                           	psect	text43
  8650  0E9D                     __ptext43:	
  8651 ;; *************** function _EUSART_SetErrorHandler *****************
  8652 ;; Defined at:
  8653 ;;		line 174 in file "mcc_generated_files/eusart.c"
  8654 ;; Parameters:    Size  Location     Type
  8655 ;;  interruptHan    2    0[COMMON] PTR FTN()void 
  8656 ;;		 -> EUSART_DefaultErrorHandler(1), 
  8657 ;; Auto vars:     Size  Location     Type
  8658 ;;		None
  8659 ;; Return value:  Size  Location     Type
  8660 ;;                  1    wreg      void 
  8661 ;; Registers used:
  8662 ;;		wreg
  8663 ;; Tracked objects:
  8664 ;;		On entry : 0/0
  8665 ;;		On exit  : 0/0
  8666 ;;		Unchanged: 0/0
  8667 ;; Data sizes:     COMMON   BANK0   BANK1   BANK2   BANK3   BANK4   BANK5   BANK6   BANK7   BANK8   BANK9  BANK10  BANK1
      +1  BANK12
  8668 ;;      Params:         2       0       0       0       0       0       0       0       0       0       0       0       
      +0       0
  8669 ;;      Locals:         0       0       0       0       0       0       0       0       0       0       0       0       
      +0       0
  8670 ;;      Temps:          0       0       0       0       0       0       0       0       0       0       0       0       
      +0       0
  8671 ;;      Totals:         2       0       0       0       0       0       0       0       0       0       0       0       
      +0       0
  8672 ;;Total ram usage:        2 bytes
  8673 ;; Hardware stack levels used:    1
  8674 ;; This function calls:
  8675 ;;		Nothing
  8676 ;; This function is called by:
  8677 ;;		_EUSART_Initialize
  8678 ;; This function uses a non-reentrant model
  8679 ;;
  8680                           
  8681                           
  8682                           ;psect for function _EUSART_SetErrorHandler
  8683  0E9D                     _EUSART_SetErrorHandler:
  8684  0E9D                     l1895:	
  8685                           ;incstack = 0
  8686                           ; Regs used in _EUSART_SetErrorHandler: [wreg]
  8687                           
  8688                           
  8689                           ;mcc_generated_files/eusart.c: 175:     EUSART_ErrorHandler = interruptHandler;
  8690  0E9D  0871               	movf	EUSART_SetErrorHandler@interruptHandler+1,w
  8691  0E9E  0021               	movlb	1	; select bank1
  8692  0E9F  00E8               	movwf	(_EUSART_ErrorHandler+1)^(0+128)
  8693  0EA0  0870               	movf	EUSART_SetErrorHandler@interruptHandler,w
  8694  0EA1  00E7               	movwf	_EUSART_ErrorHandler^(0+128)
  8695  0EA2                     l211:
  8696  0EA2  0008               	return
  8697  0EA3                     __end_of_EUSART_SetErrorHandler:
  8698  007E                     btemp	set	126	;btemp
  8699  007E                     wtemp0	set	126
  8700                           
  8701                           	psect	config
  8702                           
  8703                           ;Config register CONFIG1 @ 0x8007
  8704                           ;	Oscillator Selection Bits
  8705                           ;	FOSC = INTOSC, INTOSC oscillator: I/O function on CLKIN pin
  8706                           ;	Watchdog Timer Enable
  8707                           ;	WDTE = OFF, WDT disabled
  8708                           ;	Power-up Timer Enable
  8709                           ;	PWRTE = OFF, PWRT disabled
  8710                           ;	MCLR Pin Function Select
  8711                           ;	MCLRE = ON, MCLR/VPP pin function is MCLR
  8712                           ;	Flash Program Memory Code Protection
  8713                           ;	CP = OFF, Program memory code protection is disabled
  8714                           ;	Brown-out Reset Enable
  8715                           ;	BOREN = ON, Brown-out Reset enabled
  8716                           ;	Clock Out Enable
  8717                           ;	CLKOUTEN = OFF, CLKOUT function is disabled. I/O or oscillator function on the CLKOUT 
      +                          pin
  8718                           ;	Internal/External Switchover Mode
  8719                           ;	IESO = ON, Internal/External Switchover Mode is enabled
  8720                           ;	Fail-Safe Clock Monitor Enable
  8721                           ;	FCMEN = ON, Fail-Safe Clock Monitor is enabled
  8722  8007                     	org	32775
  8723  8007  3FE4               	dw	16356
  8724                           
  8725                           ;Config register CONFIG2 @ 0x8008
  8726                           ;	Flash Memory Self-Write Protection
  8727                           ;	WRT = OFF, Write protection off
  8728                           ;	Peripheral Pin Select one-way control
  8729                           ;	PPS1WAY = ON, The PPSLOCK bit cannot be cleared once it is set by software
  8730                           ;	Zero-cross detect disable
  8731                           ;	ZCDDIS = ON, Zero-cross detect circuit is disabled at POR and can be enabled with ZCDS
      +                          EN bit.
  8732                           ;	Phase Lock Loop enable
  8733                           ;	PLLEN = OFF, 4x PLL is enabled when software sets the SPLLEN bit
  8734                           ;	Stack Overflow/Underflow Reset Enable
  8735                           ;	STVREN = ON, Stack Overflow or Underflow will cause a Reset
  8736                           ;	Brown-out Reset Voltage Selection
  8737                           ;	BORV = LO, Brown-out Reset Voltage (Vbor), low trip point selected.
  8738                           ;	Low-Power Brown Out Reset
  8739                           ;	LPBOR = OFF, Low-Power BOR is disabled
  8740                           ;	Low-Voltage Programming Enable
  8741                           ;	LVP = ON, Low-voltage programming enabled
  8742  8008                     	org	32776
  8743  8008  3EFF               	dw	16127

Data Sizes:
    Strings     279
    Constant    0
    Data        0
    BSS         41
    Persistent  38
    Stack       0

Auto Spaces:
    Space          Size  Autos    Used
    COMMON           14     14      14
    BANK0            80     80      80
    BANK1            80     30      77
    BANK2            80      0       0
    BANK3            80      0       0
    BANK4            80      0       0
    BANK5            80      0       0
    BANK6            80      0       0
    BANK7            80      0       0
    BANK8            80      0       0
    BANK9            80      0       0
    BANK10           80      0       0
    BANK11           80      0       0
    BANK12           48      0       0

Pointer List with Targets:

    strlen@s	PTR const unsigned char  size(1) Largest target is 32
		 -> dbuf(BANK1[32]), 

    strlen@a	PTR const unsigned char  size(1) Largest target is 32
		 -> dbuf(BANK1[32]), 

    fputs@s	PTR const unsigned char  size(1) Largest target is 32
		 -> dbuf(BANK1[32]), 

    fputs@fp	PTR struct _IO_FILE size(1) Largest target is 0
		 -> NULL(NULL[0]), 

    S1003_IO_FILE$buffer	PTR unsigned char  size(1) Largest target is 0

    fputc@fp.buffer	PTR unsigned char  size(1) Largest target is 0

    fputc@fp	PTR struct _IO_FILE size(1) Largest target is 0
		 -> NULL(NULL[0]), 

    vfprintf@ap	PTR PTR void  size(1) Largest target is 1
		 -> printf@ap(BANK0[1]), 

    vfprintf@fp	PTR struct _IO_FILE size(1) Largest target is 0
		 -> NULL(NULL[0]), 

    vfprintf@fmt	PTR const unsigned char  size(2) Largest target is 29
		 -> STR_15(CODE[19]), STR_14(CODE[27]), STR_13(CODE[15]), STR_12(CODE[17]), 
		 -> STR_11(CODE[16]), STR_10(CODE[9]), STR_9(CODE[9]), STR_8(CODE[9]), 
		 -> STR_7(CODE[21]), STR_6(CODE[21]), STR_5(CODE[29]), STR_4(CODE[21]), 
		 -> STR_3(CODE[22]), STR_2(CODE[22]), STR_1(CODE[22]), 

    vfprintf@cfmt	PTR unsigned char  size(2) Largest target is 29
		 -> STR_15(CODE[19]), STR_14(CODE[27]), STR_13(CODE[15]), STR_12(CODE[17]), 
		 -> STR_11(CODE[16]), STR_10(CODE[9]), STR_9(CODE[9]), STR_8(CODE[9]), 
		 -> STR_7(CODE[21]), STR_6(CODE[21]), STR_5(CODE[29]), STR_4(CODE[21]), 
		 -> STR_3(CODE[22]), STR_2(CODE[22]), STR_1(CODE[22]), 

    vfpfcnvrt@fp	PTR struct _IO_FILE size(1) Largest target is 0
		 -> NULL(NULL[0]), 

    vfpfcnvrt@ap	PTR PTR void  size(1) Largest target is 1
		 -> printf@ap(BANK0[1]), 

    vfpfcnvrt@fmt	PTR PTR unsigned char  size(1) Largest target is 2
		 -> vfprintf@cfmt(BANK0[2]), 

    dtoa@fp	PTR struct _IO_FILE size(1) Largest target is 0
		 -> NULL(NULL[0]), 

    pad@fp	PTR struct _IO_FILE size(1) Largest target is 0
		 -> NULL(NULL[0]), 

    pad@buf	PTR unsigned char  size(1) Largest target is 32
		 -> dbuf(BANK1[32]), 

    printf@fmt	PTR const unsigned char  size(2) Largest target is 29
		 -> STR_15(CODE[19]), STR_14(CODE[27]), STR_13(CODE[15]), STR_12(CODE[17]), 
		 -> STR_11(CODE[16]), STR_10(CODE[9]), STR_9(CODE[9]), STR_8(CODE[9]), 
		 -> STR_7(CODE[21]), STR_6(CODE[21]), STR_5(CODE[29]), STR_4(CODE[21]), 
		 -> STR_3(CODE[22]), STR_2(CODE[22]), STR_1(CODE[22]), 

    printf@ap	PTR void [1] size(1) Largest target is 2
		 -> ?_printf(BANK0[2]), 

    initialize_led@led.set_color	PTR FTN(int ,)void  size(2) Largest target is 1
		 -> set_color(), 

    initialize_led@led.set_brightness	PTR FTN(int ,)void  size(2) Largest target is 1
		 -> set_brightness(), 

    initialize_led@led	PTR struct led size(1) Largest target is 4
		 -> main@led(BANK1[4]), 

    initialize_lcd_screen@lcd_screen_var.demo3	PTR FTN()void  size(2) Largest target is 1
		 -> demo3(), 

    initialize_lcd_screen@lcd_screen_var.demo2	PTR FTN()void  size(2) Largest target is 1
		 -> demo2(), 

    initialize_lcd_screen@lcd_screen_var.demo1	PTR FTN()void  size(2) Largest target is 1
		 -> demo1(), 

    initialize_lcd_screen@lcd_screen_var	PTR struct lcd_screen size(1) Largest target is 6
		 -> main@lcd_screen(BANK1[6]), 

    initialize_temp@sensor_var.close	PTR FTN()void  size(2) Largest target is 1
		 -> close@temp_sensor$F433(), close(), 

    initialize_temp@sensor_var.read	PTR FTN()float  size(2) Largest target is 4
		 -> read@temp_sensor$F431(), read(), 

    initialize_temp@sensor_var.open	PTR FTN()_Bool  size(2) Largest target is 1
		 -> open@temp_sensor$F427(), open(), 

    initialize_temp@sensor_var	PTR struct sensor size(1) Largest target is 6
		 -> main@temp_sensor(BANK1[6]), 

    initialize_light@sensor_var.close	PTR FTN()void  size(2) Largest target is 1
		 -> close@temp_sensor$F433(), close(), 

    initialize_light@sensor_var.read	PTR FTN()float  size(2) Largest target is 4
		 -> read@temp_sensor$F431(), read(), 

    initialize_light@sensor_var.open	PTR FTN()_Bool  size(2) Largest target is 1
		 -> open@temp_sensor$F427(), open(), 

    initialize_light@sensor_var	PTR struct sensor size(1) Largest target is 6
		 -> main@light_sensor(BANK1[6]), 

    S327led$set_color	PTR FTN(int ,)void  size(2) Largest target is 1
		 -> set_color(), 

    led.set_color	PTR FTN(int ,)void  size(2) Largest target is 1
		 -> set_color(), 

    S327led$set_brightness	PTR FTN(int ,)void  size(2) Largest target is 1
		 -> set_brightness(), 

    led.set_brightness	PTR FTN(int ,)void  size(2) Largest target is 1
		 -> set_brightness(), 

    S321lcd_screen$demo3	PTR FTN()void  size(2) Largest target is 1
		 -> demo3(), 

    lcd_screen.demo3	PTR FTN()void  size(2) Largest target is 1
		 -> demo3(), 

    S321lcd_screen$demo2	PTR FTN()void  size(2) Largest target is 1
		 -> demo2(), 

    lcd_screen.demo2	PTR FTN()void  size(2) Largest target is 1
		 -> demo2(), 

    S321lcd_screen$demo1	PTR FTN()void  size(2) Largest target is 1
		 -> demo1(), 

    lcd_screen.demo1	PTR FTN()void  size(2) Largest target is 1
		 -> demo1(), 

    temp_sensor.close	PTR FTN()void  size(2) Largest target is 1
		 -> close@temp_sensor$F433(), close(), 

    temp_sensor.read	PTR FTN()float  size(2) Largest target is 4
		 -> read@temp_sensor$F431(), read(), 

    temp_sensor.open	PTR FTN()_Bool  size(2) Largest target is 1
		 -> open@temp_sensor$F427(), open(), 

    S314sensor$close	PTR FTN()void  size(2) Largest target is 1
		 -> close@temp_sensor$F433(), close(), 

    light_sensor.close	PTR FTN()void  size(2) Largest target is 1
		 -> close@temp_sensor$F433(), close(), 

    S314sensor$read	PTR FTN()float  size(2) Largest target is 4
		 -> read@temp_sensor$F431(), read(), 

    light_sensor.read	PTR FTN()float  size(2) Largest target is 4
		 -> read@temp_sensor$F431(), read(), 

    S314sensor$open	PTR FTN()_Bool  size(2) Largest target is 1
		 -> open@temp_sensor$F427(), open(), 

    light_sensor.open	PTR FTN()_Bool  size(2) Largest target is 1
		 -> open@temp_sensor$F427(), open(), 

    EUSART_SetErrorHandler@interruptHandler	PTR FTN()void  size(2) Largest target is 1
		 -> EUSART_DefaultErrorHandler(), 

    EUSART_ErrorHandler	PTR FTN()void  size(2) Largest target is 1
		 -> Absolute function(), EUSART_DefaultErrorHandler(), 

    EUSART_SetOverrunErrorHandler@interruptHandler	PTR FTN()void  size(2) Largest target is 1
		 -> EUSART_DefaultOverrunErrorHandler(), 

    EUSART_OverrunErrorHandler	PTR FTN()void  size(2) Largest target is 1
		 -> Absolute function(), EUSART_DefaultOverrunErrorHandler(), 

    EUSART_SetFramingErrorHandler@interruptHandler	PTR FTN()void  size(2) Largest target is 1
		 -> EUSART_DefaultFramingErrorHandler(), 

    EUSART_FramingErrorHandler	PTR FTN()void  size(2) Largest target is 1
		 -> Absolute function(), EUSART_DefaultFramingErrorHandler(), 


Critical Paths under _main in COMMON

    _map->___awdiv
    ___awdiv->___wmul
    _pad->_fputs
    _fputs->_fputc
    _fputc->_putch
    _putch->_EUSART_Write
    _abs->___aomod
    _EUSART_Initialize->_EUSART_SetErrorHandler
    _EUSART_Initialize->_EUSART_SetFramingErrorHandler
    _EUSART_Initialize->_EUSART_SetOverrunErrorHandler

Critical Paths under _main in BANK0

    _main->_set_brightness
    _main->_set_color
    _turn_red->_printf
    _turn_green->_printf
    _turn_blue->_printf
    _set_brightness->_printf
    _map->___awdiv
    _demo3->_printf
    _demo2->_printf
    _demo1->_printf
    _printf->_vfprintf
    _vfprintf->_vfpfcnvrt
    _vfpfcnvrt->_dtoa
    _dtoa->___aodiv
    _dtoa->___aomod
    _pad->_fputs
    _abs->___aomod

Critical Paths under _main in BANK1

    _main->_set_color

Critical Paths under _main in BANK2

    None.

Critical Paths under _main in BANK3

    None.

Critical Paths under _main in BANK4

    None.

Critical Paths under _main in BANK5

    None.

Critical Paths under _main in BANK6

    None.

Critical Paths under _main in BANK7

    None.

Critical Paths under _main in BANK8

    None.

Critical Paths under _main in BANK9

    None.

Critical Paths under _main in BANK10

    None.

Critical Paths under _main in BANK11

    None.

Critical Paths under _main in BANK12

    None.

Call Graph Tables:

 ---------------------------------------------------------------------------------
 (Depth) Function   	        Calls       Base Space   Used Autos Params    Refs
 ---------------------------------------------------------------------------------
 (0) _main                                                27    27      0   55231
                                              3 BANK1     27    27      0
                  _SYSTEM_Initialize
                            ___awmod
                              _demo1 *
                              _demo2 *
                              _demo3 *
              _initialize_lcd_screen
                     _initialize_led
                   _initialize_light
                    _initialize_temp
                     _set_brightness *
                          _set_color *
 ---------------------------------------------------------------------------------
 (1) _set_color                                            5     3      2   23634
                                             78 BANK0      2     0      2
                                              0 BANK1      3     3      0
                                _map
                          _turn_blue
                         _turn_green
                           _turn_red
 ---------------------------------------------------------------------------------
 (2) _turn_red                                             0     0      0    7272
                             _printf
                     _turn_selectors
 ---------------------------------------------------------------------------------
 (2) _turn_green                                           0     0      0    7272
                             _printf
                     _turn_selectors
 ---------------------------------------------------------------------------------
 (2) _turn_blue                                            0     0      0    7272
                             _printf
                     _turn_selectors
 ---------------------------------------------------------------------------------
 (3) _turn_selectors                                       2     1      1     272
                                              0 COMMON     2     1      1
 ---------------------------------------------------------------------------------
 (1) _set_brightness                                       4     2      2    9014
                                             78 BANK0      2     0      2
                                              0 BANK1      2     2      0
                 _PWM3_LoadDutyValue
                 _PWM4_LoadDutyValue
                                _map
                             _printf
 ---------------------------------------------------------------------------------
 (2) _map                                                 10     0     10    1610
                                              4 BANK0     10     0     10
                            ___awdiv
                             ___wmul
 ---------------------------------------------------------------------------------
 (3) ___wmul                                               6     2      4     244
                                              0 COMMON     6     2      4
 ---------------------------------------------------------------------------------
 (3) ___awdiv                                              9     5      4     452
                                              6 COMMON     5     1      4
                                              0 BANK0      4     4      0
                             ___wmul (ARG)
 ---------------------------------------------------------------------------------
 (2) _PWM4_LoadDutyValue                                   4     2      2     120
                                              0 COMMON     4     2      2
 ---------------------------------------------------------------------------------
 (2) _PWM3_LoadDutyValue                                   4     2      2     120
                                              0 COMMON     4     2      2
 ---------------------------------------------------------------------------------
 (1) _initialize_temp                                      1     1      0      99
                                              0 COMMON     1     1      0
 ---------------------------------------------------------------------------------
 (1) _initialize_light                                     1     1      0      99
                                              0 COMMON     1     1      0
 ---------------------------------------------------------------------------------
 (1) _initialize_led                                       1     1      0      77
                                              0 COMMON     1     1      0
 ---------------------------------------------------------------------------------
 (1) _initialize_lcd_screen                                1     1      0      99
                                              0 COMMON     1     1      0
 ---------------------------------------------------------------------------------
 (1) _demo3                                                0     0      0    7000
                             _printf
 ---------------------------------------------------------------------------------
 (1) _demo2                                                0     0      0    7000
                             _printf
 ---------------------------------------------------------------------------------
 (1) _demo1                                                0     0      0    7000
                             _printf
 ---------------------------------------------------------------------------------
 (3) _printf                                               8     4      4    7000
                                             70 BANK0      8     4      4
                           _vfprintf
 ---------------------------------------------------------------------------------
 (4) _vfprintf                                             8     5      3    5806
                                             62 BANK0      8     5      3
                          _vfpfcnvrt
 ---------------------------------------------------------------------------------
 (5) _vfpfcnvrt                                           40    38      2    5478
                                             46 BANK0     16    14      2
                               _dtoa
                              _fputc
 ---------------------------------------------------------------------------------
 (6) _dtoa                                                30    22      8    4133
                                             16 BANK0     30    22      8
                            ___aodiv
                            ___aomod
                                _abs
                                _pad
 ---------------------------------------------------------------------------------
 (7) _pad                                                  9     6      3    2510
                                              4 BANK0      9     6      3
                              _fputc
                              _fputs
                             _strlen
 ---------------------------------------------------------------------------------
 (8) _strlen                                               5     3      2     123
                                              0 COMMON     5     3      2
 ---------------------------------------------------------------------------------
 (8) _fputs                                                8     7      1    1127
                                             10 COMMON     4     3      1
                                              0 BANK0      4     4      0
                              _fputc
 ---------------------------------------------------------------------------------
 (6) _fputc                                                8     5      3     812
                                              2 COMMON     8     5      3
                              _putch
 ---------------------------------------------------------------------------------
 (7) _putch                                                1     1      0      44
                                              1 COMMON     1     1      0
                       _EUSART_Write
 ---------------------------------------------------------------------------------
 (8) _EUSART_Write                                         1     1      0      22
                                              0 COMMON     1     1      0
 ---------------------------------------------------------------------------------
 (7) _abs                                                  4     2      2     142
                                              3 COMMON     4     2      2
                            ___aomod (ARG)
 ---------------------------------------------------------------------------------
 (7) ___aomod                                             19     3     16     448
                                              0 COMMON     3     3      0
                                              0 BANK0     16     0     16
 ---------------------------------------------------------------------------------
 (7) ___aodiv                                             27    11     16     452
                                              0 COMMON    11    11      0
                                              0 BANK0     16     0     16
 ---------------------------------------------------------------------------------
 (1) ___awmod                                              7     3      4     600
                                              0 COMMON     7     3      4
 ---------------------------------------------------------------------------------
 (1) _SYSTEM_Initialize                                    0     0      0     294
                  _EUSART_Initialize
              _OSCILLATOR_Initialize
             _PIN_MANAGER_Initialize
                    _PWM3_Initialize
                    _PWM4_Initialize
                    _TMR4_Initialize
                     _WDT_Initialize
 ---------------------------------------------------------------------------------
 (2) _WDT_Initialize                                       0     0      0       0
 ---------------------------------------------------------------------------------
 (2) _TMR4_Initialize                                      0     0      0       0
 ---------------------------------------------------------------------------------
 (2) _PWM4_Initialize                                      0     0      0       0
 ---------------------------------------------------------------------------------
 (2) _PWM3_Initialize                                      0     0      0       0
 ---------------------------------------------------------------------------------
 (2) _PIN_MANAGER_Initialize                               0     0      0       0
 ---------------------------------------------------------------------------------
 (2) _OSCILLATOR_Initialize                                0     0      0       0
 ---------------------------------------------------------------------------------
 (2) _EUSART_Initialize                                    0     0      0     294
             _EUSART_SetErrorHandler
      _EUSART_SetFramingErrorHandler
      _EUSART_SetOverrunErrorHandler
 ---------------------------------------------------------------------------------
 (3) _EUSART_SetOverrunErrorHandler                        2     0      2      98
                                              0 COMMON     2     0      2
 ---------------------------------------------------------------------------------
 (3) _EUSART_SetFramingErrorHandler                        2     0      2      98
                                              0 COMMON     2     0      2
 ---------------------------------------------------------------------------------
 (3) _EUSART_SetErrorHandler                               2     0      2      98
                                              0 COMMON     2     0      2
 ---------------------------------------------------------------------------------
 Estimated maximum stack depth 8
 ---------------------------------------------------------------------------------

 Call Graph Graphs:

 _main (ROOT)
   _SYSTEM_Initialize
     _EUSART_Initialize
       _EUSART_SetErrorHandler
       _EUSART_SetFramingErrorHandler
       _EUSART_SetOverrunErrorHandler
     _OSCILLATOR_Initialize
     _PIN_MANAGER_Initialize
     _PWM3_Initialize
     _PWM4_Initialize
     _TMR4_Initialize
     _WDT_Initialize
   ___awmod
   _demo1 *
     _printf
       _vfprintf
         _vfpfcnvrt
           _dtoa
             ___aodiv
             ___aomod
             _abs
               ___aomod (ARG)
             _pad
               _fputc
                 _putch
                   _EUSART_Write
               _fputs
                 _fputc
                   _putch
                     _EUSART_Write
               _strlen
           _fputc
             _putch
               _EUSART_Write
   _demo2 *
     _printf
       _vfprintf
         _vfpfcnvrt
           _dtoa
             ___aodiv
             ___aomod
             _abs
               ___aomod (ARG)
             _pad
               _fputc
                 _putch
                   _EUSART_Write
               _fputs
                 _fputc
                   _putch
                     _EUSART_Write
               _strlen
           _fputc
             _putch
               _EUSART_Write
   _demo3 *
     _printf
       _vfprintf
         _vfpfcnvrt
           _dtoa
             ___aodiv
             ___aomod
             _abs
               ___aomod (ARG)
             _pad
               _fputc
                 _putch
                   _EUSART_Write
               _fputs
                 _fputc
                   _putch
                     _EUSART_Write
               _strlen
           _fputc
             _putch
               _EUSART_Write
   _initialize_lcd_screen *
   _initialize_led *
   _initialize_light *
   _initialize_temp *
   _set_brightness *
     _PWM3_LoadDutyValue
     _PWM4_LoadDutyValue
     _map
       ___awdiv
         ___wmul (ARG)
       ___wmul
     _printf
       _vfprintf
         _vfpfcnvrt
           _dtoa
             ___aodiv
             ___aomod
             _abs
               ___aomod (ARG)
             _pad
               _fputc
                 _putch
                   _EUSART_Write
               _fputs
                 _fputc
                   _putch
                     _EUSART_Write
               _strlen
           _fputc
             _putch
               _EUSART_Write
   _set_color *
     _map
       ___awdiv
         ___wmul (ARG)
       ___wmul
     _turn_blue
       _printf
         _vfprintf
           _vfpfcnvrt
             _dtoa
               ___aodiv
               ___aomod
               _abs
                 ___aomod (ARG)
               _pad
                 _fputc
                   _putch
                     _EUSART_Write
                 _fputs
                   _fputc
                     _putch
                       _EUSART_Write
                 _strlen
             _fputc
               _putch
                 _EUSART_Write
       _turn_selectors
     _turn_green
       _printf
         _vfprintf
           _vfpfcnvrt
             _dtoa
               ___aodiv
               ___aomod
               _abs
                 ___aomod (ARG)
               _pad
                 _fputc
                   _putch
                     _EUSART_Write
                 _fputs
                   _fputc
                     _putch
                       _EUSART_Write
                 _strlen
             _fputc
               _putch
                 _EUSART_Write
       _turn_selectors
     _turn_red
       _printf
         _vfprintf
           _vfpfcnvrt
             _dtoa
               ___aodiv
               ___aomod
               _abs
                 ___aomod (ARG)
               _pad
                 _fputc
                   _putch
                     _EUSART_Write
                 _fputs
                   _fputc
                     _putch
                       _EUSART_Write
                 _strlen
             _fputc
               _putch
                 _EUSART_Write
       _turn_selectors

 Address spaces:
Name               Size   Autos  Total    Cost      Usage
BIGRAM             3F0      0       0       0        0.0%
NULL                 0      0       0       0        0.0%
CODE                 0      0       0       0        0.0%
BITCOMMON            E      0       0       1        0.0%
BITSFR0              0      0       0       1        0.0%
SFR0                 0      0       0       1        0.0%
COMMON               E      E       E       2      100.0%
BITSFR1              0      0       0       2        0.0%
SFR1                 0      0       0       2        0.0%
BITSFR2              0      0       0       3        0.0%
SFR2                 0      0       0       3        0.0%
STACK                0      0       0       3        0.0%
BITBANK0            50      0       0       4        0.0%
BITSFR3              0      0       0       4        0.0%
SFR3                 0      0       0       4        0.0%
BANK0               50     50      50       5      100.0%
BITSFR4              0      0       0       5        0.0%
SFR4                 0      0       0       5        0.0%
BITBANK1            50      0       0       6        0.0%
BITSFR5              0      0       0       6        0.0%
SFR5                 0      0       0       6        0.0%
BANK1               50     1E      4D       7       96.2%
BITSFR6              0      0       0       7        0.0%
SFR6                 0      0       0       7        0.0%
BITBANK2            50      0       0       8        0.0%
BITSFR7              0      0       0       8        0.0%
SFR7                 0      0       0       8        0.0%
BANK2               50      0       0       9        0.0%
BITSFR8              0      0       0       9        0.0%
SFR8                 0      0       0       9        0.0%
BITBANK3            50      0       0      10        0.0%
BITSFR9              0      0       0      10        0.0%
SFR9                 0      0       0      10        0.0%
BANK3               50      0       0      11        0.0%
BITSFR10             0      0       0      11        0.0%
SFR10                0      0       0      11        0.0%
BITBANK4            50      0       0      12        0.0%
BITSFR11             0      0       0      12        0.0%
SFR11                0      0       0      12        0.0%
BANK4               50      0       0      13        0.0%
BITSFR12             0      0       0      13        0.0%
SFR12                0      0       0      13        0.0%
BITBANK5            50      0       0      14        0.0%
BITSFR13             0      0       0      14        0.0%
SFR13                0      0       0      14        0.0%
BANK5               50      0       0      15        0.0%
BITSFR14             0      0       0      15        0.0%
SFR14                0      0       0      15        0.0%
BITBANK6            50      0       0      16        0.0%
BITSFR15             0      0       0      16        0.0%
SFR15                0      0       0      16        0.0%
BANK6               50      0       0      17        0.0%
BITSFR16             0      0       0      17        0.0%
SFR16                0      0       0      17        0.0%
BITBANK7            50      0       0      18        0.0%
BITSFR17             0      0       0      18        0.0%
SFR17                0      0       0      18        0.0%
BANK7               50      0       0      19        0.0%
BITSFR18             0      0       0      19        0.0%
SFR18                0      0       0      19        0.0%
BITSFR19             0      0       0      20        0.0%
SFR19                0      0       0      20        0.0%
ABS                  0      0      AB      20        0.0%
BITBANK8            50      0       0      21        0.0%
BITSFR20             0      0       0      21        0.0%
SFR20                0      0       0      21        0.0%
BANK8               50      0       0      22        0.0%
BITSFR21             0      0       0      22        0.0%
SFR21                0      0       0      22        0.0%
BITBANK9            50      0       0      23        0.0%
BITSFR22             0      0       0      23        0.0%
SFR22                0      0       0      23        0.0%
BANK9               50      0       0      24        0.0%
BITSFR23             0      0       0      24        0.0%
SFR23                0      0       0      24        0.0%
BITBANK10           50      0       0      25        0.0%
BITSFR24             0      0       0      25        0.0%
SFR24                0      0       0      25        0.0%
BANK10              50      0       0      26        0.0%
BITSFR25             0      0       0      26        0.0%
SFR25                0      0       0      26        0.0%
BITBANK11           50      0       0      27        0.0%
BITSFR26             0      0       0      27        0.0%
SFR26                0      0       0      27        0.0%
BANK11              50      0       0      28        0.0%
BITSFR27             0      0       0      28        0.0%
SFR27                0      0       0      28        0.0%
BITBANK12           30      0       0      29        0.0%
BITSFR28             0      0       0      29        0.0%
SFR28                0      0       0      29        0.0%
BANK12              30      0       0      30        0.0%
BITSFR29             0      0       0      30        0.0%
SFR29                0      0       0      30        0.0%
BITSFR30             0      0       0      31        0.0%
SFR30                0      0       0      31        0.0%
DATA                 0      0      AB      31        0.0%
BITSFR31             0      0       0      32        0.0%
SFR31                0      0       0      32        0.0%


Microchip Technology PIC Macro Assembler V2.31 build 20201012212115 
Symbol Table                                                                                   Sat Feb 27 22:39:03 2021

                                           l31 0E9C                                             l25 0F6F  
                                           l28 0EC1                                   ___awdiv@sign 0021  
                        _initialize_lcd_screen 0FB5                            ___wmul@multiplicand 0072  
                                          l114 0176                                            l211 0EA2  
                                          l300 0F59                                            l205 0EA8  
                                          l303 0F14                                            l208 0EAE  
                                          l160 006E                                            l312 01C1  
                                          l320 0340                                            l306 0013  
                                          l323 0F33                                            l260 0FFF  
                                          l245 0FE6                                            l309 0F22  
                                          l271 0EDC                                            l336 0EE6  
                                          l184 0EE8                                            l193 0EB4  
                                          l265 0ECA                                            l274 0FCD  
                                          l187 0EF0                                            l451 0038  
                                          l380 0EFB                                            l268 0ED3  
                                          l604 02CD                                            l292 0F4F  
                                          l453 004C                                            l285 0093  
                                          l366 0F06                                            l551 0675  
                                          l383 0F85                                            l295 0F56  
                                          l552 0686                                            l617 0214  
                                          l369 0F9B                                            l289 0F4C  
                                          l298 0F58                                            l564 0574  
                                          l565 0585                                            l914 0F45  
                                          l941 0231                                            l950 06D9  
                                          l944 0253                                            l945 0261  
                                          l946 026D                                            l954 06F6  
                                          l955 070E                                            l972 07F4  
                                          l949 06D0                                            l990 002D  
                                          l958 077E                                            l993 002D  
                                          l986 00EC                                            l979 049B  
                                          _PR4 0416                                            u930 0EED  
                                          u931 0EEC                                            u940 00F2  
                                          u941 00F1                                            u950 00F7  
                                          u951 00F6                                            u960 0106  
                                          u961 0105                                            u970 0123  
                                          u971 0122                                            u980 00BB  
                                          u981 00BA                                            u990 0FAE  
                                          u975 011F                                            u991 0FAD  
                                          _abs 0014                                            _pad 0215  
                                          _map 006F                 ?_EUSART_SetFramingErrorHandler 0070  
                                 ___awmod@sign 0076                                _PWM4_Initialize 0EFC  
                                          wreg 0009                         _close@temp_sensor$F433 0000  
                                         l1005 012B                                           l1013 00BB  
                                         l2001 0164                                           l2011 016F  
                                         l2003 0166                                           l1019 0FB4  
                                         ?_abs 0073                                           l2021 0EBF  
                                         l2013 0172                                           l2005 0168  
                                         l2101 0F24                                           l2015 0174  
                                         l2007 016A                                           l2031 0EE3  
                                         l2023 0E99                                           l2103 0EC2  
                                         l2111 0183                                           l2017 0EBB  
                                         l2009 016C                                           l2041 0EF1  
                                         l2033 0EFC                                           l2025 0EDD  
                                         l2105 0ECB                                           l2113 01A1  
                                         l2121 02FD                                           l2201 0390  
                                         l2051 0056                                           l2019 0EBE  
                                         l2043 0EF4                                           l2035 0EFF  
                                         l2027 0EE0                                           l2107 0ED4  
                                         l2131 032F                                           l2123 0301  
                                         l2115 02CE                                           l2203 03A3  
                                         l2053 0057                                           l2045 0EF5  
                                         l2037 0F00                                           l2029 0EE1  
                                         l2141 01CC                                           l2061 006F  
                                         l2109 0177                                           l2133 033D  
                                         l2125 030F                                           l2117 02EC  
                                         l2205 03B5                                           l2055 005E  
                                         l2047 0EF6                                           l2039 0F01  
                                         l2151 01E0                                           l2143 01CE  
                                         l2135 01C2                                           l2071 000D  
                                         l2127 031D                                           l2119 02F0  
                                         l2057 0065                                           l2049 004D  
                                         l2081 0F5A                                           l2161 01FB  
                                         l2153 01E5                                           l2145 01D2  
                                         l2137 01C3                                           l2065 0F07  
                                         l2073 0F15                                           l2129 0321  
                                         l2059 006C                                           l2163 0200  
                                         l2155 01E9                                           l2147 01D7  
                                         l2139 01C7                                           l2067 0F0F  
                                         l2075 0F1D                                           l2157 01ED  
                                         l2149 01DD                                           l2165 0206  
                                         l1701 05F6                                           l2077 0F70  
                                         l2069 0005                                           l2181 0348  
                                         l2167 020B                                           l2159 01F7  
                                         l1711 0611                                           l1703 05F9  
                                         l2095 0FCF                                           l2079 0F86  
                                         l2191 0363                                           l2183 034C  
                                         l2169 0210                                           l1721 0657  
                                         l1713 0633                                           l1705 0601  
                                         l1801 071B                                           l2097 0FE8  
                                         l2193 036C                                           l2185 0350  
                                         l2177 0341                                           l1715 0643  
                                         l1707 0605                                           l1731 04D2  
                                         l1723 049C                                           l1651 0EB0  
                                         l1811 0799                                           l1803 0749  
                                         l2099 0FB6                                           l2195 036F  
                                         l2187 0354                                           l2179 0344  
                                         l1717 0644                                           l1709 0609  
                                         l1741 050D                                           l1733 04F1  
                                         l1725 049D                                           l1661 0106  
                                         l1653 00ED                                           l1821 07C5  
                                         l1813 07A6                                           l1805 074D  
                                         l2197 0371                                           l2189 035A  
                                         l1719 0652                                           l1751 0556  
                                         l1743 0511                                           l1735 04FE  
                                         l1727 04A7                                           l1647 0EE8  
                                         l1663 0123                                           l1655 00F2  
                                         l1671 00A7                                           l1823 07CA  
                                         l1831 07E1                                           l1815 07B4  
                                         l1807 0751                                           l1911 0034  
                                         l1903 0F47                                           l2199 037F  
                                         l1745 0533                                           l1737 0501  
                                         l1729 04C8                                           l1649 0EED  
                                         l1657 00F7                                           l1673 00AC  
                                         l1681 0FAE                                           l1761 022F  
                                         l1753 0217                                           l1825 07D0  
                                         l1809 078C                                           l1817 07B9  
                                         l1841 03E1                                           l1921 026E  
                                         l1913 003D                                           l1905 0F51  
                                         l1691 05B2                                           l1747 0543  
                                         l1739 0509                                           l1659 00FC  
                                         l1667 0096                                           l1675 0F9D  
                                         l1763 0234                                           l1755 021C  
                                         l1827 07D5                                           l1819 07C0  
                                         l1851 0429                                           l1843 03E5  
                                         l1835 03C3                                           l1931 027F  
                                         l1923 0270                                           l1915 0042  
                                         l1907 002E                                           l1693 05BC  
                                         l1685 0586                                           l1749 0551  
                                         l1773 0014                                           l1669 0099  
                                         l1677 0FA2                                           l1765 0240  
                                         l1757 0225                                           l1829 07D9  
                                         l1781 06AC                                           l1861 0467  
                                         l1845 03F7                                           l1837 03D4  
                                         l1941 0293                                           l1933 0284  
                                         l1925 0274                                           l1917 0048  
                                         l1909 0030                                           l1695 05DB  
                                         l1687 0587                                           l1775 0021  
                                         l1679 0FA6                                           l1767 0245  
                                         l1759 022A                                           l1791 06FE  
                                         l1783 06B2                                           l1855 0443  
                                         l1847 0408                                           l1839 03DC  
                                         l1871 0478                                           l1951 02B3  
                                         l1943 0298                                           l1935 0288  
                                         l1927 0279                                           l1697 05DF  
                                         l1689 0591                                           l1769 0258  
                                         l1793 0704                                           l1785 06D5  
                                         l1777 0689                                           l1873 0491  
                                         l1857 0454                                           l1865 046D  
                                         l1849 0410                                           l1881 00C2  
                                         l1961 02C9                                           l1953 02B4  
                                         l1945 029C                                           l1937 028A  
                                         l1929 027B                                           l1891 0EA3  
                                         l1971 0137                                           l1699 05E9  
                                         l1795 0709                                           l1787 06E8  
                                         l1779 0699                                           l1867 0475  
                                         l1859 045C                                           l1883 00C6  
                                         l1955 02B9                                           l1947 02A0  
                                         l1939 0290                                           l1893 0EA9  
                                         l1981 0142                                           l1973 0139  
                                         l1965 012C                                           l1797 0713  
                                         l1789 06EE                                           l1885 00DA  
                                         l1949 02AF                                           l1957 02BF  
                                         ?_pad 0024                                           ?_map 0024  
                                         l1895 0E9D                                           l1991 0159  
                                         l1983 0144                                           l1975 013B  
                                         l1967 0132                                           l1799 0716  
                                         l1887 00E4                                           l1879 00BE  
                                         l1959 02C4                                           l1993 015B  
                                         l1985 0146                                           l1977 013D  
                                         l1969 0135                                           l1897 0F34  
                                         l1995 015D                                           l1987 014E  
                                         l1979 0140                                           l1899 0F39  
                                         l1997 015F                                           l1989 0156  
                                         l1999 0161                                           STR_1 1000  
                                         STR_2 102C                                           STR_3 1016  
                                         STR_4 1042                                           STR_5 0800  
                                         STR_6 106C                                           STR_7 1057  
                                         STR_8 10C4                                           STR_9 10CD  
                                         u1000 0591                                           u1001 0590  
                                         u1020 05BC                                           u1021 05BB  
                                         u1110 04A7                                           u1111 04A6  
                                         u1040 05E6                                           u1050 05F6  
                                         u1130 04D2                                           u1210 021C  
                                         u1051 05F5                                           u1131 04D1  
                                         u1211 021B                                           u1060 0609  
                                         u1220 022A                                           u1300 06D5  
                                         u1061 0608                                           u1221 0229  
                                         u1301 06D4                                           u1070 0633  
                                         u1150 04FE                                           u1230 0253  
                                         u1310 06E8                                           u1071 0632  
                                         u1151 04FD                                           u1231 0252  
                                         u1311 06E7                                           u1080 0652  
                                         u1160 0511                                           u1240 0258  
                                         u1400 07C5                                           u1320 0704  
                                         u1081 0651                                           u1161 0510  
                                         u1241 0257                                           u1401 07C4  
                                         u1321 0703                                           u1090 0657  
                                         u1170 0533                                           u1250 0021  
                                         u1410 07D0                                           u1330 0709  
                                         u1091 0656                                           u1075 062F  
                                         u1171 0532                                           u1251 0020  
                                         u1235 024F                                           u1411 07CF  
                                         u1331 0708                                           u1315 06E4  
                                         u1180 0551                                           u1340 078C  
                                         u1260 06A4                                           u1420 03D4  
                                         u1181 0550                                           u1341 078B  
                                         u1261 06A2                                           u1421 03D3  
                                         _LATA 010C                                           u1190 0556  
                                         u1350 0799                                           u1270 06A5  
                                         u1430 03F7                                           _LATB 010D  
                                         u1191 0555                                           u1175 052F  
                                         u1255 001D                                           u1351 0798  
                                         u1431 03F6                                           _LATC 010E  
                                         u1360 07A6                                           u1280 06B2  
                                         u1440 0408                                           u1520 0048  
                                         _LATD 010F                                           u1361 07A5  
                                         u1345 0788                                           u1281 06B1  
                                         u1441 0407                                           u1521 0047  
                                         u1505 0039                                           _LATE 0110  
                                         u1370 07B4                                           u1450 0454  
                                         u1610 02BF                                           u1530 0274  
                                         u1371 07B3                                           u1451 0453  
                                         u1611 02BE                                           u1531 0273  
                                         u1515 003E                                           u1380 07B9  
                                         u1460 00E4                                           u1620 02C4  
                                         u1540 027F                                           u1700 031D  
                                         u1381 07B8                                           u1365 07A2  
                                         u1461 00E3                                           u1621 02C3  
                                         u1605 02B5                                           u1541 027E  
                                         u1701 031C                                           u1390 07C0  
                                         u1550 0290                                           u1470 0F4C  
                                         u1710 032F                                           u1391 07BF  
                                         u1375 07B0                                           u1551 028F  
                                         u1471 0F4B                                           u1711 032E  
                                         u1800 0206                                           u1480 0F56  
                                         u1720 033D                                           u1801 0205  
                                         u1481 0F55                                           u1721 033C  
                                         u1705 0319                                           u1810 020B  
                                         u1730 01C7                                           u1570 02A0  
                                         u1490 0034                                           u1811 020A  
                                         u1731 01C6                                           u1635 0F7F  
                                         u1571 029F                                           u1491 0033  
                                         u1715 032B                                           u1740 01D2  
                                         u1741 01D1                                           u1645 0F95  
                                         u1565 0294                                           u1725 0339  
                                         u1750 01DD                                           u1590 02AF  
                                         u1670 02F0                                           u1751 01DC  
                                         u1591 02AE                                           u1671 02EF  
                                         u1680 02FD                                           u1585 02A1  
                                         u1681 02FC                                           u1770 01ED  
                                         u1690 030F                                           u1771 01EC  
                                         u1595 02AB                                           u1691 030E  
                                         u1827 03B9                                           u1780 01F7  
                                         u1781 01F6                                           u1765 01E1  
                                         u1685 02F9                                           u1695 030B  
                                         u1785 01F3                                           u1795 01FC  
                                         _TMR4 0415                                           _WPUA 020C  
                                         _WPUB 020D                                           _WPUC 020E  
                                         _WPUD 020F                                           _WPUE 0210  
                             ??_initialize_led 0070                                           abs@a 0073  
                                         _dbuf 00A9                                           _main 0341  
                                         _dtoa 0687                                           _read 0000  
                                         _open 0000                                           _prec 00A4  
                                         _nout 00A0                                           pad@i 0028  
                                         pad@p 0025                                           fsr0h 0005  
                                         fsr1h 0007                                           indf0 0000  
                                         fsr0l 0004                                           indf1 0001  
                                         fsr1l 0006                                           pad@w 002A  
                                         map@x 0024                                           btemp 007E  
                                         start 0002                              initialize_led@led 0070  
                                        ??_abs 0075                                          ??_pad 0027  
                                        ??_map 007B                                  ?_EUSART_Write 0070  
               __size_of_OSCILLATOR_Initialize 0007                  __end_of_OSCILLATOR_Initialize 0EC2  
                              __end_of___aodiv 0687                                          ?_main 0070  
                                        ?_dtoa 0030                                __end_of___aomod 0586  
                              __end_of___awdiv 02CE                                          STR_10 10D6  
                                        STR_11 10A5                                          STR_12 1094  
                                        STR_13 10B5                                          STR_14 081D  
                                        STR_15 1081                                __end_of___awmod 0215  
                              ___awdiv@divisor 0076                                          _T4CON 0417  
                              ___awdiv@counter 0020                                   vfpfcnvrt@fmt 004E  
                           _PWM4_LoadDutyValue 0F86                                          _TRISA 008C  
                                        _TRISB 008D                                          _TRISC 008E  
                                        _TRISD 008F                                          _TRISE 0090  
                                        _RXPPS 0E24                                _TMR4_Initialize 0EDD  
                            ??_initialize_temp 0070                                          _demo1 0EC2  
                                        _demo2 0ECB                                          _demo3 0ED4  
                                        _flags 00A6                                          _close 0000  
                               _WDT_Initialize 0E99                                          _fputc 00ED  
                                        _fputs 0094                            ?_PWM4_LoadDutyValue 0070  
                                        pad@fp 002C                                          _width 00A2  
                                        _putch 0EAF                                          dtoa@d 0030  
                                        dtoa@i 004C                                          dtoa@n 0044  
                                        dtoa@p 003D                                          dtoa@s 0042  
                                        dtoa@w 0040                        __end_of_PWM3_Initialize 0EFC  
                                        pclath 000A                                          status 0003  
                                        wtemp0 007E                                __initialization 07F5  
                                 __end_of_main 03C1                                   __end_of_dtoa 07F5  
                         ??_PWM4_LoadDutyValue 0072                         ?_initialize_lcd_screen 0070  
                               ??_EUSART_Write 0070                        __end_of_PWM4_Initialize 0F07  
                    initialize_temp@sensor_var 0070                                         ??_main 00CC  
                                       ??_dtoa 0038                         __end_of_WDT_Initialize 0E9D  
                                       ?_demo1 0070                                         ?_demo2 0070  
                                       ?_demo3 0070              _EUSART_DefaultFramingErrorHandler 0000  
                   _EUSART_OverrunErrorHandler 00E9                                         ?_fputc 0072  
                                       ?_fputs 007A                               ___awdiv@dividend 0078  
                                       _ANSELA 018C                                         ?_putch 0070  
                                       _ANSELB 018D                                         _ANSELC 018E  
                                       _ANSELD 018F                                         _ANSELE 0190  
                                       _BORCON 0116                                         _RC1REG 0199  
                                       _RB0PPS 0E98                                         _RB1PPS 0E99  
                                       _RC1STA 019D                                         _ODCONA 028C  
                                       _ODCONB 028D                                         _RC6PPS 0EA6  
                                       _ODCONC 028E                                         _ODCOND 028F  
                                       _ODCONE 0290                                         _INLVLA 038C  
                                       _INLVLB 038D                                         _INLVLC 038E  
                                       _INLVLD 038F                                         _INLVLE 0390  
                                       u101lld 05B0                                         u110lld 0675  
                                       _OSCCON 0099                                         u103lld 05DB  
                                       u120lld 0574                                         u112lld 04C6  
                                       u114lld 04F1                                         u129lld 06D0  
                                       _TX1REG 019A                                         _WDTCON 0097  
                                       _TX1STA 019E                               ??_turn_selectors 0071  
                            ?_initialize_light 0070                             ??_initialize_light 0070  
                                 vfprintf@cfmt 0064                    __size_of_PWM3_LoadDutyValue 0016  
                                    ??___aodiv 0070                                      ??___aomod 0070  
                                       ___wmul 002E                                      ??___awdiv 007A  
                                    ??___awmod 0074                        __end_of_TMR4_Initialize 0EE7  
                             ___awdiv@quotient 0022                                ___awmod@divisor 0070  
                              ___awmod@counter 0075                                         _printf 0F34  
                                       pad@buf 0024                                         dtoa@fp 003F  
                                       _strlen 0F9C                                         fputc@c 0072  
                                       fputs@c 0020                                         fputs@i 0021  
                                       fputs@s 0023                                ?_WDT_Initialize 0070  
                      __size_of_set_brightness 004B                               __end_of_vfprintf 00ED  
          initialize_lcd_screen@lcd_screen_var 0070                               ?_PWM3_Initialize 0070  
                             __end_of_turn_red 0F23                              _SYSTEM_Initialize 0F5A  
                      __end_of__initialization 07FD                             ?_SYSTEM_Initialize 0070  
                   initialize_light@sensor_var 0070                                 __pcstackCOMMON 0070  
                          ??_SYSTEM_Initialize 0072                                  __end_of_demo1 0ECB  
                                __end_of_demo2 0ED4                                  __end_of_demo3 0EDD  
                                __end_of_fputc 012C                                  __end_of_fputs 00BC  
                                __end_of_putch 0EB5                               ?_PWM4_Initialize 0070  
                  PWM4_LoadDutyValue@dutyValue 0070                                 _OPTION_REGbits 0095  
              ??_EUSART_SetOverrunErrorHandler 0072                                        ??_demo1 007E  
                                      ??_demo2 007E                                        ??_demo3 007E  
                                      ??_fputc 0075                      __end_of_SYSTEM_Initialize 0F70  
                                      ??_fputs 007B                                        ??_putch 0071  
                                   __pbssBANK1 00A0                           __end_of_EUSART_Write 0EF1  
                               main@brightness 00D9                                     __pmaintext 0341  
                               main@lcd_screen 00E1                                        ?___wmul 0070  
                              _initialize_temp 0FE7                               ?_TMR4_Initialize 0070  
                           __size_of_set_color 0073                                        ?_printf 0066  
                                      ?_strlen 0070                                        _SP1BRGH 019C  
                                      _SP1BRGL 019B                             __size_of_vfpfcnvrt 00DB  
                                      _OSCTUNE 0098                                        _PWM3DCH 0618  
                                      _PWM3DCL 0617                                        _PWM4DCH 061B  
                                      _PWM4DCL 061A                                        _PWM3CON 0619  
                                      _PWM4CON 061C                                        _SLRCONA 030C  
                                      _SLRCONB 030D                                        _SLRCONC 030E  
                                      _SLRCOND 030F                                        _SLRCONE 0310  
                     ??_EUSART_SetErrorHandler 0072                             __size_of_turn_blue 000E  
                      ??_initialize_lcd_screen 0070                                        ___aodiv 0586  
                                      ___aomod 049C                                        ___awdiv 026E  
                                      ___awmod 01C2                                __size_of___wmul 001F  
                                    ?_vfprintf 005E                                 set_color@color 00CA  
                                      __ptext1 02CE                                        __ptext2 0F15  
                                      __ptext3 0005                                        __ptext4 0F07  
                                      __ptext5 0F46                                        __ptext6 0177  
                                      __ptext7 006F                                        __ptext8 002E  
                                      __ptext9 026E                                __size_of_printf 0012  
                                    ?_turn_red 0070                                __size_of_strlen 0019  
                        _OSCILLATOR_Initialize 0EBB                                   __size_of_abs 001A  
                                 __size_of_pad 0059                                   __size_of_map 0025  
                             ___awmod@dividend 0072                                      _T4CONbits 0417  
                     ??_PIN_MANAGER_Initialize 0070                                 _set_brightness 0177  
                                      main@led 00DD                     __size_of_SYSTEM_Initialize 0016  
                                      clrloop0 0EB6                           end_of_initialization 07FD  
                      turn_selectors@selector1 0071                        turn_selectors@selector2 0070  
        __end_of_EUSART_SetOverrunErrorHandler 0EAF         __size_of_EUSART_SetOverrunErrorHandler 0006  
                _EUSART_SetOverrunErrorHandler 0EA9                                        fputc@fp 0074  
                            __end_of_set_color 0341                                        fputs@fp 007A  
                            _EUSART_Initialize 004D                        __end_of_initialize_temp 1000  
                           ?_EUSART_Initialize 0070                              __end_of_vfpfcnvrt 049C  
                      __size_of_initialize_led 0011                    __size_of_PWM4_LoadDutyValue 0016  
                                   ??_vfprintf 0061                                        strlen@a 0073  
                                      strlen@s 0074                            ??_EUSART_Initialize 0072  
                             ??_WDT_Initialize 0070                                     ??_turn_red 007E  
                    __size_of_initialize_light 0019                         __end_of_set_brightness 01C2  
                            __end_of_turn_blue 0F15                          __size_of_EUSART_Write 000A  
                             main@light_sensor 00CD                __size_of_EUSART_SetErrorHandler 0006  
                                   map@out_max 002C                                     map@out_min 002A  
                    __end_of_EUSART_Initialize 006F                     __end_of_PWM3_LoadDutyValue 0F86  
                   _EUSART_DefaultErrorHandler 0000                                    vfpfcnvrt@ap 004F  
                                  vfpfcnvrt@fp 005D                                    vfpfcnvrt@ll 0055  
                               __end_of___wmul 004D                                     _turn_green 0005  
                                 _EUSART_Write 0EE7                         ?_OSCILLATOR_Initialize 0070  
                               __end_of_printf 0F46                           set_color@temperature 006E  
                              ?_set_brightness 006E                                 __end_of_strlen 0FB5  
                          start_initialization 07F5                __size_of_PIN_MANAGER_Initialize 004B  
                                  __end_of_abs 002E                                    __end_of_pad 026E  
                                  __end_of_map 0094                                    putch@txData 0071  
               ?_EUSART_SetOverrunErrorHandler 0070                               ?_initialize_temp 0070  
                     __size_of_PWM3_Initialize 000B                                    vfprintf@fmt 005E  
                   _EUSART_FramingErrorHandler 00EB                                       ??___wmul 0074  
                       _EUSART_SetErrorHandler 0E9D                                    _CCPTMRSbits 029E  
                      __size_of_turn_selectors 0014                                       ??_printf 006A  
                                     ??_strlen 0072                                      ___latbits 0002  
                                __pcstackBANK0 0020                                  __pcstackBANK1 00C9  
                             ___aodiv@dividend 0028                       __size_of_PWM4_Initialize 000B  
                   __size_of_EUSART_Initialize 0022                                      __pnvBANK1 00E7  
                       _PIN_MANAGER_Initialize 012C                                      _dtoa$1067 003B  
                        _read@temp_sensor$F431 0000                 __size_of_initialize_lcd_screen 0019  
                __end_of_initialize_lcd_screen 0FCE                                 _initialize_led 0F23  
                                     ?___aodiv 0020                                       ?___aomod 0020  
                                     ?___awdiv 0076                               ___aodiv@quotient 0073  
                                     ?___awmod 0070                                    ?_turn_green 0070  
                            __size_of_vfprintf 0031                               _initialize_light 0FCE  
                                     _BAUD1CON 019F                              __size_of_turn_red 000E  
                     __size_of_TMR4_Initialize 000A                                 __size_of_demo1 0009  
                               __size_of_demo2 0009                                 __size_of_demo3 0009  
                               __size_of_fputc 003F                                 __size_of_fputs 0028  
                               __size_of_putch 0006                                 ___wmul@product 0074  
       EUSART_SetErrorHandler@interruptHandler 0070                                       _LATBbits 010D  
                                    clear_ram0 0EB5                              _eusartRxLastError 00A8  
                       __end_of_initialize_led 0F34                                       _PIR1bits 0011  
              ??_EUSART_SetFramingErrorHandler 0072                                       _PIR2bits 0012  
                                    _set_color 02CE              _EUSART_DefaultOverrunErrorHandler 0000  
                                    _vfpfcnvrt 03C1                                      map@in_max 0028  
                                    map@in_min 0026                              ??_PWM3_Initialize 0070  
                            ___wmul@multiplier 0070                       set_brightness@brightness 006E  
                                    _turn_blue 0F07                              ??_PWM4_Initialize 0070  
                          __size_of_turn_green 000F                                ?_initialize_led 0070  
                                   ?_set_color 006E                     __end_of_PWM4_LoadDutyValue 0F9C  
                                   vfprintf@ap 0060                                     vfprintf@fp 0063  
                      ??_OSCILLATOR_Initialize 0070                            _EUSART_ErrorHandler 00E7  
                             __size_of___aodiv 0101                                 _turn_selectors 0F46  
                             __size_of___aomod 00EA                               __size_of___awdiv 0060  
                             __size_of___awmod 0053                               ??_set_brightness 007E  
                                   ?_vfpfcnvrt 004E                                ___aodiv@divisor 0020  
                              ___aodiv@counter 0071                             _PWM3_LoadDutyValue 0F70  
                     set_brightness@duty_cycle 00C9                                       __ptext10 0F86  
                                     __ptext11 0F70                                       __ptext20 00BC  
                                     __ptext12 0FE7                                       __ptext21 03C1  
                                     __ptext13 0FCE                                       __ptext30 049C  
                                     __ptext22 0687                                       __ptext14 0F23  
                                     __ptext31 0586                                       __ptext23 0215  
                                     __ptext15 0FB5                                       __ptext40 004D  
                                     __ptext32 01C2                                       __ptext24 0F9C  
                                     __ptext16 0ED4                                       __ptext41 0EA9  
                                     __ptext33 0F5A                                       __ptext25 0094  
                                     __ptext17 0ECB                                       __ptext42 0EA3  
                                     __ptext34 0E99                                       __ptext26 00ED  
                                     __ptext18 0EC2                                       __ptext43 0E9D  
                                     __ptext35 0EDD                                       __ptext27 0EAF  
                                     __ptext19 0F34                                       __ptext36 0EFC  
                                     __ptext28 0EE7                                       __ptext37 0EF1  
                                     __ptext29 0014                                       __ptext38 012C  
                                     __ptext39 0EBB                            ?_PWM3_LoadDutyValue 0070  
                                   ?_turn_blue 0070                              ??_TMR4_Initialize 0070  
                                __size_of_main 0080                                  __size_of_dtoa 016E  
                      ?_EUSART_SetErrorHandler 0070                                     _RC1STAbits 019D  
EUSART_SetOverrunErrorHandler@interruptHandler 0070                         __end_of_turn_selectors 0F5A  
                         ??_PWM3_LoadDutyValue 0072                                       _vfprintf 00BC  
                                    printf@fmt 0066          __end_of_EUSART_SetFramingErrorHandler 0EA9  
       __size_of_EUSART_SetFramingErrorHandler 0006                  _EUSART_SetFramingErrorHandler 0EA3  
                              main@temp_sensor 00D3                               ___aomod@dividend 0028  
                                     _turn_red 0F15                                main@temperature 00DB  
                               __pstringtext10 1094                                 __pstringtext11 10A5  
                               __pstringtext12 10B5                                 __pstringtext13 10C4  
                               __pstringtext14 10CD                                 __pstringtext15 10D6  
                               __pstringtext16 0000                        __size_of_WDT_Initialize 0004  
                      ?_PIN_MANAGER_Initialize 0070                 __end_of_EUSART_SetErrorHandler 0EA3  
                     __end_of_initialize_light 0FE7                                    ??_set_color 00C9  
                              ?_turn_selectors 0070                                       printf@ap 006D  
EUSART_SetFramingErrorHandler@interruptHandler 0070                    PWM3_LoadDutyValue@dutyValue 0070  
                              ___aomod@divisor 0020                                    ??_vfpfcnvrt 0050  
                              ___aomod@counter 0071                                   ??_turn_green 007E  
                     __size_of_initialize_temp 0019                                  __pstringtext1 0800  
                                __pstringtext2 081D                                  __pstringtext3 1000  
                                __pstringtext4 1016                                  __pstringtext5 102C  
                                __pstringtext6 1042                                  __pstringtext7 1057  
                                __pstringtext8 106C                                  __pstringtext9 1081  
                                   _TX1STAbits 019E                                    ??_turn_blue 007E  
                           EUSART_Write@txData 0070                                   ___aodiv@sign 0072  
               __end_of_PIN_MANAGER_Initialize 0177                             __end_of_turn_green 0014  
                                 ___aomod@sign 0072                                _PWM3_Initialize 0EF1  
                        _open@temp_sensor$F427 0000  
