

Microchip MPLAB XC8 Assembler V2.31 build 20201012212115 
                                                                                               Mon Mar 01 22:16:26 2021

Microchip MPLAB XC8 C Compiler v2.31 (Free license) build 20201012212115 Og1 
     1                           	processor	16LF1717
     2                           	pagewidth 120
     3                           	opt	flic
     4                           	psect	idataBANK1,global,class=CODE,delta=2,noexec
     5                           	psect	nvBANK1,global,class=BANK1,space=1,delta=1,noexec
     6                           	psect	stringtext1,global,class=STRCODE,delta=2,noexec
     7                           	psect	stringtext2,global,class=STRCODE,delta=2,noexec
     8                           	psect	stringtext3,global,class=STRCODE,delta=2,noexec
     9                           	psect	stringtext4,global,class=STRCODE,delta=2,noexec
    10                           	psect	stringtext5,global,class=STRCODE,delta=2,noexec
    11                           	psect	stringtext6,global,class=STRCODE,delta=2,noexec
    12                           	psect	stringtext7,global,class=STRCODE,delta=2,noexec
    13                           	psect	stringtext8,global,class=STRCODE,delta=2,noexec
    14                           	psect	stringtext9,global,class=STRCODE,delta=2,noexec
    15                           	psect	stringtext10,global,class=STRCODE,delta=2,noexec
    16                           	psect	cinit,global,class=CODE,merge=1,delta=2
    17                           	psect	bssBANK0,global,class=BANK0,space=1,delta=1,noexec
    18                           	psect	bssBANK1,global,class=BANK1,space=1,delta=1,noexec
    19                           	psect	dataBANK1,global,class=BANK1,space=1,delta=1,noexec
    20                           	psect	inittext,global,class=CODE,delta=2
    21                           	psect	clrtext,global,class=CODE,delta=2
    22                           	psect	cstackCOMMON,global,class=COMMON,space=1,delta=1,noexec
    23                           	psect	cstackBANK0,global,class=BANK0,space=1,delta=1,noexec
    24                           	psect	maintext,global,class=CODE,merge=1,split=1,delta=2
    25                           	psect	text1,local,class=CODE,merge=1,delta=2
    26                           	psect	text2,local,class=CODE,merge=1,delta=2
    27                           	psect	text3,local,class=CODE,merge=1,delta=2
    28                           	psect	text4,local,class=CODE,merge=1,delta=2
    29                           	psect	text5,local,class=CODE,merge=1,delta=2
    30                           	psect	text6,local,class=CODE,merge=1,delta=2
    31                           	psect	text7,local,class=CODE,merge=1,delta=2
    32                           	psect	text8,local,class=CODE,merge=1,delta=2,group=2
    33                           	psect	text9,local,class=CODE,merge=1,delta=2,group=2
    34                           	psect	text10,local,class=CODE,merge=1,delta=2
    35                           	psect	text11,local,class=CODE,merge=1,delta=2
    36                           	psect	text12,local,class=CODE,merge=1,delta=2
    37                           	psect	text13,local,class=CODE,merge=1,delta=2,group=3
    38                           	psect	text14,local,class=CODE,merge=1,delta=2,group=1
    39                           	psect	text15,local,class=CODE,merge=1,delta=2,group=1
    40                           	psect	text16,local,class=CODE,merge=1,delta=2,group=1
    41                           	psect	text17,local,class=CODE,merge=1,delta=2,group=3
    42                           	psect	text18,local,class=CODE,merge=1,delta=2,group=3
    43                           	psect	text19,local,class=CODE,merge=1,delta=2
    44                           	psect	text20,local,class=CODE,merge=1,delta=2
    45                           	psect	text21,local,class=CODE,merge=1,delta=2
    46                           	psect	text22,local,class=CODE,merge=1,delta=2
    47                           	psect	text23,local,class=CODE,merge=1,delta=2
    48                           	psect	text24,local,class=CODE,merge=1,delta=2
    49                           	psect	text25,local,class=CODE,merge=1,delta=2
    50                           	psect	text26,local,class=CODE,merge=1,delta=2
    51                           	psect	text27,local,class=CODE,merge=1,delta=2
    52                           	psect	text28,local,class=CODE,merge=1,delta=2
    53                           	psect	text29,local,class=CODE,merge=1,delta=2
    54                           	psect	text30,local,class=CODE,merge=1,delta=2
    55                           	psect	text31,local,class=CODE,merge=1,delta=2
    56                           	psect	text32,local,class=CODE,merge=1,delta=2
    57                           	psect	text33,local,class=CODE,merge=1,delta=2
    58                           	psect	text34,local,class=CODE,merge=1,delta=2
    59                           	psect	text35,local,class=CODE,merge=1,delta=2
    60                           	psect	text36,local,class=CODE,merge=1,delta=2
    61                           	psect	text37,local,class=CODE,merge=1,delta=2
    62                           	psect	text38,local,class=CODE,merge=1,delta=2
    63                           	psect	text39,local,class=CODE,merge=1,delta=2
    64                           	psect	text40,local,class=CODE,merge=1,delta=2
    65                           	psect	text41,local,class=CODE,merge=1,delta=2
    66                           	psect	text42,local,class=CODE,merge=1,delta=2
    67                           	psect	text43,local,class=CODE,merge=1,delta=2
    68                           	psect	config,global,abs,ovrld,class=CONFIG,space=4,delta=2,noexec
    69                           	dabs	1,0x7E,2
    70  0000                     
    71                           ; Version 2.20
    72                           ; Generated 12/02/2020 GMT
    73                           ; 
    74                           ; Copyright © 2020, Microchip Technology Inc. and its subsidiaries ("Microchip")
    75                           ; All rights reserved.
    76                           ; 
    77                           ; This software is developed by Microchip Technology Inc. and its subsidiaries ("Microch
      +                          ip").
    78                           ; 
    79                           ; Redistribution and use in source and binary forms, with or without modification, are
    80                           ; permitted provided that the following conditions are met:
    81                           ; 
    82                           ;     1. Redistributions of source code must retain the above copyright notice, this lis
      +                          t of
    83                           ;        conditions and the following disclaimer.
    84                           ; 
    85                           ;     2. Redistributions in binary form must reproduce the above copyright notice, this 
      +                          list
    86                           ;        of conditions and the following disclaimer in the documentation and/or other
    87                           ;        materials provided with the distribution.
    88                           ; 
    89                           ;     3. Microchip's name may not be used to endorse or promote products derived from th
      +                          is
    90                           ;        software without specific prior written permission.
    91                           ; 
    92                           ; THIS SOFTWARE IS PROVIDED BY MICROCHIP "AS IS" AND ANY EXPRESS OR IMPLIED WARRANTIES,
    93                           ; INCLUDING, BUT NOT LIMITED TO, THE IMPLIED WARRANTIES OF MERCHANTABILITY AND FITNESS F
      +                          OR
    94                           ; PURPOSE ARE DISCLAIMED.  IN NO EVENT SHALL MICROCHIP BE LIABLE FOR ANY DIRECT, INDIREC
      +                          T,
    95                           ; INCIDENTAL, SPECIAL, EXEMPLARY, OR CONSEQUENTIAL DAMAGES (INCLUDING BUT NOT LIMITED TO
    96                           ; PROCUREMENT OF SUBSTITUTE GOODS OR SERVICES; LOSS OF USE, DATA OR PROFITS; OR BUSINESS
    97                           ; INTERRUPTION) HOWSOEVER CAUSED AND ON ANY THEORY OF LIABILITY, WHETHER IN CONTRACT, ST
      +                          RICT
    98                           ; LIABILITY, OR TORT (INCLUDING NEGLIGENCE OR OTHERWISE) ARISING IN ANY WAY OUT OF THE U
      +                          SE OF
    99                           ; THIS SOFTWARE, EVEN IF ADVISED OF THE POSSIBILITY OF SUCH DAMAGE.
   100                           ; 
   101                           ; 
   102                           ; Code-generator required, PIC16LF1717 Definitions
   103                           ; 
   104                           ; SFR Addresses
   105  0000                     	;# 
   106  0001                     	;# 
   107  0002                     	;# 
   108  0003                     	;# 
   109  0004                     	;# 
   110  0005                     	;# 
   111  0006                     	;# 
   112  0007                     	;# 
   113  0008                     	;# 
   114  0009                     	;# 
   115  000A                     	;# 
   116  000B                     	;# 
   117  000C                     	;# 
   118  000D                     	;# 
   119  000E                     	;# 
   120  000F                     	;# 
   121  0010                     	;# 
   122  0011                     	;# 
   123  0012                     	;# 
   124  0013                     	;# 
   125  0015                     	;# 
   126  0016                     	;# 
   127  0016                     	;# 
   128  0017                     	;# 
   129  0018                     	;# 
   130  0019                     	;# 
   131  001A                     	;# 
   132  001B                     	;# 
   133  001C                     	;# 
   134  008C                     	;# 
   135  008D                     	;# 
   136  008E                     	;# 
   137  008F                     	;# 
   138  0090                     	;# 
   139  0091                     	;# 
   140  0092                     	;# 
   141  0093                     	;# 
   142  0095                     	;# 
   143  0096                     	;# 
   144  0097                     	;# 
   145  0098                     	;# 
   146  0099                     	;# 
   147  009A                     	;# 
   148  009B                     	;# 
   149  009B                     	;# 
   150  009C                     	;# 
   151  009D                     	;# 
   152  009E                     	;# 
   153  009F                     	;# 
   154  010C                     	;# 
   155  010D                     	;# 
   156  010E                     	;# 
   157  010F                     	;# 
   158  0110                     	;# 
   159  0111                     	;# 
   160  0112                     	;# 
   161  0113                     	;# 
   162  0114                     	;# 
   163  0115                     	;# 
   164  0116                     	;# 
   165  0117                     	;# 
   166  0118                     	;# 
   167  0119                     	;# 
   168  011A                     	;# 
   169  011B                     	;# 
   170  011B                     	;# 
   171  011C                     	;# 
   172  018C                     	;# 
   173  018D                     	;# 
   174  018E                     	;# 
   175  018F                     	;# 
   176  0190                     	;# 
   177  0191                     	;# 
   178  0191                     	;# 
   179  0192                     	;# 
   180  0193                     	;# 
   181  0193                     	;# 
   182  0194                     	;# 
   183  0195                     	;# 
   184  0196                     	;# 
   185  0199                     	;# 
   186  0199                     	;# 
   187  0199                     	;# 
   188  019A                     	;# 
   189  019A                     	;# 
   190  019A                     	;# 
   191  019B                     	;# 
   192  019B                     	;# 
   193  019B                     	;# 
   194  019B                     	;# 
   195  019B                     	;# 
   196  019C                     	;# 
   197  019C                     	;# 
   198  019C                     	;# 
   199  019D                     	;# 
   200  019D                     	;# 
   201  019D                     	;# 
   202  019E                     	;# 
   203  019E                     	;# 
   204  019E                     	;# 
   205  019F                     	;# 
   206  019F                     	;# 
   207  019F                     	;# 
   208  019F                     	;# 
   209  019F                     	;# 
   210  020C                     	;# 
   211  020D                     	;# 
   212  020E                     	;# 
   213  020F                     	;# 
   214  0210                     	;# 
   215  0211                     	;# 
   216  0211                     	;# 
   217  0212                     	;# 
   218  0212                     	;# 
   219  0213                     	;# 
   220  0213                     	;# 
   221  0214                     	;# 
   222  0214                     	;# 
   223  0215                     	;# 
   224  0215                     	;# 
   225  0215                     	;# 
   226  0215                     	;# 
   227  0216                     	;# 
   228  0216                     	;# 
   229  0217                     	;# 
   230  0217                     	;# 
   231  028C                     	;# 
   232  028D                     	;# 
   233  028E                     	;# 
   234  028F                     	;# 
   235  0290                     	;# 
   236  0291                     	;# 
   237  0291                     	;# 
   238  0292                     	;# 
   239  0293                     	;# 
   240  0293                     	;# 
   241  0298                     	;# 
   242  0298                     	;# 
   243  0299                     	;# 
   244  029A                     	;# 
   245  029A                     	;# 
   246  029E                     	;# 
   247  030C                     	;# 
   248  030D                     	;# 
   249  030E                     	;# 
   250  030F                     	;# 
   251  0310                     	;# 
   252  038C                     	;# 
   253  038D                     	;# 
   254  038E                     	;# 
   255  038F                     	;# 
   256  0390                     	;# 
   257  0391                     	;# 
   258  0392                     	;# 
   259  0393                     	;# 
   260  0394                     	;# 
   261  0395                     	;# 
   262  0396                     	;# 
   263  0397                     	;# 
   264  0398                     	;# 
   265  0399                     	;# 
   266  039D                     	;# 
   267  039E                     	;# 
   268  039F                     	;# 
   269  0415                     	;# 
   270  0416                     	;# 
   271  0417                     	;# 
   272  041C                     	;# 
   273  041D                     	;# 
   274  041E                     	;# 
   275  0498                     	;# 
   276  0498                     	;# 
   277  0499                     	;# 
   278  049A                     	;# 
   279  049B                     	;# 
   280  049B                     	;# 
   281  049C                     	;# 
   282  049D                     	;# 
   283  049E                     	;# 
   284  049F                     	;# 
   285  0511                     	;# 
   286  0515                     	;# 
   287  0617                     	;# 
   288  0618                     	;# 
   289  0619                     	;# 
   290  0619                     	;# 
   291  061A                     	;# 
   292  061B                     	;# 
   293  061C                     	;# 
   294  061C                     	;# 
   295  0691                     	;# 
   296  0692                     	;# 
   297  0693                     	;# 
   298  0694                     	;# 
   299  0695                     	;# 
   300  0696                     	;# 
   301  0697                     	;# 
   302  0698                     	;# 
   303  0699                     	;# 
   304  069A                     	;# 
   305  069B                     	;# 
   306  069C                     	;# 
   307  069D                     	;# 
   308  069E                     	;# 
   309  069F                     	;# 
   310  0E0F                     	;# 
   311  0E10                     	;# 
   312  0E11                     	;# 
   313  0E12                     	;# 
   314  0E13                     	;# 
   315  0E14                     	;# 
   316  0E15                     	;# 
   317  0E17                     	;# 
   318  0E20                     	;# 
   319  0E21                     	;# 
   320  0E22                     	;# 
   321  0E24                     	;# 
   322  0E25                     	;# 
   323  0E28                     	;# 
   324  0E29                     	;# 
   325  0E2A                     	;# 
   326  0E2B                     	;# 
   327  0E90                     	;# 
   328  0E91                     	;# 
   329  0E92                     	;# 
   330  0E93                     	;# 
   331  0E94                     	;# 
   332  0E95                     	;# 
   333  0E96                     	;# 
   334  0E97                     	;# 
   335  0E98                     	;# 
   336  0E99                     	;# 
   337  0E9A                     	;# 
   338  0E9B                     	;# 
   339  0E9C                     	;# 
   340  0E9D                     	;# 
   341  0E9E                     	;# 
   342  0E9F                     	;# 
   343  0EA0                     	;# 
   344  0EA1                     	;# 
   345  0EA2                     	;# 
   346  0EA3                     	;# 
   347  0EA4                     	;# 
   348  0EA5                     	;# 
   349  0EA6                     	;# 
   350  0EA7                     	;# 
   351  0EA8                     	;# 
   352  0EA9                     	;# 
   353  0EAA                     	;# 
   354  0EAB                     	;# 
   355  0EAC                     	;# 
   356  0EAD                     	;# 
   357  0EAE                     	;# 
   358  0EAF                     	;# 
   359  0EB0                     	;# 
   360  0EB1                     	;# 
   361  0EB2                     	;# 
   362  0F0F                     	;# 
   363  0F10                     	;# 
   364  0F11                     	;# 
   365  0F12                     	;# 
   366  0F13                     	;# 
   367  0F14                     	;# 
   368  0F15                     	;# 
   369  0F16                     	;# 
   370  0F17                     	;# 
   371  0F18                     	;# 
   372  0F19                     	;# 
   373  0F1A                     	;# 
   374  0F1B                     	;# 
   375  0F1C                     	;# 
   376  0F1D                     	;# 
   377  0F1E                     	;# 
   378  0F1F                     	;# 
   379  0F20                     	;# 
   380  0F21                     	;# 
   381  0F22                     	;# 
   382  0F23                     	;# 
   383  0F24                     	;# 
   384  0F25                     	;# 
   385  0F26                     	;# 
   386  0F27                     	;# 
   387  0F28                     	;# 
   388  0F29                     	;# 
   389  0F2A                     	;# 
   390  0F2B                     	;# 
   391  0F2C                     	;# 
   392  0F2D                     	;# 
   393  0F2E                     	;# 
   394  0F2F                     	;# 
   395  0F30                     	;# 
   396  0F31                     	;# 
   397  0F32                     	;# 
   398  0F33                     	;# 
   399  0F34                     	;# 
   400  0F35                     	;# 
   401  0F36                     	;# 
   402  0F37                     	;# 
   403  0FE4                     	;# 
   404  0FE5                     	;# 
   405  0FE6                     	;# 
   406  0FE7                     	;# 
   407  0FE8                     	;# 
   408  0FE9                     	;# 
   409  0FEA                     	;# 
   410  0FEB                     	;# 
   411  0FED                     	;# 
   412  0FEE                     	;# 
   413  0FEF                     	;# 
   414  0000                     	;# 
   415  0001                     	;# 
   416  0002                     	;# 
   417  0003                     	;# 
   418  0004                     	;# 
   419  0005                     	;# 
   420  0006                     	;# 
   421  0007                     	;# 
   422  0008                     	;# 
   423  0009                     	;# 
   424  000A                     	;# 
   425  000B                     	;# 
   426  000C                     	;# 
   427  000D                     	;# 
   428  000E                     	;# 
   429  000F                     	;# 
   430  0010                     	;# 
   431  0011                     	;# 
   432  0012                     	;# 
   433  0013                     	;# 
   434  0015                     	;# 
   435  0016                     	;# 
   436  0016                     	;# 
   437  0017                     	;# 
   438  0018                     	;# 
   439  0019                     	;# 
   440  001A                     	;# 
   441  001B                     	;# 
   442  001C                     	;# 
   443  008C                     	;# 
   444  008D                     	;# 
   445  008E                     	;# 
   446  008F                     	;# 
   447  0090                     	;# 
   448  0091                     	;# 
   449  0092                     	;# 
   450  0093                     	;# 
   451  0095                     	;# 
   452  0096                     	;# 
   453  0097                     	;# 
   454  0098                     	;# 
   455  0099                     	;# 
   456  009A                     	;# 
   457  009B                     	;# 
   458  009B                     	;# 
   459  009C                     	;# 
   460  009D                     	;# 
   461  009E                     	;# 
   462  009F                     	;# 
   463  010C                     	;# 
   464  010D                     	;# 
   465  010E                     	;# 
   466  010F                     	;# 
   467  0110                     	;# 
   468  0111                     	;# 
   469  0112                     	;# 
   470  0113                     	;# 
   471  0114                     	;# 
   472  0115                     	;# 
   473  0116                     	;# 
   474  0117                     	;# 
   475  0118                     	;# 
   476  0119                     	;# 
   477  011A                     	;# 
   478  011B                     	;# 
   479  011B                     	;# 
   480  011C                     	;# 
   481  018C                     	;# 
   482  018D                     	;# 
   483  018E                     	;# 
   484  018F                     	;# 
   485  0190                     	;# 
   486  0191                     	;# 
   487  0191                     	;# 
   488  0192                     	;# 
   489  0193                     	;# 
   490  0193                     	;# 
   491  0194                     	;# 
   492  0195                     	;# 
   493  0196                     	;# 
   494  0199                     	;# 
   495  0199                     	;# 
   496  0199                     	;# 
   497  019A                     	;# 
   498  019A                     	;# 
   499  019A                     	;# 
   500  019B                     	;# 
   501  019B                     	;# 
   502  019B                     	;# 
   503  019B                     	;# 
   504  019B                     	;# 
   505  019C                     	;# 
   506  019C                     	;# 
   507  019C                     	;# 
   508  019D                     	;# 
   509  019D                     	;# 
   510  019D                     	;# 
   511  019E                     	;# 
   512  019E                     	;# 
   513  019E                     	;# 
   514  019F                     	;# 
   515  019F                     	;# 
   516  019F                     	;# 
   517  019F                     	;# 
   518  019F                     	;# 
   519  020C                     	;# 
   520  020D                     	;# 
   521  020E                     	;# 
   522  020F                     	;# 
   523  0210                     	;# 
   524  0211                     	;# 
   525  0211                     	;# 
   526  0212                     	;# 
   527  0212                     	;# 
   528  0213                     	;# 
   529  0213                     	;# 
   530  0214                     	;# 
   531  0214                     	;# 
   532  0215                     	;# 
   533  0215                     	;# 
   534  0215                     	;# 
   535  0215                     	;# 
   536  0216                     	;# 
   537  0216                     	;# 
   538  0217                     	;# 
   539  0217                     	;# 
   540  028C                     	;# 
   541  028D                     	;# 
   542  028E                     	;# 
   543  028F                     	;# 
   544  0290                     	;# 
   545  0291                     	;# 
   546  0291                     	;# 
   547  0292                     	;# 
   548  0293                     	;# 
   549  0293                     	;# 
   550  0298                     	;# 
   551  0298                     	;# 
   552  0299                     	;# 
   553  029A                     	;# 
   554  029A                     	;# 
   555  029E                     	;# 
   556  030C                     	;# 
   557  030D                     	;# 
   558  030E                     	;# 
   559  030F                     	;# 
   560  0310                     	;# 
   561  038C                     	;# 
   562  038D                     	;# 
   563  038E                     	;# 
   564  038F                     	;# 
   565  0390                     	;# 
   566  0391                     	;# 
   567  0392                     	;# 
   568  0393                     	;# 
   569  0394                     	;# 
   570  0395                     	;# 
   571  0396                     	;# 
   572  0397                     	;# 
   573  0398                     	;# 
   574  0399                     	;# 
   575  039D                     	;# 
   576  039E                     	;# 
   577  039F                     	;# 
   578  0415                     	;# 
   579  0416                     	;# 
   580  0417                     	;# 
   581  041C                     	;# 
   582  041D                     	;# 
   583  041E                     	;# 
   584  0498                     	;# 
   585  0498                     	;# 
   586  0499                     	;# 
   587  049A                     	;# 
   588  049B                     	;# 
   589  049B                     	;# 
   590  049C                     	;# 
   591  049D                     	;# 
   592  049E                     	;# 
   593  049F                     	;# 
   594  0511                     	;# 
   595  0515                     	;# 
   596  0617                     	;# 
   597  0618                     	;# 
   598  0619                     	;# 
   599  0619                     	;# 
   600  061A                     	;# 
   601  061B                     	;# 
   602  061C                     	;# 
   603  061C                     	;# 
   604  0691                     	;# 
   605  0692                     	;# 
   606  0693                     	;# 
   607  0694                     	;# 
   608  0695                     	;# 
   609  0696                     	;# 
   610  0697                     	;# 
   611  0698                     	;# 
   612  0699                     	;# 
   613  069A                     	;# 
   614  069B                     	;# 
   615  069C                     	;# 
   616  069D                     	;# 
   617  069E                     	;# 
   618  069F                     	;# 
   619  0E0F                     	;# 
   620  0E10                     	;# 
   621  0E11                     	;# 
   622  0E12                     	;# 
   623  0E13                     	;# 
   624  0E14                     	;# 
   625  0E15                     	;# 
   626  0E17                     	;# 
   627  0E20                     	;# 
   628  0E21                     	;# 
   629  0E22                     	;# 
   630  0E24                     	;# 
   631  0E25                     	;# 
   632  0E28                     	;# 
   633  0E29                     	;# 
   634  0E2A                     	;# 
   635  0E2B                     	;# 
   636  0E90                     	;# 
   637  0E91                     	;# 
   638  0E92                     	;# 
   639  0E93                     	;# 
   640  0E94                     	;# 
   641  0E95                     	;# 
   642  0E96                     	;# 
   643  0E97                     	;# 
   644  0E98                     	;# 
   645  0E99                     	;# 
   646  0E9A                     	;# 
   647  0E9B                     	;# 
   648  0E9C                     	;# 
   649  0E9D                     	;# 
   650  0E9E                     	;# 
   651  0E9F                     	;# 
   652  0EA0                     	;# 
   653  0EA1                     	;# 
   654  0EA2                     	;# 
   655  0EA3                     	;# 
   656  0EA4                     	;# 
   657  0EA5                     	;# 
   658  0EA6                     	;# 
   659  0EA7                     	;# 
   660  0EA8                     	;# 
   661  0EA9                     	;# 
   662  0EAA                     	;# 
   663  0EAB                     	;# 
   664  0EAC                     	;# 
   665  0EAD                     	;# 
   666  0EAE                     	;# 
   667  0EAF                     	;# 
   668  0EB0                     	;# 
   669  0EB1                     	;# 
   670  0EB2                     	;# 
   671  0F0F                     	;# 
   672  0F10                     	;# 
   673  0F11                     	;# 
   674  0F12                     	;# 
   675  0F13                     	;# 
   676  0F14                     	;# 
   677  0F15                     	;# 
   678  0F16                     	;# 
   679  0F17                     	;# 
   680  0F18                     	;# 
   681  0F19                     	;# 
   682  0F1A                     	;# 
   683  0F1B                     	;# 
   684  0F1C                     	;# 
   685  0F1D                     	;# 
   686  0F1E                     	;# 
   687  0F1F                     	;# 
   688  0F20                     	;# 
   689  0F21                     	;# 
   690  0F22                     	;# 
   691  0F23                     	;# 
   692  0F24                     	;# 
   693  0F25                     	;# 
   694  0F26                     	;# 
   695  0F27                     	;# 
   696  0F28                     	;# 
   697  0F29                     	;# 
   698  0F2A                     	;# 
   699  0F2B                     	;# 
   700  0F2C                     	;# 
   701  0F2D                     	;# 
   702  0F2E                     	;# 
   703  0F2F                     	;# 
   704  0F30                     	;# 
   705  0F31                     	;# 
   706  0F32                     	;# 
   707  0F33                     	;# 
   708  0F34                     	;# 
   709  0F35                     	;# 
   710  0F36                     	;# 
   711  0F37                     	;# 
   712  0FE4                     	;# 
   713  0FE5                     	;# 
   714  0FE6                     	;# 
   715  0FE7                     	;# 
   716  0FE8                     	;# 
   717  0FE9                     	;# 
   718  0FEA                     	;# 
   719  0FEB                     	;# 
   720  0FED                     	;# 
   721  0FEE                     	;# 
   722  0FEF                     	;# 
   723  0000                     	;# 
   724  0001                     	;# 
   725  0002                     	;# 
   726  0003                     	;# 
   727  0004                     	;# 
   728  0005                     	;# 
   729  0006                     	;# 
   730  0007                     	;# 
   731  0008                     	;# 
   732  0009                     	;# 
   733  000A                     	;# 
   734  000B                     	;# 
   735  000C                     	;# 
   736  000D                     	;# 
   737  000E                     	;# 
   738  000F                     	;# 
   739  0010                     	;# 
   740  0011                     	;# 
   741  0012                     	;# 
   742  0013                     	;# 
   743  0015                     	;# 
   744  0016                     	;# 
   745  0016                     	;# 
   746  0017                     	;# 
   747  0018                     	;# 
   748  0019                     	;# 
   749  001A                     	;# 
   750  001B                     	;# 
   751  001C                     	;# 
   752  008C                     	;# 
   753  008D                     	;# 
   754  008E                     	;# 
   755  008F                     	;# 
   756  0090                     	;# 
   757  0091                     	;# 
   758  0092                     	;# 
   759  0093                     	;# 
   760  0095                     	;# 
   761  0096                     	;# 
   762  0097                     	;# 
   763  0098                     	;# 
   764  0099                     	;# 
   765  009A                     	;# 
   766  009B                     	;# 
   767  009B                     	;# 
   768  009C                     	;# 
   769  009D                     	;# 
   770  009E                     	;# 
   771  009F                     	;# 
   772  010C                     	;# 
   773  010D                     	;# 
   774  010E                     	;# 
   775  010F                     	;# 
   776  0110                     	;# 
   777  0111                     	;# 
   778  0112                     	;# 
   779  0113                     	;# 
   780  0114                     	;# 
   781  0115                     	;# 
   782  0116                     	;# 
   783  0117                     	;# 
   784  0118                     	;# 
   785  0119                     	;# 
   786  011A                     	;# 
   787  011B                     	;# 
   788  011B                     	;# 
   789  011C                     	;# 
   790  018C                     	;# 
   791  018D                     	;# 
   792  018E                     	;# 
   793  018F                     	;# 
   794  0190                     	;# 
   795  0191                     	;# 
   796  0191                     	;# 
   797  0192                     	;# 
   798  0193                     	;# 
   799  0193                     	;# 
   800  0194                     	;# 
   801  0195                     	;# 
   802  0196                     	;# 
   803  0199                     	;# 
   804  0199                     	;# 
   805  0199                     	;# 
   806  019A                     	;# 
   807  019A                     	;# 
   808  019A                     	;# 
   809  019B                     	;# 
   810  019B                     	;# 
   811  019B                     	;# 
   812  019B                     	;# 
   813  019B                     	;# 
   814  019C                     	;# 
   815  019C                     	;# 
   816  019C                     	;# 
   817  019D                     	;# 
   818  019D                     	;# 
   819  019D                     	;# 
   820  019E                     	;# 
   821  019E                     	;# 
   822  019E                     	;# 
   823  019F                     	;# 
   824  019F                     	;# 
   825  019F                     	;# 
   826  019F                     	;# 
   827  019F                     	;# 
   828  020C                     	;# 
   829  020D                     	;# 
   830  020E                     	;# 
   831  020F                     	;# 
   832  0210                     	;# 
   833  0211                     	;# 
   834  0211                     	;# 
   835  0212                     	;# 
   836  0212                     	;# 
   837  0213                     	;# 
   838  0213                     	;# 
   839  0214                     	;# 
   840  0214                     	;# 
   841  0215                     	;# 
   842  0215                     	;# 
   843  0215                     	;# 
   844  0215                     	;# 
   845  0216                     	;# 
   846  0216                     	;# 
   847  0217                     	;# 
   848  0217                     	;# 
   849  028C                     	;# 
   850  028D                     	;# 
   851  028E                     	;# 
   852  028F                     	;# 
   853  0290                     	;# 
   854  0291                     	;# 
   855  0291                     	;# 
   856  0292                     	;# 
   857  0293                     	;# 
   858  0293                     	;# 
   859  0298                     	;# 
   860  0298                     	;# 
   861  0299                     	;# 
   862  029A                     	;# 
   863  029A                     	;# 
   864  029E                     	;# 
   865  030C                     	;# 
   866  030D                     	;# 
   867  030E                     	;# 
   868  030F                     	;# 
   869  0310                     	;# 
   870  038C                     	;# 
   871  038D                     	;# 
   872  038E                     	;# 
   873  038F                     	;# 
   874  0390                     	;# 
   875  0391                     	;# 
   876  0392                     	;# 
   877  0393                     	;# 
   878  0394                     	;# 
   879  0395                     	;# 
   880  0396                     	;# 
   881  0397                     	;# 
   882  0398                     	;# 
   883  0399                     	;# 
   884  039D                     	;# 
   885  039E                     	;# 
   886  039F                     	;# 
   887  0415                     	;# 
   888  0416                     	;# 
   889  0417                     	;# 
   890  041C                     	;# 
   891  041D                     	;# 
   892  041E                     	;# 
   893  0498                     	;# 
   894  0498                     	;# 
   895  0499                     	;# 
   896  049A                     	;# 
   897  049B                     	;# 
   898  049B                     	;# 
   899  049C                     	;# 
   900  049D                     	;# 
   901  049E                     	;# 
   902  049F                     	;# 
   903  0511                     	;# 
   904  0515                     	;# 
   905  0617                     	;# 
   906  0618                     	;# 
   907  0619                     	;# 
   908  0619                     	;# 
   909  061A                     	;# 
   910  061B                     	;# 
   911  061C                     	;# 
   912  061C                     	;# 
   913  0691                     	;# 
   914  0692                     	;# 
   915  0693                     	;# 
   916  0694                     	;# 
   917  0695                     	;# 
   918  0696                     	;# 
   919  0697                     	;# 
   920  0698                     	;# 
   921  0699                     	;# 
   922  069A                     	;# 
   923  069B                     	;# 
   924  069C                     	;# 
   925  069D                     	;# 
   926  069E                     	;# 
   927  069F                     	;# 
   928  0E0F                     	;# 
   929  0E10                     	;# 
   930  0E11                     	;# 
   931  0E12                     	;# 
   932  0E13                     	;# 
   933  0E14                     	;# 
   934  0E15                     	;# 
   935  0E17                     	;# 
   936  0E20                     	;# 
   937  0E21                     	;# 
   938  0E22                     	;# 
   939  0E24                     	;# 
   940  0E25                     	;# 
   941  0E28                     	;# 
   942  0E29                     	;# 
   943  0E2A                     	;# 
   944  0E2B                     	;# 
   945  0E90                     	;# 
   946  0E91                     	;# 
   947  0E92                     	;# 
   948  0E93                     	;# 
   949  0E94                     	;# 
   950  0E95                     	;# 
   951  0E96                     	;# 
   952  0E97                     	;# 
   953  0E98                     	;# 
   954  0E99                     	;# 
   955  0E9A                     	;# 
   956  0E9B                     	;# 
   957  0E9C                     	;# 
   958  0E9D                     	;# 
   959  0E9E                     	;# 
   960  0E9F                     	;# 
   961  0EA0                     	;# 
   962  0EA1                     	;# 
   963  0EA2                     	;# 
   964  0EA3                     	;# 
   965  0EA4                     	;# 
   966  0EA5                     	;# 
   967  0EA6                     	;# 
   968  0EA7                     	;# 
   969  0EA8                     	;# 
   970  0EA9                     	;# 
   971  0EAA                     	;# 
   972  0EAB                     	;# 
   973  0EAC                     	;# 
   974  0EAD                     	;# 
   975  0EAE                     	;# 
   976  0EAF                     	;# 
   977  0EB0                     	;# 
   978  0EB1                     	;# 
   979  0EB2                     	;# 
   980  0F0F                     	;# 
   981  0F10                     	;# 
   982  0F11                     	;# 
   983  0F12                     	;# 
   984  0F13                     	;# 
   985  0F14                     	;# 
   986  0F15                     	;# 
   987  0F16                     	;# 
   988  0F17                     	;# 
   989  0F18                     	;# 
   990  0F19                     	;# 
   991  0F1A                     	;# 
   992  0F1B                     	;# 
   993  0F1C                     	;# 
   994  0F1D                     	;# 
   995  0F1E                     	;# 
   996  0F1F                     	;# 
   997  0F20                     	;# 
   998  0F21                     	;# 
   999  0F22                     	;# 
  1000  0F23                     	;# 
  1001  0F24                     	;# 
  1002  0F25                     	;# 
  1003  0F26                     	;# 
  1004  0F27                     	;# 
  1005  0F28                     	;# 
  1006  0F29                     	;# 
  1007  0F2A                     	;# 
  1008  0F2B                     	;# 
  1009  0F2C                     	;# 
  1010  0F2D                     	;# 
  1011  0F2E                     	;# 
  1012  0F2F                     	;# 
  1013  0F30                     	;# 
  1014  0F31                     	;# 
  1015  0F32                     	;# 
  1016  0F33                     	;# 
  1017  0F34                     	;# 
  1018  0F35                     	;# 
  1019  0F36                     	;# 
  1020  0F37                     	;# 
  1021  0FE4                     	;# 
  1022  0FE5                     	;# 
  1023  0FE6                     	;# 
  1024  0FE7                     	;# 
  1025  0FE8                     	;# 
  1026  0FE9                     	;# 
  1027  0FEA                     	;# 
  1028  0FEB                     	;# 
  1029  0FED                     	;# 
  1030  0FEE                     	;# 
  1031  0FEF                     	;# 
  1032  0000                     	;# 
  1033  0001                     	;# 
  1034  0002                     	;# 
  1035  0003                     	;# 
  1036  0004                     	;# 
  1037  0005                     	;# 
  1038  0006                     	;# 
  1039  0007                     	;# 
  1040  0008                     	;# 
  1041  0009                     	;# 
  1042  000A                     	;# 
  1043  000B                     	;# 
  1044  000C                     	;# 
  1045  000D                     	;# 
  1046  000E                     	;# 
  1047  000F                     	;# 
  1048  0010                     	;# 
  1049  0011                     	;# 
  1050  0012                     	;# 
  1051  0013                     	;# 
  1052  0015                     	;# 
  1053  0016                     	;# 
  1054  0016                     	;# 
  1055  0017                     	;# 
  1056  0018                     	;# 
  1057  0019                     	;# 
  1058  001A                     	;# 
  1059  001B                     	;# 
  1060  001C                     	;# 
  1061  008C                     	;# 
  1062  008D                     	;# 
  1063  008E                     	;# 
  1064  008F                     	;# 
  1065  0090                     	;# 
  1066  0091                     	;# 
  1067  0092                     	;# 
  1068  0093                     	;# 
  1069  0095                     	;# 
  1070  0096                     	;# 
  1071  0097                     	;# 
  1072  0098                     	;# 
  1073  0099                     	;# 
  1074  009A                     	;# 
  1075  009B                     	;# 
  1076  009B                     	;# 
  1077  009C                     	;# 
  1078  009D                     	;# 
  1079  009E                     	;# 
  1080  009F                     	;# 
  1081  010C                     	;# 
  1082  010D                     	;# 
  1083  010E                     	;# 
  1084  010F                     	;# 
  1085  0110                     	;# 
  1086  0111                     	;# 
  1087  0112                     	;# 
  1088  0113                     	;# 
  1089  0114                     	;# 
  1090  0115                     	;# 
  1091  0116                     	;# 
  1092  0117                     	;# 
  1093  0118                     	;# 
  1094  0119                     	;# 
  1095  011A                     	;# 
  1096  011B                     	;# 
  1097  011B                     	;# 
  1098  011C                     	;# 
  1099  018C                     	;# 
  1100  018D                     	;# 
  1101  018E                     	;# 
  1102  018F                     	;# 
  1103  0190                     	;# 
  1104  0191                     	;# 
  1105  0191                     	;# 
  1106  0192                     	;# 
  1107  0193                     	;# 
  1108  0193                     	;# 
  1109  0194                     	;# 
  1110  0195                     	;# 
  1111  0196                     	;# 
  1112  0199                     	;# 
  1113  0199                     	;# 
  1114  0199                     	;# 
  1115  019A                     	;# 
  1116  019A                     	;# 
  1117  019A                     	;# 
  1118  019B                     	;# 
  1119  019B                     	;# 
  1120  019B                     	;# 
  1121  019B                     	;# 
  1122  019B                     	;# 
  1123  019C                     	;# 
  1124  019C                     	;# 
  1125  019C                     	;# 
  1126  019D                     	;# 
  1127  019D                     	;# 
  1128  019D                     	;# 
  1129  019E                     	;# 
  1130  019E                     	;# 
  1131  019E                     	;# 
  1132  019F                     	;# 
  1133  019F                     	;# 
  1134  019F                     	;# 
  1135  019F                     	;# 
  1136  019F                     	;# 
  1137  020C                     	;# 
  1138  020D                     	;# 
  1139  020E                     	;# 
  1140  020F                     	;# 
  1141  0210                     	;# 
  1142  0211                     	;# 
  1143  0211                     	;# 
  1144  0212                     	;# 
  1145  0212                     	;# 
  1146  0213                     	;# 
  1147  0213                     	;# 
  1148  0214                     	;# 
  1149  0214                     	;# 
  1150  0215                     	;# 
  1151  0215                     	;# 
  1152  0215                     	;# 
  1153  0215                     	;# 
  1154  0216                     	;# 
  1155  0216                     	;# 
  1156  0217                     	;# 
  1157  0217                     	;# 
  1158  028C                     	;# 
  1159  028D                     	;# 
  1160  028E                     	;# 
  1161  028F                     	;# 
  1162  0290                     	;# 
  1163  0291                     	;# 
  1164  0291                     	;# 
  1165  0292                     	;# 
  1166  0293                     	;# 
  1167  0293                     	;# 
  1168  0298                     	;# 
  1169  0298                     	;# 
  1170  0299                     	;# 
  1171  029A                     	;# 
  1172  029A                     	;# 
  1173  029E                     	;# 
  1174  030C                     	;# 
  1175  030D                     	;# 
  1176  030E                     	;# 
  1177  030F                     	;# 
  1178  0310                     	;# 
  1179  038C                     	;# 
  1180  038D                     	;# 
  1181  038E                     	;# 
  1182  038F                     	;# 
  1183  0390                     	;# 
  1184  0391                     	;# 
  1185  0392                     	;# 
  1186  0393                     	;# 
  1187  0394                     	;# 
  1188  0395                     	;# 
  1189  0396                     	;# 
  1190  0397                     	;# 
  1191  0398                     	;# 
  1192  0399                     	;# 
  1193  039D                     	;# 
  1194  039E                     	;# 
  1195  039F                     	;# 
  1196  0415                     	;# 
  1197  0416                     	;# 
  1198  0417                     	;# 
  1199  041C                     	;# 
  1200  041D                     	;# 
  1201  041E                     	;# 
  1202  0498                     	;# 
  1203  0498                     	;# 
  1204  0499                     	;# 
  1205  049A                     	;# 
  1206  049B                     	;# 
  1207  049B                     	;# 
  1208  049C                     	;# 
  1209  049D                     	;# 
  1210  049E                     	;# 
  1211  049F                     	;# 
  1212  0511                     	;# 
  1213  0515                     	;# 
  1214  0617                     	;# 
  1215  0618                     	;# 
  1216  0619                     	;# 
  1217  0619                     	;# 
  1218  061A                     	;# 
  1219  061B                     	;# 
  1220  061C                     	;# 
  1221  061C                     	;# 
  1222  0691                     	;# 
  1223  0692                     	;# 
  1224  0693                     	;# 
  1225  0694                     	;# 
  1226  0695                     	;# 
  1227  0696                     	;# 
  1228  0697                     	;# 
  1229  0698                     	;# 
  1230  0699                     	;# 
  1231  069A                     	;# 
  1232  069B                     	;# 
  1233  069C                     	;# 
  1234  069D                     	;# 
  1235  069E                     	;# 
  1236  069F                     	;# 
  1237  0E0F                     	;# 
  1238  0E10                     	;# 
  1239  0E11                     	;# 
  1240  0E12                     	;# 
  1241  0E13                     	;# 
  1242  0E14                     	;# 
  1243  0E15                     	;# 
  1244  0E17                     	;# 
  1245  0E20                     	;# 
  1246  0E21                     	;# 
  1247  0E22                     	;# 
  1248  0E24                     	;# 
  1249  0E25                     	;# 
  1250  0E28                     	;# 
  1251  0E29                     	;# 
  1252  0E2A                     	;# 
  1253  0E2B                     	;# 
  1254  0E90                     	;# 
  1255  0E91                     	;# 
  1256  0E92                     	;# 
  1257  0E93                     	;# 
  1258  0E94                     	;# 
  1259  0E95                     	;# 
  1260  0E96                     	;# 
  1261  0E97                     	;# 
  1262  0E98                     	;# 
  1263  0E99                     	;# 
  1264  0E9A                     	;# 
  1265  0E9B                     	;# 
  1266  0E9C                     	;# 
  1267  0E9D                     	;# 
  1268  0E9E                     	;# 
  1269  0E9F                     	;# 
  1270  0EA0                     	;# 
  1271  0EA1                     	;# 
  1272  0EA2                     	;# 
  1273  0EA3                     	;# 
  1274  0EA4                     	;# 
  1275  0EA5                     	;# 
  1276  0EA6                     	;# 
  1277  0EA7                     	;# 
  1278  0EA8                     	;# 
  1279  0EA9                     	;# 
  1280  0EAA                     	;# 
  1281  0EAB                     	;# 
  1282  0EAC                     	;# 
  1283  0EAD                     	;# 
  1284  0EAE                     	;# 
  1285  0EAF                     	;# 
  1286  0EB0                     	;# 
  1287  0EB1                     	;# 
  1288  0EB2                     	;# 
  1289  0F0F                     	;# 
  1290  0F10                     	;# 
  1291  0F11                     	;# 
  1292  0F12                     	;# 
  1293  0F13                     	;# 
  1294  0F14                     	;# 
  1295  0F15                     	;# 
  1296  0F16                     	;# 
  1297  0F17                     	;# 
  1298  0F18                     	;# 
  1299  0F19                     	;# 
  1300  0F1A                     	;# 
  1301  0F1B                     	;# 
  1302  0F1C                     	;# 
  1303  0F1D                     	;# 
  1304  0F1E                     	;# 
  1305  0F1F                     	;# 
  1306  0F20                     	;# 
  1307  0F21                     	;# 
  1308  0F22                     	;# 
  1309  0F23                     	;# 
  1310  0F24                     	;# 
  1311  0F25                     	;# 
  1312  0F26                     	;# 
  1313  0F27                     	;# 
  1314  0F28                     	;# 
  1315  0F29                     	;# 
  1316  0F2A                     	;# 
  1317  0F2B                     	;# 
  1318  0F2C                     	;# 
  1319  0F2D                     	;# 
  1320  0F2E                     	;# 
  1321  0F2F                     	;# 
  1322  0F30                     	;# 
  1323  0F31                     	;# 
  1324  0F32                     	;# 
  1325  0F33                     	;# 
  1326  0F34                     	;# 
  1327  0F35                     	;# 
  1328  0F36                     	;# 
  1329  0F37                     	;# 
  1330  0FE4                     	;# 
  1331  0FE5                     	;# 
  1332  0FE6                     	;# 
  1333  0FE7                     	;# 
  1334  0FE8                     	;# 
  1335  0FE9                     	;# 
  1336  0FEA                     	;# 
  1337  0FEB                     	;# 
  1338  0FED                     	;# 
  1339  0FEE                     	;# 
  1340  0FEF                     	;# 
  1341  0000                     	;# 
  1342  0001                     	;# 
  1343  0002                     	;# 
  1344  0003                     	;# 
  1345  0004                     	;# 
  1346  0005                     	;# 
  1347  0006                     	;# 
  1348  0007                     	;# 
  1349  0008                     	;# 
  1350  0009                     	;# 
  1351  000A                     	;# 
  1352  000B                     	;# 
  1353  000C                     	;# 
  1354  000D                     	;# 
  1355  000E                     	;# 
  1356  000F                     	;# 
  1357  0010                     	;# 
  1358  0011                     	;# 
  1359  0012                     	;# 
  1360  0013                     	;# 
  1361  0015                     	;# 
  1362  0016                     	;# 
  1363  0016                     	;# 
  1364  0017                     	;# 
  1365  0018                     	;# 
  1366  0019                     	;# 
  1367  001A                     	;# 
  1368  001B                     	;# 
  1369  001C                     	;# 
  1370  008C                     	;# 
  1371  008D                     	;# 
  1372  008E                     	;# 
  1373  008F                     	;# 
  1374  0090                     	;# 
  1375  0091                     	;# 
  1376  0092                     	;# 
  1377  0093                     	;# 
  1378  0095                     	;# 
  1379  0096                     	;# 
  1380  0097                     	;# 
  1381  0098                     	;# 
  1382  0099                     	;# 
  1383  009A                     	;# 
  1384  009B                     	;# 
  1385  009B                     	;# 
  1386  009C                     	;# 
  1387  009D                     	;# 
  1388  009E                     	;# 
  1389  009F                     	;# 
  1390  010C                     	;# 
  1391  010D                     	;# 
  1392  010E                     	;# 
  1393  010F                     	;# 
  1394  0110                     	;# 
  1395  0111                     	;# 
  1396  0112                     	;# 
  1397  0113                     	;# 
  1398  0114                     	;# 
  1399  0115                     	;# 
  1400  0116                     	;# 
  1401  0117                     	;# 
  1402  0118                     	;# 
  1403  0119                     	;# 
  1404  011A                     	;# 
  1405  011B                     	;# 
  1406  011B                     	;# 
  1407  011C                     	;# 
  1408  018C                     	;# 
  1409  018D                     	;# 
  1410  018E                     	;# 
  1411  018F                     	;# 
  1412  0190                     	;# 
  1413  0191                     	;# 
  1414  0191                     	;# 
  1415  0192                     	;# 
  1416  0193                     	;# 
  1417  0193                     	;# 
  1418  0194                     	;# 
  1419  0195                     	;# 
  1420  0196                     	;# 
  1421  0199                     	;# 
  1422  0199                     	;# 
  1423  0199                     	;# 
  1424  019A                     	;# 
  1425  019A                     	;# 
  1426  019A                     	;# 
  1427  019B                     	;# 
  1428  019B                     	;# 
  1429  019B                     	;# 
  1430  019B                     	;# 
  1431  019B                     	;# 
  1432  019C                     	;# 
  1433  019C                     	;# 
  1434  019C                     	;# 
  1435  019D                     	;# 
  1436  019D                     	;# 
  1437  019D                     	;# 
  1438  019E                     	;# 
  1439  019E                     	;# 
  1440  019E                     	;# 
  1441  019F                     	;# 
  1442  019F                     	;# 
  1443  019F                     	;# 
  1444  019F                     	;# 
  1445  019F                     	;# 
  1446  020C                     	;# 
  1447  020D                     	;# 
  1448  020E                     	;# 
  1449  020F                     	;# 
  1450  0210                     	;# 
  1451  0211                     	;# 
  1452  0211                     	;# 
  1453  0212                     	;# 
  1454  0212                     	;# 
  1455  0213                     	;# 
  1456  0213                     	;# 
  1457  0214                     	;# 
  1458  0214                     	;# 
  1459  0215                     	;# 
  1460  0215                     	;# 
  1461  0215                     	;# 
  1462  0215                     	;# 
  1463  0216                     	;# 
  1464  0216                     	;# 
  1465  0217                     	;# 
  1466  0217                     	;# 
  1467  028C                     	;# 
  1468  028D                     	;# 
  1469  028E                     	;# 
  1470  028F                     	;# 
  1471  0290                     	;# 
  1472  0291                     	;# 
  1473  0291                     	;# 
  1474  0292                     	;# 
  1475  0293                     	;# 
  1476  0293                     	;# 
  1477  0298                     	;# 
  1478  0298                     	;# 
  1479  0299                     	;# 
  1480  029A                     	;# 
  1481  029A                     	;# 
  1482  029E                     	;# 
  1483  030C                     	;# 
  1484  030D                     	;# 
  1485  030E                     	;# 
  1486  030F                     	;# 
  1487  0310                     	;# 
  1488  038C                     	;# 
  1489  038D                     	;# 
  1490  038E                     	;# 
  1491  038F                     	;# 
  1492  0390                     	;# 
  1493  0391                     	;# 
  1494  0392                     	;# 
  1495  0393                     	;# 
  1496  0394                     	;# 
  1497  0395                     	;# 
  1498  0396                     	;# 
  1499  0397                     	;# 
  1500  0398                     	;# 
  1501  0399                     	;# 
  1502  039D                     	;# 
  1503  039E                     	;# 
  1504  039F                     	;# 
  1505  0415                     	;# 
  1506  0416                     	;# 
  1507  0417                     	;# 
  1508  041C                     	;# 
  1509  041D                     	;# 
  1510  041E                     	;# 
  1511  0498                     	;# 
  1512  0498                     	;# 
  1513  0499                     	;# 
  1514  049A                     	;# 
  1515  049B                     	;# 
  1516  049B                     	;# 
  1517  049C                     	;# 
  1518  049D                     	;# 
  1519  049E                     	;# 
  1520  049F                     	;# 
  1521  0511                     	;# 
  1522  0515                     	;# 
  1523  0617                     	;# 
  1524  0618                     	;# 
  1525  0619                     	;# 
  1526  0619                     	;# 
  1527  061A                     	;# 
  1528  061B                     	;# 
  1529  061C                     	;# 
  1530  061C                     	;# 
  1531  0691                     	;# 
  1532  0692                     	;# 
  1533  0693                     	;# 
  1534  0694                     	;# 
  1535  0695                     	;# 
  1536  0696                     	;# 
  1537  0697                     	;# 
  1538  0698                     	;# 
  1539  0699                     	;# 
  1540  069A                     	;# 
  1541  069B                     	;# 
  1542  069C                     	;# 
  1543  069D                     	;# 
  1544  069E                     	;# 
  1545  069F                     	;# 
  1546  0E0F                     	;# 
  1547  0E10                     	;# 
  1548  0E11                     	;# 
  1549  0E12                     	;# 
  1550  0E13                     	;# 
  1551  0E14                     	;# 
  1552  0E15                     	;# 
  1553  0E17                     	;# 
  1554  0E20                     	;# 
  1555  0E21                     	;# 
  1556  0E22                     	;# 
  1557  0E24                     	;# 
  1558  0E25                     	;# 
  1559  0E28                     	;# 
  1560  0E29                     	;# 
  1561  0E2A                     	;# 
  1562  0E2B                     	;# 
  1563  0E90                     	;# 
  1564  0E91                     	;# 
  1565  0E92                     	;# 
  1566  0E93                     	;# 
  1567  0E94                     	;# 
  1568  0E95                     	;# 
  1569  0E96                     	;# 
  1570  0E97                     	;# 
  1571  0E98                     	;# 
  1572  0E99                     	;# 
  1573  0E9A                     	;# 
  1574  0E9B                     	;# 
  1575  0E9C                     	;# 
  1576  0E9D                     	;# 
  1577  0E9E                     	;# 
  1578  0E9F                     	;# 
  1579  0EA0                     	;# 
  1580  0EA1                     	;# 
  1581  0EA2                     	;# 
  1582  0EA3                     	;# 
  1583  0EA4                     	;# 
  1584  0EA5                     	;# 
  1585  0EA6                     	;# 
  1586  0EA7                     	;# 
  1587  0EA8                     	;# 
  1588  0EA9                     	;# 
  1589  0EAA                     	;# 
  1590  0EAB                     	;# 
  1591  0EAC                     	;# 
  1592  0EAD                     	;# 
  1593  0EAE                     	;# 
  1594  0EAF                     	;# 
  1595  0EB0                     	;# 
  1596  0EB1                     	;# 
  1597  0EB2                     	;# 
  1598  0F0F                     	;# 
  1599  0F10                     	;# 
  1600  0F11                     	;# 
  1601  0F12                     	;# 
  1602  0F13                     	;# 
  1603  0F14                     	;# 
  1604  0F15                     	;# 
  1605  0F16                     	;# 
  1606  0F17                     	;# 
  1607  0F18                     	;# 
  1608  0F19                     	;# 
  1609  0F1A                     	;# 
  1610  0F1B                     	;# 
  1611  0F1C                     	;# 
  1612  0F1D                     	;# 
  1613  0F1E                     	;# 
  1614  0F1F                     	;# 
  1615  0F20                     	;# 
  1616  0F21                     	;# 
  1617  0F22                     	;# 
  1618  0F23                     	;# 
  1619  0F24                     	;# 
  1620  0F25                     	;# 
  1621  0F26                     	;# 
  1622  0F27                     	;# 
  1623  0F28                     	;# 
  1624  0F29                     	;# 
  1625  0F2A                     	;# 
  1626  0F2B                     	;# 
  1627  0F2C                     	;# 
  1628  0F2D                     	;# 
  1629  0F2E                     	;# 
  1630  0F2F                     	;# 
  1631  0F30                     	;# 
  1632  0F31                     	;# 
  1633  0F32                     	;# 
  1634  0F33                     	;# 
  1635  0F34                     	;# 
  1636  0F35                     	;# 
  1637  0F36                     	;# 
  1638  0F37                     	;# 
  1639  0FE4                     	;# 
  1640  0FE5                     	;# 
  1641  0FE6                     	;# 
  1642  0FE7                     	;# 
  1643  0FE8                     	;# 
  1644  0FE9                     	;# 
  1645  0FEA                     	;# 
  1646  0FEB                     	;# 
  1647  0FED                     	;# 
  1648  0FEE                     	;# 
  1649  0FEF                     	;# 
  1650  0000                     	;# 
  1651  0001                     	;# 
  1652  0002                     	;# 
  1653  0003                     	;# 
  1654  0004                     	;# 
  1655  0005                     	;# 
  1656  0006                     	;# 
  1657  0007                     	;# 
  1658  0008                     	;# 
  1659  0009                     	;# 
  1660  000A                     	;# 
  1661  000B                     	;# 
  1662  000C                     	;# 
  1663  000D                     	;# 
  1664  000E                     	;# 
  1665  000F                     	;# 
  1666  0010                     	;# 
  1667  0011                     	;# 
  1668  0012                     	;# 
  1669  0013                     	;# 
  1670  0015                     	;# 
  1671  0016                     	;# 
  1672  0016                     	;# 
  1673  0017                     	;# 
  1674  0018                     	;# 
  1675  0019                     	;# 
  1676  001A                     	;# 
  1677  001B                     	;# 
  1678  001C                     	;# 
  1679  008C                     	;# 
  1680  008D                     	;# 
  1681  008E                     	;# 
  1682  008F                     	;# 
  1683  0090                     	;# 
  1684  0091                     	;# 
  1685  0092                     	;# 
  1686  0093                     	;# 
  1687  0095                     	;# 
  1688  0096                     	;# 
  1689  0097                     	;# 
  1690  0098                     	;# 
  1691  0099                     	;# 
  1692  009A                     	;# 
  1693  009B                     	;# 
  1694  009B                     	;# 
  1695  009C                     	;# 
  1696  009D                     	;# 
  1697  009E                     	;# 
  1698  009F                     	;# 
  1699  010C                     	;# 
  1700  010D                     	;# 
  1701  010E                     	;# 
  1702  010F                     	;# 
  1703  0110                     	;# 
  1704  0111                     	;# 
  1705  0112                     	;# 
  1706  0113                     	;# 
  1707  0114                     	;# 
  1708  0115                     	;# 
  1709  0116                     	;# 
  1710  0117                     	;# 
  1711  0118                     	;# 
  1712  0119                     	;# 
  1713  011A                     	;# 
  1714  011B                     	;# 
  1715  011B                     	;# 
  1716  011C                     	;# 
  1717  018C                     	;# 
  1718  018D                     	;# 
  1719  018E                     	;# 
  1720  018F                     	;# 
  1721  0190                     	;# 
  1722  0191                     	;# 
  1723  0191                     	;# 
  1724  0192                     	;# 
  1725  0193                     	;# 
  1726  0193                     	;# 
  1727  0194                     	;# 
  1728  0195                     	;# 
  1729  0196                     	;# 
  1730  0199                     	;# 
  1731  0199                     	;# 
  1732  0199                     	;# 
  1733  019A                     	;# 
  1734  019A                     	;# 
  1735  019A                     	;# 
  1736  019B                     	;# 
  1737  019B                     	;# 
  1738  019B                     	;# 
  1739  019B                     	;# 
  1740  019B                     	;# 
  1741  019C                     	;# 
  1742  019C                     	;# 
  1743  019C                     	;# 
  1744  019D                     	;# 
  1745  019D                     	;# 
  1746  019D                     	;# 
  1747  019E                     	;# 
  1748  019E                     	;# 
  1749  019E                     	;# 
  1750  019F                     	;# 
  1751  019F                     	;# 
  1752  019F                     	;# 
  1753  019F                     	;# 
  1754  019F                     	;# 
  1755  020C                     	;# 
  1756  020D                     	;# 
  1757  020E                     	;# 
  1758  020F                     	;# 
  1759  0210                     	;# 
  1760  0211                     	;# 
  1761  0211                     	;# 
  1762  0212                     	;# 
  1763  0212                     	;# 
  1764  0213                     	;# 
  1765  0213                     	;# 
  1766  0214                     	;# 
  1767  0214                     	;# 
  1768  0215                     	;# 
  1769  0215                     	;# 
  1770  0215                     	;# 
  1771  0215                     	;# 
  1772  0216                     	;# 
  1773  0216                     	;# 
  1774  0217                     	;# 
  1775  0217                     	;# 
  1776  028C                     	;# 
  1777  028D                     	;# 
  1778  028E                     	;# 
  1779  028F                     	;# 
  1780  0290                     	;# 
  1781  0291                     	;# 
  1782  0291                     	;# 
  1783  0292                     	;# 
  1784  0293                     	;# 
  1785  0293                     	;# 
  1786  0298                     	;# 
  1787  0298                     	;# 
  1788  0299                     	;# 
  1789  029A                     	;# 
  1790  029A                     	;# 
  1791  029E                     	;# 
  1792  030C                     	;# 
  1793  030D                     	;# 
  1794  030E                     	;# 
  1795  030F                     	;# 
  1796  0310                     	;# 
  1797  038C                     	;# 
  1798  038D                     	;# 
  1799  038E                     	;# 
  1800  038F                     	;# 
  1801  0390                     	;# 
  1802  0391                     	;# 
  1803  0392                     	;# 
  1804  0393                     	;# 
  1805  0394                     	;# 
  1806  0395                     	;# 
  1807  0396                     	;# 
  1808  0397                     	;# 
  1809  0398                     	;# 
  1810  0399                     	;# 
  1811  039D                     	;# 
  1812  039E                     	;# 
  1813  039F                     	;# 
  1814  0415                     	;# 
  1815  0416                     	;# 
  1816  0417                     	;# 
  1817  041C                     	;# 
  1818  041D                     	;# 
  1819  041E                     	;# 
  1820  0498                     	;# 
  1821  0498                     	;# 
  1822  0499                     	;# 
  1823  049A                     	;# 
  1824  049B                     	;# 
  1825  049B                     	;# 
  1826  049C                     	;# 
  1827  049D                     	;# 
  1828  049E                     	;# 
  1829  049F                     	;# 
  1830  0511                     	;# 
  1831  0515                     	;# 
  1832  0617                     	;# 
  1833  0618                     	;# 
  1834  0619                     	;# 
  1835  0619                     	;# 
  1836  061A                     	;# 
  1837  061B                     	;# 
  1838  061C                     	;# 
  1839  061C                     	;# 
  1840  0691                     	;# 
  1841  0692                     	;# 
  1842  0693                     	;# 
  1843  0694                     	;# 
  1844  0695                     	;# 
  1845  0696                     	;# 
  1846  0697                     	;# 
  1847  0698                     	;# 
  1848  0699                     	;# 
  1849  069A                     	;# 
  1850  069B                     	;# 
  1851  069C                     	;# 
  1852  069D                     	;# 
  1853  069E                     	;# 
  1854  069F                     	;# 
  1855  0E0F                     	;# 
  1856  0E10                     	;# 
  1857  0E11                     	;# 
  1858  0E12                     	;# 
  1859  0E13                     	;# 
  1860  0E14                     	;# 
  1861  0E15                     	;# 
  1862  0E17                     	;# 
  1863  0E20                     	;# 
  1864  0E21                     	;# 
  1865  0E22                     	;# 
  1866  0E24                     	;# 
  1867  0E25                     	;# 
  1868  0E28                     	;# 
  1869  0E29                     	;# 
  1870  0E2A                     	;# 
  1871  0E2B                     	;# 
  1872  0E90                     	;# 
  1873  0E91                     	;# 
  1874  0E92                     	;# 
  1875  0E93                     	;# 
  1876  0E94                     	;# 
  1877  0E95                     	;# 
  1878  0E96                     	;# 
  1879  0E97                     	;# 
  1880  0E98                     	;# 
  1881  0E99                     	;# 
  1882  0E9A                     	;# 
  1883  0E9B                     	;# 
  1884  0E9C                     	;# 
  1885  0E9D                     	;# 
  1886  0E9E                     	;# 
  1887  0E9F                     	;# 
  1888  0EA0                     	;# 
  1889  0EA1                     	;# 
  1890  0EA2                     	;# 
  1891  0EA3                     	;# 
  1892  0EA4                     	;# 
  1893  0EA5                     	;# 
  1894  0EA6                     	;# 
  1895  0EA7                     	;# 
  1896  0EA8                     	;# 
  1897  0EA9                     	;# 
  1898  0EAA                     	;# 
  1899  0EAB                     	;# 
  1900  0EAC                     	;# 
  1901  0EAD                     	;# 
  1902  0EAE                     	;# 
  1903  0EAF                     	;# 
  1904  0EB0                     	;# 
  1905  0EB1                     	;# 
  1906  0EB2                     	;# 
  1907  0F0F                     	;# 
  1908  0F10                     	;# 
  1909  0F11                     	;# 
  1910  0F12                     	;# 
  1911  0F13                     	;# 
  1912  0F14                     	;# 
  1913  0F15                     	;# 
  1914  0F16                     	;# 
  1915  0F17                     	;# 
  1916  0F18                     	;# 
  1917  0F19                     	;# 
  1918  0F1A                     	;# 
  1919  0F1B                     	;# 
  1920  0F1C                     	;# 
  1921  0F1D                     	;# 
  1922  0F1E                     	;# 
  1923  0F1F                     	;# 
  1924  0F20                     	;# 
  1925  0F21                     	;# 
  1926  0F22                     	;# 
  1927  0F23                     	;# 
  1928  0F24                     	;# 
  1929  0F25                     	;# 
  1930  0F26                     	;# 
  1931  0F27                     	;# 
  1932  0F28                     	;# 
  1933  0F29                     	;# 
  1934  0F2A                     	;# 
  1935  0F2B                     	;# 
  1936  0F2C                     	;# 
  1937  0F2D                     	;# 
  1938  0F2E                     	;# 
  1939  0F2F                     	;# 
  1940  0F30                     	;# 
  1941  0F31                     	;# 
  1942  0F32                     	;# 
  1943  0F33                     	;# 
  1944  0F34                     	;# 
  1945  0F35                     	;# 
  1946  0F36                     	;# 
  1947  0F37                     	;# 
  1948  0FE4                     	;# 
  1949  0FE5                     	;# 
  1950  0FE6                     	;# 
  1951  0FE7                     	;# 
  1952  0FE8                     	;# 
  1953  0FE9                     	;# 
  1954  0FEA                     	;# 
  1955  0FEB                     	;# 
  1956  0FED                     	;# 
  1957  0FEE                     	;# 
  1958  0FEF                     	;# 
  1959  0000                     	;# 
  1960  0001                     	;# 
  1961  0002                     	;# 
  1962  0003                     	;# 
  1963  0004                     	;# 
  1964  0005                     	;# 
  1965  0006                     	;# 
  1966  0007                     	;# 
  1967  0008                     	;# 
  1968  0009                     	;# 
  1969  000A                     	;# 
  1970  000B                     	;# 
  1971  000C                     	;# 
  1972  000D                     	;# 
  1973  000E                     	;# 
  1974  000F                     	;# 
  1975  0010                     	;# 
  1976  0011                     	;# 
  1977  0012                     	;# 
  1978  0013                     	;# 
  1979  0015                     	;# 
  1980  0016                     	;# 
  1981  0016                     	;# 
  1982  0017                     	;# 
  1983  0018                     	;# 
  1984  0019                     	;# 
  1985  001A                     	;# 
  1986  001B                     	;# 
  1987  001C                     	;# 
  1988  008C                     	;# 
  1989  008D                     	;# 
  1990  008E                     	;# 
  1991  008F                     	;# 
  1992  0090                     	;# 
  1993  0091                     	;# 
  1994  0092                     	;# 
  1995  0093                     	;# 
  1996  0095                     	;# 
  1997  0096                     	;# 
  1998  0097                     	;# 
  1999  0098                     	;# 
  2000  0099                     	;# 
  2001  009A                     	;# 
  2002  009B                     	;# 
  2003  009B                     	;# 
  2004  009C                     	;# 
  2005  009D                     	;# 
  2006  009E                     	;# 
  2007  009F                     	;# 
  2008  010C                     	;# 
  2009  010D                     	;# 
  2010  010E                     	;# 
  2011  010F                     	;# 
  2012  0110                     	;# 
  2013  0111                     	;# 
  2014  0112                     	;# 
  2015  0113                     	;# 
  2016  0114                     	;# 
  2017  0115                     	;# 
  2018  0116                     	;# 
  2019  0117                     	;# 
  2020  0118                     	;# 
  2021  0119                     	;# 
  2022  011A                     	;# 
  2023  011B                     	;# 
  2024  011B                     	;# 
  2025  011C                     	;# 
  2026  018C                     	;# 
  2027  018D                     	;# 
  2028  018E                     	;# 
  2029  018F                     	;# 
  2030  0190                     	;# 
  2031  0191                     	;# 
  2032  0191                     	;# 
  2033  0192                     	;# 
  2034  0193                     	;# 
  2035  0193                     	;# 
  2036  0194                     	;# 
  2037  0195                     	;# 
  2038  0196                     	;# 
  2039  0199                     	;# 
  2040  0199                     	;# 
  2041  0199                     	;# 
  2042  019A                     	;# 
  2043  019A                     	;# 
  2044  019A                     	;# 
  2045  019B                     	;# 
  2046  019B                     	;# 
  2047  019B                     	;# 
  2048  019B                     	;# 
  2049  019B                     	;# 
  2050  019C                     	;# 
  2051  019C                     	;# 
  2052  019C                     	;# 
  2053  019D                     	;# 
  2054  019D                     	;# 
  2055  019D                     	;# 
  2056  019E                     	;# 
  2057  019E                     	;# 
  2058  019E                     	;# 
  2059  019F                     	;# 
  2060  019F                     	;# 
  2061  019F                     	;# 
  2062  019F                     	;# 
  2063  019F                     	;# 
  2064  020C                     	;# 
  2065  020D                     	;# 
  2066  020E                     	;# 
  2067  020F                     	;# 
  2068  0210                     	;# 
  2069  0211                     	;# 
  2070  0211                     	;# 
  2071  0212                     	;# 
  2072  0212                     	;# 
  2073  0213                     	;# 
  2074  0213                     	;# 
  2075  0214                     	;# 
  2076  0214                     	;# 
  2077  0215                     	;# 
  2078  0215                     	;# 
  2079  0215                     	;# 
  2080  0215                     	;# 
  2081  0216                     	;# 
  2082  0216                     	;# 
  2083  0217                     	;# 
  2084  0217                     	;# 
  2085  028C                     	;# 
  2086  028D                     	;# 
  2087  028E                     	;# 
  2088  028F                     	;# 
  2089  0290                     	;# 
  2090  0291                     	;# 
  2091  0291                     	;# 
  2092  0292                     	;# 
  2093  0293                     	;# 
  2094  0293                     	;# 
  2095  0298                     	;# 
  2096  0298                     	;# 
  2097  0299                     	;# 
  2098  029A                     	;# 
  2099  029A                     	;# 
  2100  029E                     	;# 
  2101  030C                     	;# 
  2102  030D                     	;# 
  2103  030E                     	;# 
  2104  030F                     	;# 
  2105  0310                     	;# 
  2106  038C                     	;# 
  2107  038D                     	;# 
  2108  038E                     	;# 
  2109  038F                     	;# 
  2110  0390                     	;# 
  2111  0391                     	;# 
  2112  0392                     	;# 
  2113  0393                     	;# 
  2114  0394                     	;# 
  2115  0395                     	;# 
  2116  0396                     	;# 
  2117  0397                     	;# 
  2118  0398                     	;# 
  2119  0399                     	;# 
  2120  039D                     	;# 
  2121  039E                     	;# 
  2122  039F                     	;# 
  2123  0415                     	;# 
  2124  0416                     	;# 
  2125  0417                     	;# 
  2126  041C                     	;# 
  2127  041D                     	;# 
  2128  041E                     	;# 
  2129  0498                     	;# 
  2130  0498                     	;# 
  2131  0499                     	;# 
  2132  049A                     	;# 
  2133  049B                     	;# 
  2134  049B                     	;# 
  2135  049C                     	;# 
  2136  049D                     	;# 
  2137  049E                     	;# 
  2138  049F                     	;# 
  2139  0511                     	;# 
  2140  0515                     	;# 
  2141  0617                     	;# 
  2142  0618                     	;# 
  2143  0619                     	;# 
  2144  0619                     	;# 
  2145  061A                     	;# 
  2146  061B                     	;# 
  2147  061C                     	;# 
  2148  061C                     	;# 
  2149  0691                     	;# 
  2150  0692                     	;# 
  2151  0693                     	;# 
  2152  0694                     	;# 
  2153  0695                     	;# 
  2154  0696                     	;# 
  2155  0697                     	;# 
  2156  0698                     	;# 
  2157  0699                     	;# 
  2158  069A                     	;# 
  2159  069B                     	;# 
  2160  069C                     	;# 
  2161  069D                     	;# 
  2162  069E                     	;# 
  2163  069F                     	;# 
  2164  0E0F                     	;# 
  2165  0E10                     	;# 
  2166  0E11                     	;# 
  2167  0E12                     	;# 
  2168  0E13                     	;# 
  2169  0E14                     	;# 
  2170  0E15                     	;# 
  2171  0E17                     	;# 
  2172  0E20                     	;# 
  2173  0E21                     	;# 
  2174  0E22                     	;# 
  2175  0E24                     	;# 
  2176  0E25                     	;# 
  2177  0E28                     	;# 
  2178  0E29                     	;# 
  2179  0E2A                     	;# 
  2180  0E2B                     	;# 
  2181  0E90                     	;# 
  2182  0E91                     	;# 
  2183  0E92                     	;# 
  2184  0E93                     	;# 
  2185  0E94                     	;# 
  2186  0E95                     	;# 
  2187  0E96                     	;# 
  2188  0E97                     	;# 
  2189  0E98                     	;# 
  2190  0E99                     	;# 
  2191  0E9A                     	;# 
  2192  0E9B                     	;# 
  2193  0E9C                     	;# 
  2194  0E9D                     	;# 
  2195  0E9E                     	;# 
  2196  0E9F                     	;# 
  2197  0EA0                     	;# 
  2198  0EA1                     	;# 
  2199  0EA2                     	;# 
  2200  0EA3                     	;# 
  2201  0EA4                     	;# 
  2202  0EA5                     	;# 
  2203  0EA6                     	;# 
  2204  0EA7                     	;# 
  2205  0EA8                     	;# 
  2206  0EA9                     	;# 
  2207  0EAA                     	;# 
  2208  0EAB                     	;# 
  2209  0EAC                     	;# 
  2210  0EAD                     	;# 
  2211  0EAE                     	;# 
  2212  0EAF                     	;# 
  2213  0EB0                     	;# 
  2214  0EB1                     	;# 
  2215  0EB2                     	;# 
  2216  0F0F                     	;# 
  2217  0F10                     	;# 
  2218  0F11                     	;# 
  2219  0F12                     	;# 
  2220  0F13                     	;# 
  2221  0F14                     	;# 
  2222  0F15                     	;# 
  2223  0F16                     	;# 
  2224  0F17                     	;# 
  2225  0F18                     	;# 
  2226  0F19                     	;# 
  2227  0F1A                     	;# 
  2228  0F1B                     	;# 
  2229  0F1C                     	;# 
  2230  0F1D                     	;# 
  2231  0F1E                     	;# 
  2232  0F1F                     	;# 
  2233  0F20                     	;# 
  2234  0F21                     	;# 
  2235  0F22                     	;# 
  2236  0F23                     	;# 
  2237  0F24                     	;# 
  2238  0F25                     	;# 
  2239  0F26                     	;# 
  2240  0F27                     	;# 
  2241  0F28                     	;# 
  2242  0F29                     	;# 
  2243  0F2A                     	;# 
  2244  0F2B                     	;# 
  2245  0F2C                     	;# 
  2246  0F2D                     	;# 
  2247  0F2E                     	;# 
  2248  0F2F                     	;# 
  2249  0F30                     	;# 
  2250  0F31                     	;# 
  2251  0F32                     	;# 
  2252  0F33                     	;# 
  2253  0F34                     	;# 
  2254  0F35                     	;# 
  2255  0F36                     	;# 
  2256  0F37                     	;# 
  2257  0FE4                     	;# 
  2258  0FE5                     	;# 
  2259  0FE6                     	;# 
  2260  0FE7                     	;# 
  2261  0FE8                     	;# 
  2262  0FE9                     	;# 
  2263  0FEA                     	;# 
  2264  0FEB                     	;# 
  2265  0FED                     	;# 
  2266  0FEE                     	;# 
  2267  0FEF                     	;# 
  2268  0000                     	;# 
  2269  0001                     	;# 
  2270  0002                     	;# 
  2271  0003                     	;# 
  2272  0004                     	;# 
  2273  0005                     	;# 
  2274  0006                     	;# 
  2275  0007                     	;# 
  2276  0008                     	;# 
  2277  0009                     	;# 
  2278  000A                     	;# 
  2279  000B                     	;# 
  2280  000C                     	;# 
  2281  000D                     	;# 
  2282  000E                     	;# 
  2283  000F                     	;# 
  2284  0010                     	;# 
  2285  0011                     	;# 
  2286  0012                     	;# 
  2287  0013                     	;# 
  2288  0015                     	;# 
  2289  0016                     	;# 
  2290  0016                     	;# 
  2291  0017                     	;# 
  2292  0018                     	;# 
  2293  0019                     	;# 
  2294  001A                     	;# 
  2295  001B                     	;# 
  2296  001C                     	;# 
  2297  008C                     	;# 
  2298  008D                     	;# 
  2299  008E                     	;# 
  2300  008F                     	;# 
  2301  0090                     	;# 
  2302  0091                     	;# 
  2303  0092                     	;# 
  2304  0093                     	;# 
  2305  0095                     	;# 
  2306  0096                     	;# 
  2307  0097                     	;# 
  2308  0098                     	;# 
  2309  0099                     	;# 
  2310  009A                     	;# 
  2311  009B                     	;# 
  2312  009B                     	;# 
  2313  009C                     	;# 
  2314  009D                     	;# 
  2315  009E                     	;# 
  2316  009F                     	;# 
  2317  010C                     	;# 
  2318  010D                     	;# 
  2319  010E                     	;# 
  2320  010F                     	;# 
  2321  0110                     	;# 
  2322  0111                     	;# 
  2323  0112                     	;# 
  2324  0113                     	;# 
  2325  0114                     	;# 
  2326  0115                     	;# 
  2327  0116                     	;# 
  2328  0117                     	;# 
  2329  0118                     	;# 
  2330  0119                     	;# 
  2331  011A                     	;# 
  2332  011B                     	;# 
  2333  011B                     	;# 
  2334  011C                     	;# 
  2335  018C                     	;# 
  2336  018D                     	;# 
  2337  018E                     	;# 
  2338  018F                     	;# 
  2339  0190                     	;# 
  2340  0191                     	;# 
  2341  0191                     	;# 
  2342  0192                     	;# 
  2343  0193                     	;# 
  2344  0193                     	;# 
  2345  0194                     	;# 
  2346  0195                     	;# 
  2347  0196                     	;# 
  2348  0199                     	;# 
  2349  0199                     	;# 
  2350  0199                     	;# 
  2351  019A                     	;# 
  2352  019A                     	;# 
  2353  019A                     	;# 
  2354  019B                     	;# 
  2355  019B                     	;# 
  2356  019B                     	;# 
  2357  019B                     	;# 
  2358  019B                     	;# 
  2359  019C                     	;# 
  2360  019C                     	;# 
  2361  019C                     	;# 
  2362  019D                     	;# 
  2363  019D                     	;# 
  2364  019D                     	;# 
  2365  019E                     	;# 
  2366  019E                     	;# 
  2367  019E                     	;# 
  2368  019F                     	;# 
  2369  019F                     	;# 
  2370  019F                     	;# 
  2371  019F                     	;# 
  2372  019F                     	;# 
  2373  020C                     	;# 
  2374  020D                     	;# 
  2375  020E                     	;# 
  2376  020F                     	;# 
  2377  0210                     	;# 
  2378  0211                     	;# 
  2379  0211                     	;# 
  2380  0212                     	;# 
  2381  0212                     	;# 
  2382  0213                     	;# 
  2383  0213                     	;# 
  2384  0214                     	;# 
  2385  0214                     	;# 
  2386  0215                     	;# 
  2387  0215                     	;# 
  2388  0215                     	;# 
  2389  0215                     	;# 
  2390  0216                     	;# 
  2391  0216                     	;# 
  2392  0217                     	;# 
  2393  0217                     	;# 
  2394  028C                     	;# 
  2395  028D                     	;# 
  2396  028E                     	;# 
  2397  028F                     	;# 
  2398  0290                     	;# 
  2399  0291                     	;# 
  2400  0291                     	;# 
  2401  0292                     	;# 
  2402  0293                     	;# 
  2403  0293                     	;# 
  2404  0298                     	;# 
  2405  0298                     	;# 
  2406  0299                     	;# 
  2407  029A                     	;# 
  2408  029A                     	;# 
  2409  029E                     	;# 
  2410  030C                     	;# 
  2411  030D                     	;# 
  2412  030E                     	;# 
  2413  030F                     	;# 
  2414  0310                     	;# 
  2415  038C                     	;# 
  2416  038D                     	;# 
  2417  038E                     	;# 
  2418  038F                     	;# 
  2419  0390                     	;# 
  2420  0391                     	;# 
  2421  0392                     	;# 
  2422  0393                     	;# 
  2423  0394                     	;# 
  2424  0395                     	;# 
  2425  0396                     	;# 
  2426  0397                     	;# 
  2427  0398                     	;# 
  2428  0399                     	;# 
  2429  039D                     	;# 
  2430  039E                     	;# 
  2431  039F                     	;# 
  2432  0415                     	;# 
  2433  0416                     	;# 
  2434  0417                     	;# 
  2435  041C                     	;# 
  2436  041D                     	;# 
  2437  041E                     	;# 
  2438  0498                     	;# 
  2439  0498                     	;# 
  2440  0499                     	;# 
  2441  049A                     	;# 
  2442  049B                     	;# 
  2443  049B                     	;# 
  2444  049C                     	;# 
  2445  049D                     	;# 
  2446  049E                     	;# 
  2447  049F                     	;# 
  2448  0511                     	;# 
  2449  0515                     	;# 
  2450  0617                     	;# 
  2451  0618                     	;# 
  2452  0619                     	;# 
  2453  0619                     	;# 
  2454  061A                     	;# 
  2455  061B                     	;# 
  2456  061C                     	;# 
  2457  061C                     	;# 
  2458  0691                     	;# 
  2459  0692                     	;# 
  2460  0693                     	;# 
  2461  0694                     	;# 
  2462  0695                     	;# 
  2463  0696                     	;# 
  2464  0697                     	;# 
  2465  0698                     	;# 
  2466  0699                     	;# 
  2467  069A                     	;# 
  2468  069B                     	;# 
  2469  069C                     	;# 
  2470  069D                     	;# 
  2471  069E                     	;# 
  2472  069F                     	;# 
  2473  0E0F                     	;# 
  2474  0E10                     	;# 
  2475  0E11                     	;# 
  2476  0E12                     	;# 
  2477  0E13                     	;# 
  2478  0E14                     	;# 
  2479  0E15                     	;# 
  2480  0E17                     	;# 
  2481  0E20                     	;# 
  2482  0E21                     	;# 
  2483  0E22                     	;# 
  2484  0E24                     	;# 
  2485  0E25                     	;# 
  2486  0E28                     	;# 
  2487  0E29                     	;# 
  2488  0E2A                     	;# 
  2489  0E2B                     	;# 
  2490  0E90                     	;# 
  2491  0E91                     	;# 
  2492  0E92                     	;# 
  2493  0E93                     	;# 
  2494  0E94                     	;# 
  2495  0E95                     	;# 
  2496  0E96                     	;# 
  2497  0E97                     	;# 
  2498  0E98                     	;# 
  2499  0E99                     	;# 
  2500  0E9A                     	;# 
  2501  0E9B                     	;# 
  2502  0E9C                     	;# 
  2503  0E9D                     	;# 
  2504  0E9E                     	;# 
  2505  0E9F                     	;# 
  2506  0EA0                     	;# 
  2507  0EA1                     	;# 
  2508  0EA2                     	;# 
  2509  0EA3                     	;# 
  2510  0EA4                     	;# 
  2511  0EA5                     	;# 
  2512  0EA6                     	;# 
  2513  0EA7                     	;# 
  2514  0EA8                     	;# 
  2515  0EA9                     	;# 
  2516  0EAA                     	;# 
  2517  0EAB                     	;# 
  2518  0EAC                     	;# 
  2519  0EAD                     	;# 
  2520  0EAE                     	;# 
  2521  0EAF                     	;# 
  2522  0EB0                     	;# 
  2523  0EB1                     	;# 
  2524  0EB2                     	;# 
  2525  0F0F                     	;# 
  2526  0F10                     	;# 
  2527  0F11                     	;# 
  2528  0F12                     	;# 
  2529  0F13                     	;# 
  2530  0F14                     	;# 
  2531  0F15                     	;# 
  2532  0F16                     	;# 
  2533  0F17                     	;# 
  2534  0F18                     	;# 
  2535  0F19                     	;# 
  2536  0F1A                     	;# 
  2537  0F1B                     	;# 
  2538  0F1C                     	;# 
  2539  0F1D                     	;# 
  2540  0F1E                     	;# 
  2541  0F1F                     	;# 
  2542  0F20                     	;# 
  2543  0F21                     	;# 
  2544  0F22                     	;# 
  2545  0F23                     	;# 
  2546  0F24                     	;# 
  2547  0F25                     	;# 
  2548  0F26                     	;# 
  2549  0F27                     	;# 
  2550  0F28                     	;# 
  2551  0F29                     	;# 
  2552  0F2A                     	;# 
  2553  0F2B                     	;# 
  2554  0F2C                     	;# 
  2555  0F2D                     	;# 
  2556  0F2E                     	;# 
  2557  0F2F                     	;# 
  2558  0F30                     	;# 
  2559  0F31                     	;# 
  2560  0F32                     	;# 
  2561  0F33                     	;# 
  2562  0F34                     	;# 
  2563  0F35                     	;# 
  2564  0F36                     	;# 
  2565  0F37                     	;# 
  2566  0FE4                     	;# 
  2567  0FE5                     	;# 
  2568  0FE6                     	;# 
  2569  0FE7                     	;# 
  2570  0FE8                     	;# 
  2571  0FE9                     	;# 
  2572  0FEA                     	;# 
  2573  0FEB                     	;# 
  2574  0FED                     	;# 
  2575  0FEE                     	;# 
  2576  0FEF                     	;# 
  2577  0000                     	;# 
  2578  0001                     	;# 
  2579  0002                     	;# 
  2580  0003                     	;# 
  2581  0004                     	;# 
  2582  0005                     	;# 
  2583  0006                     	;# 
  2584  0007                     	;# 
  2585  0008                     	;# 
  2586  0009                     	;# 
  2587  000A                     	;# 
  2588  000B                     	;# 
  2589  000C                     	;# 
  2590  000D                     	;# 
  2591  000E                     	;# 
  2592  000F                     	;# 
  2593  0010                     	;# 
  2594  0011                     	;# 
  2595  0012                     	;# 
  2596  0013                     	;# 
  2597  0015                     	;# 
  2598  0016                     	;# 
  2599  0016                     	;# 
  2600  0017                     	;# 
  2601  0018                     	;# 
  2602  0019                     	;# 
  2603  001A                     	;# 
  2604  001B                     	;# 
  2605  001C                     	;# 
  2606  008C                     	;# 
  2607  008D                     	;# 
  2608  008E                     	;# 
  2609  008F                     	;# 
  2610  0090                     	;# 
  2611  0091                     	;# 
  2612  0092                     	;# 
  2613  0093                     	;# 
  2614  0095                     	;# 
  2615  0096                     	;# 
  2616  0097                     	;# 
  2617  0098                     	;# 
  2618  0099                     	;# 
  2619  009A                     	;# 
  2620  009B                     	;# 
  2621  009B                     	;# 
  2622  009C                     	;# 
  2623  009D                     	;# 
  2624  009E                     	;# 
  2625  009F                     	;# 
  2626  010C                     	;# 
  2627  010D                     	;# 
  2628  010E                     	;# 
  2629  010F                     	;# 
  2630  0110                     	;# 
  2631  0111                     	;# 
  2632  0112                     	;# 
  2633  0113                     	;# 
  2634  0114                     	;# 
  2635  0115                     	;# 
  2636  0116                     	;# 
  2637  0117                     	;# 
  2638  0118                     	;# 
  2639  0119                     	;# 
  2640  011A                     	;# 
  2641  011B                     	;# 
  2642  011B                     	;# 
  2643  011C                     	;# 
  2644  018C                     	;# 
  2645  018D                     	;# 
  2646  018E                     	;# 
  2647  018F                     	;# 
  2648  0190                     	;# 
  2649  0191                     	;# 
  2650  0191                     	;# 
  2651  0192                     	;# 
  2652  0193                     	;# 
  2653  0193                     	;# 
  2654  0194                     	;# 
  2655  0195                     	;# 
  2656  0196                     	;# 
  2657  0199                     	;# 
  2658  0199                     	;# 
  2659  0199                     	;# 
  2660  019A                     	;# 
  2661  019A                     	;# 
  2662  019A                     	;# 
  2663  019B                     	;# 
  2664  019B                     	;# 
  2665  019B                     	;# 
  2666  019B                     	;# 
  2667  019B                     	;# 
  2668  019C                     	;# 
  2669  019C                     	;# 
  2670  019C                     	;# 
  2671  019D                     	;# 
  2672  019D                     	;# 
  2673  019D                     	;# 
  2674  019E                     	;# 
  2675  019E                     	;# 
  2676  019E                     	;# 
  2677  019F                     	;# 
  2678  019F                     	;# 
  2679  019F                     	;# 
  2680  019F                     	;# 
  2681  019F                     	;# 
  2682  020C                     	;# 
  2683  020D                     	;# 
  2684  020E                     	;# 
  2685  020F                     	;# 
  2686  0210                     	;# 
  2687  0211                     	;# 
  2688  0211                     	;# 
  2689  0212                     	;# 
  2690  0212                     	;# 
  2691  0213                     	;# 
  2692  0213                     	;# 
  2693  0214                     	;# 
  2694  0214                     	;# 
  2695  0215                     	;# 
  2696  0215                     	;# 
  2697  0215                     	;# 
  2698  0215                     	;# 
  2699  0216                     	;# 
  2700  0216                     	;# 
  2701  0217                     	;# 
  2702  0217                     	;# 
  2703  028C                     	;# 
  2704  028D                     	;# 
  2705  028E                     	;# 
  2706  028F                     	;# 
  2707  0290                     	;# 
  2708  0291                     	;# 
  2709  0291                     	;# 
  2710  0292                     	;# 
  2711  0293                     	;# 
  2712  0293                     	;# 
  2713  0298                     	;# 
  2714  0298                     	;# 
  2715  0299                     	;# 
  2716  029A                     	;# 
  2717  029A                     	;# 
  2718  029E                     	;# 
  2719  030C                     	;# 
  2720  030D                     	;# 
  2721  030E                     	;# 
  2722  030F                     	;# 
  2723  0310                     	;# 
  2724  038C                     	;# 
  2725  038D                     	;# 
  2726  038E                     	;# 
  2727  038F                     	;# 
  2728  0390                     	;# 
  2729  0391                     	;# 
  2730  0392                     	;# 
  2731  0393                     	;# 
  2732  0394                     	;# 
  2733  0395                     	;# 
  2734  0396                     	;# 
  2735  0397                     	;# 
  2736  0398                     	;# 
  2737  0399                     	;# 
  2738  039D                     	;# 
  2739  039E                     	;# 
  2740  039F                     	;# 
  2741  0415                     	;# 
  2742  0416                     	;# 
  2743  0417                     	;# 
  2744  041C                     	;# 
  2745  041D                     	;# 
  2746  041E                     	;# 
  2747  0498                     	;# 
  2748  0498                     	;# 
  2749  0499                     	;# 
  2750  049A                     	;# 
  2751  049B                     	;# 
  2752  049B                     	;# 
  2753  049C                     	;# 
  2754  049D                     	;# 
  2755  049E                     	;# 
  2756  049F                     	;# 
  2757  0511                     	;# 
  2758  0515                     	;# 
  2759  0617                     	;# 
  2760  0618                     	;# 
  2761  0619                     	;# 
  2762  0619                     	;# 
  2763  061A                     	;# 
  2764  061B                     	;# 
  2765  061C                     	;# 
  2766  061C                     	;# 
  2767  0691                     	;# 
  2768  0692                     	;# 
  2769  0693                     	;# 
  2770  0694                     	;# 
  2771  0695                     	;# 
  2772  0696                     	;# 
  2773  0697                     	;# 
  2774  0698                     	;# 
  2775  0699                     	;# 
  2776  069A                     	;# 
  2777  069B                     	;# 
  2778  069C                     	;# 
  2779  069D                     	;# 
  2780  069E                     	;# 
  2781  069F                     	;# 
  2782  0E0F                     	;# 
  2783  0E10                     	;# 
  2784  0E11                     	;# 
  2785  0E12                     	;# 
  2786  0E13                     	;# 
  2787  0E14                     	;# 
  2788  0E15                     	;# 
  2789  0E17                     	;# 
  2790  0E20                     	;# 
  2791  0E21                     	;# 
  2792  0E22                     	;# 
  2793  0E24                     	;# 
  2794  0E25                     	;# 
  2795  0E28                     	;# 
  2796  0E29                     	;# 
  2797  0E2A                     	;# 
  2798  0E2B                     	;# 
  2799  0E90                     	;# 
  2800  0E91                     	;# 
  2801  0E92                     	;# 
  2802  0E93                     	;# 
  2803  0E94                     	;# 
  2804  0E95                     	;# 
  2805  0E96                     	;# 
  2806  0E97                     	;# 
  2807  0E98                     	;# 
  2808  0E99                     	;# 
  2809  0E9A                     	;# 
  2810  0E9B                     	;# 
  2811  0E9C                     	;# 
  2812  0E9D                     	;# 
  2813  0E9E                     	;# 
  2814  0E9F                     	;# 
  2815  0EA0                     	;# 
  2816  0EA1                     	;# 
  2817  0EA2                     	;# 
  2818  0EA3                     	;# 
  2819  0EA4                     	;# 
  2820  0EA5                     	;# 
  2821  0EA6                     	;# 
  2822  0EA7                     	;# 
  2823  0EA8                     	;# 
  2824  0EA9                     	;# 
  2825  0EAA                     	;# 
  2826  0EAB                     	;# 
  2827  0EAC                     	;# 
  2828  0EAD                     	;# 
  2829  0EAE                     	;# 
  2830  0EAF                     	;# 
  2831  0EB0                     	;# 
  2832  0EB1                     	;# 
  2833  0EB2                     	;# 
  2834  0F0F                     	;# 
  2835  0F10                     	;# 
  2836  0F11                     	;# 
  2837  0F12                     	;# 
  2838  0F13                     	;# 
  2839  0F14                     	;# 
  2840  0F15                     	;# 
  2841  0F16                     	;# 
  2842  0F17                     	;# 
  2843  0F18                     	;# 
  2844  0F19                     	;# 
  2845  0F1A                     	;# 
  2846  0F1B                     	;# 
  2847  0F1C                     	;# 
  2848  0F1D                     	;# 
  2849  0F1E                     	;# 
  2850  0F1F                     	;# 
  2851  0F20                     	;# 
  2852  0F21                     	;# 
  2853  0F22                     	;# 
  2854  0F23                     	;# 
  2855  0F24                     	;# 
  2856  0F25                     	;# 
  2857  0F26                     	;# 
  2858  0F27                     	;# 
  2859  0F28                     	;# 
  2860  0F29                     	;# 
  2861  0F2A                     	;# 
  2862  0F2B                     	;# 
  2863  0F2C                     	;# 
  2864  0F2D                     	;# 
  2865  0F2E                     	;# 
  2866  0F2F                     	;# 
  2867  0F30                     	;# 
  2868  0F31                     	;# 
  2869  0F32                     	;# 
  2870  0F33                     	;# 
  2871  0F34                     	;# 
  2872  0F35                     	;# 
  2873  0F36                     	;# 
  2874  0F37                     	;# 
  2875  0FE4                     	;# 
  2876  0FE5                     	;# 
  2877  0FE6                     	;# 
  2878  0FE7                     	;# 
  2879  0FE8                     	;# 
  2880  0FE9                     	;# 
  2881  0FEA                     	;# 
  2882  0FEB                     	;# 
  2883  0FED                     	;# 
  2884  0FEE                     	;# 
  2885  0FEF                     	;# 
  2886  0000                     	;# 
  2887  0001                     	;# 
  2888  0002                     	;# 
  2889  0003                     	;# 
  2890  0004                     	;# 
  2891  0005                     	;# 
  2892  0006                     	;# 
  2893  0007                     	;# 
  2894  0008                     	;# 
  2895  0009                     	;# 
  2896  000A                     	;# 
  2897  000B                     	;# 
  2898  000C                     	;# 
  2899  000D                     	;# 
  2900  000E                     	;# 
  2901  000F                     	;# 
  2902  0010                     	;# 
  2903  0011                     	;# 
  2904  0012                     	;# 
  2905  0013                     	;# 
  2906  0015                     	;# 
  2907  0016                     	;# 
  2908  0016                     	;# 
  2909  0017                     	;# 
  2910  0018                     	;# 
  2911  0019                     	;# 
  2912  001A                     	;# 
  2913  001B                     	;# 
  2914  001C                     	;# 
  2915  008C                     	;# 
  2916  008D                     	;# 
  2917  008E                     	;# 
  2918  008F                     	;# 
  2919  0090                     	;# 
  2920  0091                     	;# 
  2921  0092                     	;# 
  2922  0093                     	;# 
  2923  0095                     	;# 
  2924  0096                     	;# 
  2925  0097                     	;# 
  2926  0098                     	;# 
  2927  0099                     	;# 
  2928  009A                     	;# 
  2929  009B                     	;# 
  2930  009B                     	;# 
  2931  009C                     	;# 
  2932  009D                     	;# 
  2933  009E                     	;# 
  2934  009F                     	;# 
  2935  010C                     	;# 
  2936  010D                     	;# 
  2937  010E                     	;# 
  2938  010F                     	;# 
  2939  0110                     	;# 
  2940  0111                     	;# 
  2941  0112                     	;# 
  2942  0113                     	;# 
  2943  0114                     	;# 
  2944  0115                     	;# 
  2945  0116                     	;# 
  2946  0117                     	;# 
  2947  0118                     	;# 
  2948  0119                     	;# 
  2949  011A                     	;# 
  2950  011B                     	;# 
  2951  011B                     	;# 
  2952  011C                     	;# 
  2953  018C                     	;# 
  2954  018D                     	;# 
  2955  018E                     	;# 
  2956  018F                     	;# 
  2957  0190                     	;# 
  2958  0191                     	;# 
  2959  0191                     	;# 
  2960  0192                     	;# 
  2961  0193                     	;# 
  2962  0193                     	;# 
  2963  0194                     	;# 
  2964  0195                     	;# 
  2965  0196                     	;# 
  2966  0199                     	;# 
  2967  0199                     	;# 
  2968  0199                     	;# 
  2969  019A                     	;# 
  2970  019A                     	;# 
  2971  019A                     	;# 
  2972  019B                     	;# 
  2973  019B                     	;# 
  2974  019B                     	;# 
  2975  019B                     	;# 
  2976  019B                     	;# 
  2977  019C                     	;# 
  2978  019C                     	;# 
  2979  019C                     	;# 
  2980  019D                     	;# 
  2981  019D                     	;# 
  2982  019D                     	;# 
  2983  019E                     	;# 
  2984  019E                     	;# 
  2985  019E                     	;# 
  2986  019F                     	;# 
  2987  019F                     	;# 
  2988  019F                     	;# 
  2989  019F                     	;# 
  2990  019F                     	;# 
  2991  020C                     	;# 
  2992  020D                     	;# 
  2993  020E                     	;# 
  2994  020F                     	;# 
  2995  0210                     	;# 
  2996  0211                     	;# 
  2997  0211                     	;# 
  2998  0212                     	;# 
  2999  0212                     	;# 
  3000  0213                     	;# 
  3001  0213                     	;# 
  3002  0214                     	;# 
  3003  0214                     	;# 
  3004  0215                     	;# 
  3005  0215                     	;# 
  3006  0215                     	;# 
  3007  0215                     	;# 
  3008  0216                     	;# 
  3009  0216                     	;# 
  3010  0217                     	;# 
  3011  0217                     	;# 
  3012  028C                     	;# 
  3013  028D                     	;# 
  3014  028E                     	;# 
  3015  028F                     	;# 
  3016  0290                     	;# 
  3017  0291                     	;# 
  3018  0291                     	;# 
  3019  0292                     	;# 
  3020  0293                     	;# 
  3021  0293                     	;# 
  3022  0298                     	;# 
  3023  0298                     	;# 
  3024  0299                     	;# 
  3025  029A                     	;# 
  3026  029A                     	;# 
  3027  029E                     	;# 
  3028  030C                     	;# 
  3029  030D                     	;# 
  3030  030E                     	;# 
  3031  030F                     	;# 
  3032  0310                     	;# 
  3033  038C                     	;# 
  3034  038D                     	;# 
  3035  038E                     	;# 
  3036  038F                     	;# 
  3037  0390                     	;# 
  3038  0391                     	;# 
  3039  0392                     	;# 
  3040  0393                     	;# 
  3041  0394                     	;# 
  3042  0395                     	;# 
  3043  0396                     	;# 
  3044  0397                     	;# 
  3045  0398                     	;# 
  3046  0399                     	;# 
  3047  039D                     	;# 
  3048  039E                     	;# 
  3049  039F                     	;# 
  3050  0415                     	;# 
  3051  0416                     	;# 
  3052  0417                     	;# 
  3053  041C                     	;# 
  3054  041D                     	;# 
  3055  041E                     	;# 
  3056  0498                     	;# 
  3057  0498                     	;# 
  3058  0499                     	;# 
  3059  049A                     	;# 
  3060  049B                     	;# 
  3061  049B                     	;# 
  3062  049C                     	;# 
  3063  049D                     	;# 
  3064  049E                     	;# 
  3065  049F                     	;# 
  3066  0511                     	;# 
  3067  0515                     	;# 
  3068  0617                     	;# 
  3069  0618                     	;# 
  3070  0619                     	;# 
  3071  0619                     	;# 
  3072  061A                     	;# 
  3073  061B                     	;# 
  3074  061C                     	;# 
  3075  061C                     	;# 
  3076  0691                     	;# 
  3077  0692                     	;# 
  3078  0693                     	;# 
  3079  0694                     	;# 
  3080  0695                     	;# 
  3081  0696                     	;# 
  3082  0697                     	;# 
  3083  0698                     	;# 
  3084  0699                     	;# 
  3085  069A                     	;# 
  3086  069B                     	;# 
  3087  069C                     	;# 
  3088  069D                     	;# 
  3089  069E                     	;# 
  3090  069F                     	;# 
  3091  0E0F                     	;# 
  3092  0E10                     	;# 
  3093  0E11                     	;# 
  3094  0E12                     	;# 
  3095  0E13                     	;# 
  3096  0E14                     	;# 
  3097  0E15                     	;# 
  3098  0E17                     	;# 
  3099  0E20                     	;# 
  3100  0E21                     	;# 
  3101  0E22                     	;# 
  3102  0E24                     	;# 
  3103  0E25                     	;# 
  3104  0E28                     	;# 
  3105  0E29                     	;# 
  3106  0E2A                     	;# 
  3107  0E2B                     	;# 
  3108  0E90                     	;# 
  3109  0E91                     	;# 
  3110  0E92                     	;# 
  3111  0E93                     	;# 
  3112  0E94                     	;# 
  3113  0E95                     	;# 
  3114  0E96                     	;# 
  3115  0E97                     	;# 
  3116  0E98                     	;# 
  3117  0E99                     	;# 
  3118  0E9A                     	;# 
  3119  0E9B                     	;# 
  3120  0E9C                     	;# 
  3121  0E9D                     	;# 
  3122  0E9E                     	;# 
  3123  0E9F                     	;# 
  3124  0EA0                     	;# 
  3125  0EA1                     	;# 
  3126  0EA2                     	;# 
  3127  0EA3                     	;# 
  3128  0EA4                     	;# 
  3129  0EA5                     	;# 
  3130  0EA6                     	;# 
  3131  0EA7                     	;# 
  3132  0EA8                     	;# 
  3133  0EA9                     	;# 
  3134  0EAA                     	;# 
  3135  0EAB                     	;# 
  3136  0EAC                     	;# 
  3137  0EAD                     	;# 
  3138  0EAE                     	;# 
  3139  0EAF                     	;# 
  3140  0EB0                     	;# 
  3141  0EB1                     	;# 
  3142  0EB2                     	;# 
  3143  0F0F                     	;# 
  3144  0F10                     	;# 
  3145  0F11                     	;# 
  3146  0F12                     	;# 
  3147  0F13                     	;# 
  3148  0F14                     	;# 
  3149  0F15                     	;# 
  3150  0F16                     	;# 
  3151  0F17                     	;# 
  3152  0F18                     	;# 
  3153  0F19                     	;# 
  3154  0F1A                     	;# 
  3155  0F1B                     	;# 
  3156  0F1C                     	;# 
  3157  0F1D                     	;# 
  3158  0F1E                     	;# 
  3159  0F1F                     	;# 
  3160  0F20                     	;# 
  3161  0F21                     	;# 
  3162  0F22                     	;# 
  3163  0F23                     	;# 
  3164  0F24                     	;# 
  3165  0F25                     	;# 
  3166  0F26                     	;# 
  3167  0F27                     	;# 
  3168  0F28                     	;# 
  3169  0F29                     	;# 
  3170  0F2A                     	;# 
  3171  0F2B                     	;# 
  3172  0F2C                     	;# 
  3173  0F2D                     	;# 
  3174  0F2E                     	;# 
  3175  0F2F                     	;# 
  3176  0F30                     	;# 
  3177  0F31                     	;# 
  3178  0F32                     	;# 
  3179  0F33                     	;# 
  3180  0F34                     	;# 
  3181  0F35                     	;# 
  3182  0F36                     	;# 
  3183  0F37                     	;# 
  3184  0FE4                     	;# 
  3185  0FE5                     	;# 
  3186  0FE6                     	;# 
  3187  0FE7                     	;# 
  3188  0FE8                     	;# 
  3189  0FE9                     	;# 
  3190  0FEA                     	;# 
  3191  0FEB                     	;# 
  3192  0FED                     	;# 
  3193  0FEE                     	;# 
  3194  0FEF                     	;# 
  3195  0000                     	;# 
  3196  0001                     	;# 
  3197  0002                     	;# 
  3198  0003                     	;# 
  3199  0004                     	;# 
  3200  0005                     	;# 
  3201  0006                     	;# 
  3202  0007                     	;# 
  3203  0008                     	;# 
  3204  0009                     	;# 
  3205  000A                     	;# 
  3206  000B                     	;# 
  3207  000C                     	;# 
  3208  000D                     	;# 
  3209  000E                     	;# 
  3210  000F                     	;# 
  3211  0010                     	;# 
  3212  0011                     	;# 
  3213  0012                     	;# 
  3214  0013                     	;# 
  3215  0015                     	;# 
  3216  0016                     	;# 
  3217  0016                     	;# 
  3218  0017                     	;# 
  3219  0018                     	;# 
  3220  0019                     	;# 
  3221  001A                     	;# 
  3222  001B                     	;# 
  3223  001C                     	;# 
  3224  008C                     	;# 
  3225  008D                     	;# 
  3226  008E                     	;# 
  3227  008F                     	;# 
  3228  0090                     	;# 
  3229  0091                     	;# 
  3230  0092                     	;# 
  3231  0093                     	;# 
  3232  0095                     	;# 
  3233  0096                     	;# 
  3234  0097                     	;# 
  3235  0098                     	;# 
  3236  0099                     	;# 
  3237  009A                     	;# 
  3238  009B                     	;# 
  3239  009B                     	;# 
  3240  009C                     	;# 
  3241  009D                     	;# 
  3242  009E                     	;# 
  3243  009F                     	;# 
  3244  010C                     	;# 
  3245  010D                     	;# 
  3246  010E                     	;# 
  3247  010F                     	;# 
  3248  0110                     	;# 
  3249  0111                     	;# 
  3250  0112                     	;# 
  3251  0113                     	;# 
  3252  0114                     	;# 
  3253  0115                     	;# 
  3254  0116                     	;# 
  3255  0117                     	;# 
  3256  0118                     	;# 
  3257  0119                     	;# 
  3258  011A                     	;# 
  3259  011B                     	;# 
  3260  011B                     	;# 
  3261  011C                     	;# 
  3262  018C                     	;# 
  3263  018D                     	;# 
  3264  018E                     	;# 
  3265  018F                     	;# 
  3266  0190                     	;# 
  3267  0191                     	;# 
  3268  0191                     	;# 
  3269  0192                     	;# 
  3270  0193                     	;# 
  3271  0193                     	;# 
  3272  0194                     	;# 
  3273  0195                     	;# 
  3274  0196                     	;# 
  3275  0199                     	;# 
  3276  0199                     	;# 
  3277  0199                     	;# 
  3278  019A                     	;# 
  3279  019A                     	;# 
  3280  019A                     	;# 
  3281  019B                     	;# 
  3282  019B                     	;# 
  3283  019B                     	;# 
  3284  019B                     	;# 
  3285  019B                     	;# 
  3286  019C                     	;# 
  3287  019C                     	;# 
  3288  019C                     	;# 
  3289  019D                     	;# 
  3290  019D                     	;# 
  3291  019D                     	;# 
  3292  019E                     	;# 
  3293  019E                     	;# 
  3294  019E                     	;# 
  3295  019F                     	;# 
  3296  019F                     	;# 
  3297  019F                     	;# 
  3298  019F                     	;# 
  3299  019F                     	;# 
  3300  020C                     	;# 
  3301  020D                     	;# 
  3302  020E                     	;# 
  3303  020F                     	;# 
  3304  0210                     	;# 
  3305  0211                     	;# 
  3306  0211                     	;# 
  3307  0212                     	;# 
  3308  0212                     	;# 
  3309  0213                     	;# 
  3310  0213                     	;# 
  3311  0214                     	;# 
  3312  0214                     	;# 
  3313  0215                     	;# 
  3314  0215                     	;# 
  3315  0215                     	;# 
  3316  0215                     	;# 
  3317  0216                     	;# 
  3318  0216                     	;# 
  3319  0217                     	;# 
  3320  0217                     	;# 
  3321  028C                     	;# 
  3322  028D                     	;# 
  3323  028E                     	;# 
  3324  028F                     	;# 
  3325  0290                     	;# 
  3326  0291                     	;# 
  3327  0291                     	;# 
  3328  0292                     	;# 
  3329  0293                     	;# 
  3330  0293                     	;# 
  3331  0298                     	;# 
  3332  0298                     	;# 
  3333  0299                     	;# 
  3334  029A                     	;# 
  3335  029A                     	;# 
  3336  029E                     	;# 
  3337  030C                     	;# 
  3338  030D                     	;# 
  3339  030E                     	;# 
  3340  030F                     	;# 
  3341  0310                     	;# 
  3342  038C                     	;# 
  3343  038D                     	;# 
  3344  038E                     	;# 
  3345  038F                     	;# 
  3346  0390                     	;# 
  3347  0391                     	;# 
  3348  0392                     	;# 
  3349  0393                     	;# 
  3350  0394                     	;# 
  3351  0395                     	;# 
  3352  0396                     	;# 
  3353  0397                     	;# 
  3354  0398                     	;# 
  3355  0399                     	;# 
  3356  039D                     	;# 
  3357  039E                     	;# 
  3358  039F                     	;# 
  3359  0415                     	;# 
  3360  0416                     	;# 
  3361  0417                     	;# 
  3362  041C                     	;# 
  3363  041D                     	;# 
  3364  041E                     	;# 
  3365  0498                     	;# 
  3366  0498                     	;# 
  3367  0499                     	;# 
  3368  049A                     	;# 
  3369  049B                     	;# 
  3370  049B                     	;# 
  3371  049C                     	;# 
  3372  049D                     	;# 
  3373  049E                     	;# 
  3374  049F                     	;# 
  3375  0511                     	;# 
  3376  0515                     	;# 
  3377  0617                     	;# 
  3378  0618                     	;# 
  3379  0619                     	;# 
  3380  0619                     	;# 
  3381  061A                     	;# 
  3382  061B                     	;# 
  3383  061C                     	;# 
  3384  061C                     	;# 
  3385  0691                     	;# 
  3386  0692                     	;# 
  3387  0693                     	;# 
  3388  0694                     	;# 
  3389  0695                     	;# 
  3390  0696                     	;# 
  3391  0697                     	;# 
  3392  0698                     	;# 
  3393  0699                     	;# 
  3394  069A                     	;# 
  3395  069B                     	;# 
  3396  069C                     	;# 
  3397  069D                     	;# 
  3398  069E                     	;# 
  3399  069F                     	;# 
  3400  0E0F                     	;# 
  3401  0E10                     	;# 
  3402  0E11                     	;# 
  3403  0E12                     	;# 
  3404  0E13                     	;# 
  3405  0E14                     	;# 
  3406  0E15                     	;# 
  3407  0E17                     	;# 
  3408  0E20                     	;# 
  3409  0E21                     	;# 
  3410  0E22                     	;# 
  3411  0E24                     	;# 
  3412  0E25                     	;# 
  3413  0E28                     	;# 
  3414  0E29                     	;# 
  3415  0E2A                     	;# 
  3416  0E2B                     	;# 
  3417  0E90                     	;# 
  3418  0E91                     	;# 
  3419  0E92                     	;# 
  3420  0E93                     	;# 
  3421  0E94                     	;# 
  3422  0E95                     	;# 
  3423  0E96                     	;# 
  3424  0E97                     	;# 
  3425  0E98                     	;# 
  3426  0E99                     	;# 
  3427  0E9A                     	;# 
  3428  0E9B                     	;# 
  3429  0E9C                     	;# 
  3430  0E9D                     	;# 
  3431  0E9E                     	;# 
  3432  0E9F                     	;# 
  3433  0EA0                     	;# 
  3434  0EA1                     	;# 
  3435  0EA2                     	;# 
  3436  0EA3                     	;# 
  3437  0EA4                     	;# 
  3438  0EA5                     	;# 
  3439  0EA6                     	;# 
  3440  0EA7                     	;# 
  3441  0EA8                     	;# 
  3442  0EA9                     	;# 
  3443  0EAA                     	;# 
  3444  0EAB                     	;# 
  3445  0EAC                     	;# 
  3446  0EAD                     	;# 
  3447  0EAE                     	;# 
  3448  0EAF                     	;# 
  3449  0EB0                     	;# 
  3450  0EB1                     	;# 
  3451  0EB2                     	;# 
  3452  0F0F                     	;# 
  3453  0F10                     	;# 
  3454  0F11                     	;# 
  3455  0F12                     	;# 
  3456  0F13                     	;# 
  3457  0F14                     	;# 
  3458  0F15                     	;# 
  3459  0F16                     	;# 
  3460  0F17                     	;# 
  3461  0F18                     	;# 
  3462  0F19                     	;# 
  3463  0F1A                     	;# 
  3464  0F1B                     	;# 
  3465  0F1C                     	;# 
  3466  0F1D                     	;# 
  3467  0F1E                     	;# 
  3468  0F1F                     	;# 
  3469  0F20                     	;# 
  3470  0F21                     	;# 
  3471  0F22                     	;# 
  3472  0F23                     	;# 
  3473  0F24                     	;# 
  3474  0F25                     	;# 
  3475  0F26                     	;# 
  3476  0F27                     	;# 
  3477  0F28                     	;# 
  3478  0F29                     	;# 
  3479  0F2A                     	;# 
  3480  0F2B                     	;# 
  3481  0F2C                     	;# 
  3482  0F2D                     	;# 
  3483  0F2E                     	;# 
  3484  0F2F                     	;# 
  3485  0F30                     	;# 
  3486  0F31                     	;# 
  3487  0F32                     	;# 
  3488  0F33                     	;# 
  3489  0F34                     	;# 
  3490  0F35                     	;# 
  3491  0F36                     	;# 
  3492  0F37                     	;# 
  3493  0FE4                     	;# 
  3494  0FE5                     	;# 
  3495  0FE6                     	;# 
  3496  0FE7                     	;# 
  3497  0FE8                     	;# 
  3498  0FE9                     	;# 
  3499  0FEA                     	;# 
  3500  0FEB                     	;# 
  3501  0FED                     	;# 
  3502  0FEE                     	;# 
  3503  0FEF                     	;# 
  3504                           
  3505 ;; Function _EUSART_DefaultFramingErrorHandler is unused but had its address taken
  3506  0000                     
  3507 ;; Function _EUSART_DefaultOverrunErrorHandler is unused but had its address taken
  3508  0000                     
  3509 ;; Function _EUSART_DefaultErrorHandler is unused but had its address taken
  3510  0000                     
  3511 ;; Function _demo1 is unused but had its address taken
  3512  0000                     
  3513 ;; Function _demo2 is unused but had its address taken
  3514  0000                     
  3515 ;; Function _demo3 is unused but had its address taken
  3516  0000                     
  3517                           	psect	idataBANK1
  3518  00AE                     __pidataBANK1:
  3519                           
  3520                           ;initializer for stoa@F1133
  3521  00AE  3428               	retlw	40
  3522  00AF  346E               	retlw	110
  3523  00B0  3475               	retlw	117
  3524  00B1  346C               	retlw	108
  3525  00B2  346C               	retlw	108
  3526  00B3  3429               	retlw	41
  3527  00B4  3400               	retlw	0
  3528                           
  3529                           	psect	nvBANK1
  3530  00E2                     __pnvBANK1:
  3531  00E2                     _EUSART_ErrorHandler:
  3532  00E2                     	ds	2
  3533  00E4                     _EUSART_OverrunErrorHandler:
  3534  00E4                     	ds	2
  3535  00E6                     _EUSART_FramingErrorHandler:
  3536  00E6                     	ds	2
  3537  000F                     _PORTDbits	set	15
  3538  000F                     _PORTD	set	15
  3539  0012                     _PIR2bits	set	18
  3540  0011                     _PIR1bits	set	17
  3541  009D                     _ADCON0bits	set	157
  3542  009D                     _ADCON0	set	157
  3543  009C                     _ADRESH	set	156
  3544  009B                     _ADRESL	set	155
  3545  009F                     _ADCON2	set	159
  3546  009E                     _ADCON1	set	158
  3547  0095                     _OPTION_REGbits	set	149
  3548  008F                     _TRISD	set	143
  3549  008E                     _TRISC	set	142
  3550  008D                     _TRISB	set	141
  3551  008C                     _TRISA	set	140
  3552  0090                     _TRISE	set	144
  3553  0097                     _WDTCON	set	151
  3554  0098                     _OSCTUNE	set	152
  3555  0099                     _OSCCON	set	153
  3556  010D                     _LATBbits	set	269
  3557  010E                     _LATC	set	270
  3558  010D                     _LATB	set	269
  3559  010C                     _LATA	set	268
  3560  010F                     _LATD	set	271
  3561  0110                     _LATE	set	272
  3562  0116                     _BORCON	set	278
  3563  019A                     _TX1REG	set	410
  3564  0199                     _RC1REG	set	409
  3565  019D                     _RC1STAbits	set	413
  3566  019E                     _TX1STAbits	set	414
  3567  019C                     _SP1BRGH	set	412
  3568  019B                     _SP1BRGL	set	411
  3569  019E                     _TX1STA	set	414
  3570  019D                     _RC1STA	set	413
  3571  019F                     _BAUD1CON	set	415
  3572  018C                     _ANSELA	set	396
  3573  0190                     _ANSELE	set	400
  3574  018D                     _ANSELB	set	397
  3575  018E                     _ANSELC	set	398
  3576  018F                     _ANSELD	set	399
  3577  020E                     _WPUC	set	526
  3578  020C                     _WPUA	set	524
  3579  020D                     _WPUB	set	525
  3580  0210                     _WPUE	set	528
  3581  020F                     _WPUD	set	527
  3582  029E                     _CCPTMRSbits	set	670
  3583  028F                     _ODCOND	set	655
  3584  028E                     _ODCONC	set	654
  3585  028D                     _ODCONB	set	653
  3586  028C                     _ODCONA	set	652
  3587  0290                     _ODCONE	set	656
  3588  0310                     _SLRCONE	set	784
  3589  030F                     _SLRCOND	set	783
  3590  030E                     _SLRCONC	set	782
  3591  030D                     _SLRCONB	set	781
  3592  030C                     _SLRCONA	set	780
  3593  0390                     _INLVLE	set	912
  3594  038F                     _INLVLD	set	911
  3595  038E                     _INLVLC	set	910
  3596  038D                     _INLVLB	set	909
  3597  038C                     _INLVLA	set	908
  3598  0417                     _T4CONbits	set	1047
  3599  0417                     _T4CON	set	1047
  3600  0415                     _TMR4	set	1045
  3601  0416                     _PR4	set	1046
  3602  0617                     _PWM3DCL	set	1559
  3603  0618                     _PWM3DCH	set	1560
  3604  0619                     _PWM3CON	set	1561
  3605  0E24                     _RXPPS	set	3620
  3606  0EA6                     _RC6PPS	set	3750
  3607  0E98                     _RB0PPS	set	3736
  3608                           
  3609                           	psect	stringtext1
  3610  0800                     __pstringtext1:
  3611  0800                     STR_1:
  3612  0800  3454               	retlw	84	;'T'
  3613  0801  3465               	retlw	101	;'e'
  3614  0802  346D               	retlw	109	;'m'
  3615  0803  3470               	retlw	112	;'p'
  3616  0804  3465               	retlw	101	;'e'
  3617  0805  3472               	retlw	114	;'r'
  3618  0806  3461               	retlw	97	;'a'
  3619  0807  3474               	retlw	116	;'t'
  3620  0808  3475               	retlw	117	;'u'
  3621  0809  3472               	retlw	114	;'r'
  3622  080A  3465               	retlw	101	;'e'
  3623  080B  3420               	retlw	32	;' '
  3624  080C  3473               	retlw	115	;'s'
  3625  080D  3465               	retlw	101	;'e'
  3626  080E  346E               	retlw	110	;'n'
  3627  080F  3473               	retlw	115	;'s'
  3628  0810  346F               	retlw	111	;'o'
  3629  0811  3472               	retlw	114	;'r'
  3630  0812  3420               	retlw	32	;' '
  3631  0813  3469               	retlw	105	;'i'
  3632  0814  3473               	retlw	115	;'s'
  3633  0815  3420               	retlw	32	;' '
  3634  0816  3461               	retlw	97	;'a'
  3635  0817  3476               	retlw	118	;'v'
  3636  0818  3461               	retlw	97	;'a'
  3637  0819  3469               	retlw	105	;'i'
  3638  081A  346C               	retlw	108	;'l'
  3639  081B  3461               	retlw	97	;'a'
  3640  081C  3462               	retlw	98	;'b'
  3641  081D  346C               	retlw	108	;'l'
  3642  081E  3465               	retlw	101	;'e'
  3643  081F  340D               	retlw	13
  3644  0820  340A               	retlw	10
  3645  0821  3400               	retlw	0
  3646                           
  3647                           	psect	stringtext2
  3648  0822                     __pstringtext2:
  3649  0822                     STR_2:
  3650  0822  344C               	retlw	76	;'L'
  3651  0823  3469               	retlw	105	;'i'
  3652  0824  3467               	retlw	103	;'g'
  3653  0825  3468               	retlw	104	;'h'
  3654  0826  3474               	retlw	116	;'t'
  3655  0827  3420               	retlw	32	;' '
  3656  0828  3473               	retlw	115	;'s'
  3657  0829  3465               	retlw	101	;'e'
  3658  082A  346E               	retlw	110	;'n'
  3659  082B  3473               	retlw	115	;'s'
  3660  082C  346F               	retlw	111	;'o'
  3661  082D  3472               	retlw	114	;'r'
  3662  082E  3420               	retlw	32	;' '
  3663  082F  3469               	retlw	105	;'i'
  3664  0830  3473               	retlw	115	;'s'
  3665  0831  3420               	retlw	32	;' '
  3666  0832  3461               	retlw	97	;'a'
  3667  0833  3476               	retlw	118	;'v'
  3668  0834  3461               	retlw	97	;'a'
  3669  0835  3469               	retlw	105	;'i'
  3670  0836  346C               	retlw	108	;'l'
  3671  0837  3461               	retlw	97	;'a'
  3672  0838  3462               	retlw	98	;'b'
  3673  0839  346C               	retlw	108	;'l'
  3674  083A  3465               	retlw	101	;'e'
  3675  083B  340D               	retlw	13
  3676  083C  340A               	retlw	10
  3677  083D  3400               	retlw	0
  3678                           
  3679                           	psect	stringtext3
  3680  083E                     __pstringtext3:
  3681  083E                     STR_6:
  3682  083E  3454               	retlw	84	;'T'
  3683  083F  3465               	retlw	101	;'e'
  3684  0840  346D               	retlw	109	;'m'
  3685  0841  3470               	retlw	112	;'p'
  3686  0842  3465               	retlw	101	;'e'
  3687  0843  3472               	retlw	114	;'r'
  3688  0844  3461               	retlw	97	;'a'
  3689  0845  3474               	retlw	116	;'t'
  3690  0846  3475               	retlw	117	;'u'
  3691  0847  3472               	retlw	114	;'r'
  3692  0848  3465               	retlw	101	;'e'
  3693  0849  3400               	retlw	0
  3694                           
  3695                           	psect	stringtext4
  3696  084A                     __pstringtext4:
  3697  084A                     STR_7:
  3698  084A  3444               	retlw	68	;'D'
  3699  084B  3465               	retlw	101	;'e'
  3700  084C  346D               	retlw	109	;'m'
  3701  084D  346F               	retlw	111	;'o'
  3702  084E  3420               	retlw	32	;' '
  3703  084F  3431               	retlw	49	;'1'
  3704  0850  3421               	retlw	33	;'!'
  3705  0851  340A               	retlw	10
  3706  0852  3400               	retlw	0
  3707                           
  3708                           	psect	stringtext5
  3709  0853                     __pstringtext5:
  3710  0853                     STR_8:
  3711  0853  3444               	retlw	68	;'D'
  3712  0854  3465               	retlw	101	;'e'
  3713  0855  346D               	retlw	109	;'m'
  3714  0856  346F               	retlw	111	;'o'
  3715  0857  3420               	retlw	32	;' '
  3716  0858  3432               	retlw	50	;'2'
  3717  0859  3421               	retlw	33	;'!'
  3718  085A  340A               	retlw	10
  3719  085B  3400               	retlw	0
  3720                           
  3721                           	psect	stringtext6
  3722  085C                     __pstringtext6:
  3723  085C                     STR_9:
  3724  085C  3444               	retlw	68	;'D'
  3725  085D  3465               	retlw	101	;'e'
  3726  085E  346D               	retlw	109	;'m'
  3727  085F  346F               	retlw	111	;'o'
  3728  0860  3420               	retlw	32	;' '
  3729  0861  3433               	retlw	51	;'3'
  3730  0862  3421               	retlw	33	;'!'
  3731  0863  340A               	retlw	10
  3732  0864  3400               	retlw	0
  3733                           
  3734                           	psect	stringtext7
  3735  0865                     __pstringtext7:
  3736  0865                     STR_5:
  3737  0865  344C               	retlw	76	;'L'
  3738  0866  3469               	retlw	105	;'i'
  3739  0867  3467               	retlw	103	;'g'
  3740  0868  3468               	retlw	104	;'h'
  3741  0869  3474               	retlw	116	;'t'
  3742  086A  3400               	retlw	0
  3743                           
  3744                           	psect	stringtext8
  3745  086B                     __pstringtext8:
  3746  086B                     STR_3:
  3747  086B  3425               	retlw	37	;'%'
  3748  086C  3473               	retlw	115	;'s'
  3749  086D  3420               	retlw	32	;' '
  3750  086E  340D               	retlw	13
  3751  086F  340A               	retlw	10
  3752  0870  3400               	retlw	0
  3753                           
  3754                           	psect	stringtext9
  3755  0871                     __pstringtext9:
  3756  0871                     STR_4:
  3757  0871  3468               	retlw	104	;'h'
  3758  0872  346F               	retlw	111	;'o'
  3759  0873  346C               	retlw	108	;'l'
  3760  0874  3461               	retlw	97	;'a'
  3761  0875  3400               	retlw	0
  3762                           
  3763                           	psect	stringtext10
  3764  0000                     __pstringtext10:
  3765                           
  3766                           	psect	cinit
  3767  07E1                     start_initialization:	
  3768                           ; #config settings
  3769                           
  3770  07E1                     __initialization:
  3771                           
  3772                           ; Initialize objects allocated to BANK1
  3773  07E1  30AE               	movlw	low __pidataBANK1
  3774  07E2  0084               	movwf	4
  3775  07E3  3080               	movlw	(high __pidataBANK1)| (0+128)
  3776  07E4  0085               	movwf	5
  3777  07E5  30DB               	movlw	low __pdataBANK1
  3778  07E6  0086               	movwf	6
  3779  07E7  3000               	movlw	high __pdataBANK1
  3780  07E8  0087               	movwf	7
  3781  07E9  3007               	movlw	7
  3782  07EA  3180  209A  3187   	fcall	init_ram
  3783                           
  3784                           ; Clear objects allocated to BANK0
  3785  07ED  3064               	movlw	low __pbssBANK0
  3786  07EE  0084               	movwf	4
  3787  07EF  3000               	movlw	high __pbssBANK0
  3788  07F0  0085               	movwf	5
  3789  07F1  300B               	movlw	11
  3790  07F2  3180  2094  3187   	fcall	clear_ram0
  3791                           
  3792                           ; Clear objects allocated to BANK1
  3793  07F5  30A0               	movlw	low __pbssBANK1
  3794  07F6  0084               	movwf	4
  3795  07F7  3000               	movlw	high __pbssBANK1
  3796  07F8  0085               	movwf	5
  3797  07F9  303B               	movlw	59
  3798  07FA  3180  2094  3187   	fcall	clear_ram0
  3799  07FD                     end_of_initialization:	
  3800                           ;End of C runtime variable initialization code
  3801                           
  3802  07FD                     __end_of__initialization:
  3803  07FD  0020               	movlb	0
  3804  07FE  3187  2F08         	ljmp	_main	;jump to C main() function
  3805                           
  3806                           	psect	bssBANK0
  3807  0064                     __pbssBANK0:
  3808  0064                     _nout:
  3809  0064                     	ds	2
  3810  0066                     _width:
  3811  0066                     	ds	2
  3812  0068                     _prec:
  3813  0068                     	ds	2
  3814  006A                     _flags:
  3815  006A                     	ds	2
  3816  006C                     _duty_cycle:
  3817  006C                     	ds	2
  3818  006E                     _eusartRxLastError:
  3819  006E                     	ds	1
  3820                           
  3821                           	psect	bssBANK1
  3822  00A0                     __pbssBANK1:
  3823  00A0                     _dbuf:
  3824  00A0                     	ds	32
  3825  00C0                     main@F6180:
  3826  00C0                     	ds	3
  3827  00C3                     _ADC_InterruptHandler:
  3828  00C3                     	ds	2
  3829  00C5                     _lcd_screen_var:
  3830  00C5                     	ds	6
  3831  00CB                     _temp_sensor:
  3832  00CB                     	ds	6
  3833  00D1                     _light_sensor:
  3834  00D1                     	ds	6
  3835  00D7                     _led_var:
  3836  00D7                     	ds	4
  3837                           
  3838                           	psect	dataBANK1
  3839  00DB                     __pdataBANK1:
  3840  00DB                     stoa@F1133:
  3841  00DB                     	ds	7
  3842                           
  3843                           	psect	inittext
  3844  009A                     init_ram:
  3845  009A  00FE               	movwf	btemp
  3846  009B                     initloop:
  3847  009B  0012               	moviw fsr0++
  3848  009C  001E               	movwi fsr1++
  3849  009D  0BFE               	decfsz	btemp,f
  3850  009E  289B               	goto	initloop
  3851  009F  3400               	retlw	0
  3852                           
  3853                           	psect	clrtext
  3854  0094                     clear_ram0:	
  3855                           ;	Called with FSR0 containing the base address, and
  3856                           ;	WREG with the size to clear
  3857                           
  3858  0094  0064               	clrwdt	;clear the watchdog before getting into this loop
  3859  0095                     clrloop0:
  3860  0095  0180               	clrf	0	;clear RAM location pointed to by FSR
  3861  0096  3101               	addfsr 0,1
  3862  0097  0B89               	decfsz	9,f	;Have we reached the end of clearing yet?
  3863  0098  2895               	goto	clrloop0	;have we reached the end yet?
  3864  0099  3400               	retlw	0	;all done for this memory range, return
  3865                           
  3866                           	psect	cstackCOMMON
  3867  0070                     __pcstackCOMMON:
  3868  0070                     ?_PIN_MANAGER_Initialize:
  3869  0070                     ??_PIN_MANAGER_Initialize:	
  3870                           ; 1 bytes @ 0x0
  3871                           
  3872  0070                     ?_OSCILLATOR_Initialize:	
  3873                           ; 1 bytes @ 0x0
  3874                           
  3875  0070                     ??_OSCILLATOR_Initialize:	
  3876                           ; 1 bytes @ 0x0
  3877                           
  3878  0070                     ?_WDT_Initialize:	
  3879                           ; 1 bytes @ 0x0
  3880                           
  3881  0070                     ??_WDT_Initialize:	
  3882                           ; 1 bytes @ 0x0
  3883                           
  3884  0070                     ?_ADC_Initialize:	
  3885                           ; 1 bytes @ 0x0
  3886                           
  3887  0070                     ??_ADC_Initialize:	
  3888                           ; 1 bytes @ 0x0
  3889                           
  3890  0070                     ?_TMR4_Initialize:	
  3891                           ; 1 bytes @ 0x0
  3892                           
  3893  0070                     ??_TMR4_Initialize:	
  3894                           ; 1 bytes @ 0x0
  3895                           
  3896  0070                     ?_PWM3_Initialize:	
  3897                           ; 1 bytes @ 0x0
  3898                           
  3899  0070                     ??_PWM3_Initialize:	
  3900                           ; 1 bytes @ 0x0
  3901                           
  3902  0070                     ?_EUSART_Initialize:	
  3903                           ; 1 bytes @ 0x0
  3904                           
  3905  0070                     ?_EUSART_SetFramingErrorHandler:	
  3906                           ; 1 bytes @ 0x0
  3907                           
  3908  0070                     ?_EUSART_SetOverrunErrorHandler:	
  3909                           ; 1 bytes @ 0x0
  3910                           
  3911  0070                     ?_EUSART_SetErrorHandler:	
  3912                           ; 1 bytes @ 0x0
  3913                           
  3914  0070                     ?_LCD_Initialize:	
  3915                           ; 1 bytes @ 0x0
  3916                           
  3917  0070                     ?_initialize_light:	
  3918                           ; 1 bytes @ 0x0
  3919                           
  3920  0070                     ??_initialize_light:	
  3921                           ; 1 bytes @ 0x0
  3922                           
  3923  0070                     ?_initialize_temp:	
  3924                           ; 1 bytes @ 0x0
  3925                           
  3926  0070                     ??_initialize_temp:	
  3927                           ; 1 bytes @ 0x0
  3928                           
  3929  0070                     ?_initialize_lcd_screen:	
  3930                           ; 1 bytes @ 0x0
  3931                           
  3932  0070                     ??_initialize_lcd_screen:	
  3933                           ; 1 bytes @ 0x0
  3934                           
  3935  0070                     ?_initialize_led:	
  3936                           ; 1 bytes @ 0x0
  3937                           
  3938  0070                     ??_initialize_led:	
  3939                           ; 1 bytes @ 0x0
  3940                           
  3941  0070                     ?_LCDPutCmd:	
  3942                           ; 1 bytes @ 0x0
  3943                           
  3944  0070                     ?_SYSTEM_Initialize:	
  3945                           ; 1 bytes @ 0x0
  3946                           
  3947  0070                     ?_EUSART_Write:	
  3948                           ; 1 bytes @ 0x0
  3949                           
  3950  0070                     ??_EUSART_Write:	
  3951                           ; 1 bytes @ 0x0
  3952                           
  3953  0070                     ?_putch:	
  3954                           ; 1 bytes @ 0x0
  3955                           
  3956  0070                     ?_PWM3_LoadDutyValue:	
  3957                           ; 1 bytes @ 0x0
  3958                           
  3959  0070                     ?_main:	
  3960                           ; 1 bytes @ 0x0
  3961                           
  3962  0070                     ?_open:	
  3963                           ; 1 bytes @ 0x0
  3964                           
  3965  0070                     ?_open@temp_sensor$F633:	
  3966                           ; 1 bytes @ 0x0
  3967                           
  3968  0070                     ?_turn_selectors:	
  3969                           ; 1 bytes @ 0x0
  3970                           
  3971  0070                     ?_turn_blue:	
  3972                           ; 1 bytes @ 0x0
  3973                           
  3974  0070                     ?_turn_green:	
  3975                           ; 1 bytes @ 0x0
  3976                           
  3977  0070                     ?_turn_red:	
  3978                           ; 1 bytes @ 0x0
  3979                           
  3980  0070                     ?_LCDWriteNibble:	
  3981                           ; 1 bytes @ 0x0
  3982                           
  3983  0070                     ?_LCDPutChar:	
  3984                           ; 1 bytes @ 0x0
  3985                           
  3986  0070                     ?_strlen:	
  3987                           ; 1 bytes @ 0x0
  3988                           
  3989  0070                     ?_ADC_GetConversion:	
  3990                           ; 2 bytes @ 0x0
  3991                           
  3992  0070                     ?___lmul:	
  3993                           ; 2 bytes @ 0x0
  3994                           
  3995  0070                     EUSART_Write@txData:	
  3996                           ; 4 bytes @ 0x0
  3997                           
  3998  0070                     initialize_light@sensor_var:	
  3999                           ; 1 bytes @ 0x0
  4000                           
  4001  0070                     initialize_temp@sensor_var:	
  4002                           ; 1 bytes @ 0x0
  4003                           
  4004  0070                     initialize_lcd_screen@lcd_screen_var:	
  4005                           ; 1 bytes @ 0x0
  4006                           
  4007  0070                     turn_selectors@selector2:	
  4008                           ; 1 bytes @ 0x0
  4009                           
  4010  0070                     initialize_led@led:	
  4011                           ; 1 bytes @ 0x0
  4012                           
  4013  0070                     LCDWriteNibble@rs:	
  4014                           ; 1 bytes @ 0x0
  4015                           
  4016  0070                     EUSART_SetFramingErrorHandler@interruptHandler:	
  4017                           ; 1 bytes @ 0x0
  4018                           
  4019  0070                     EUSART_SetOverrunErrorHandler@interruptHandler:	
  4020                           ; 2 bytes @ 0x0
  4021                           
  4022  0070                     EUSART_SetErrorHandler@interruptHandler:	
  4023                           ; 2 bytes @ 0x0
  4024                           
  4025  0070                     PWM3_LoadDutyValue@dutyValue:	
  4026                           ; 2 bytes @ 0x0
  4027                           
  4028  0070                     strlen@s:	
  4029                           ; 2 bytes @ 0x0
  4030                           
  4031  0070                     ___lmul@multiplier:	
  4032                           ; 2 bytes @ 0x0
  4033                           
  4034                           
  4035                           ; 4 bytes @ 0x0
  4036  0070                     	ds	1
  4037  0071                     ??_putch:
  4038  0071                     ??_turn_selectors:	
  4039                           ; 1 bytes @ 0x1
  4040                           
  4041  0071                     ??_LCDWriteNibble:	
  4042                           ; 1 bytes @ 0x1
  4043                           
  4044  0071                     putch@txData:	
  4045                           ; 1 bytes @ 0x1
  4046                           
  4047  0071                     turn_selectors@selector1:	
  4048                           ; 1 bytes @ 0x1
  4049                           
  4050                           
  4051                           ; 1 bytes @ 0x1
  4052  0071                     	ds	1
  4053  0072                     ??_EUSART_Initialize:
  4054  0072                     ??_EUSART_SetFramingErrorHandler:	
  4055                           ; 1 bytes @ 0x2
  4056                           
  4057  0072                     ??_EUSART_SetOverrunErrorHandler:	
  4058                           ; 1 bytes @ 0x2
  4059                           
  4060  0072                     ??_EUSART_SetErrorHandler:	
  4061                           ; 1 bytes @ 0x2
  4062                           
  4063  0072                     ??_strlen:	
  4064                           ; 1 bytes @ 0x2
  4065                           
  4066  0072                     ??_SYSTEM_Initialize:	
  4067                           ; 1 bytes @ 0x2
  4068                           
  4069  0072                     ??_PWM3_LoadDutyValue:	
  4070                           ; 1 bytes @ 0x2
  4071                           
  4072  0072                     ??_ADC_GetConversion:	
  4073                           ; 1 bytes @ 0x2
  4074                           
  4075  0072                     ??_turn_blue:	
  4076                           ; 1 bytes @ 0x2
  4077                           
  4078  0072                     ??_turn_green:	
  4079                           ; 1 bytes @ 0x2
  4080                           
  4081  0072                     ??_turn_red:	
  4082                           ; 1 bytes @ 0x2
  4083                           
  4084  0072                     ?_fputc:	
  4085                           ; 1 bytes @ 0x2
  4086                           
  4087  0072                     fputc@c:	
  4088                           ; 2 bytes @ 0x2
  4089                           
  4090                           
  4091                           ; 2 bytes @ 0x2
  4092  0072                     	ds	1
  4093  0073                     ADC_GetConversion@channel:
  4094  0073                     LCDWriteNibble@ch:	
  4095                           ; 1 bytes @ 0x3
  4096                           
  4097  0073                     strlen@a:	
  4098                           ; 1 bytes @ 0x3
  4099                           
  4100                           
  4101                           ; 2 bytes @ 0x3
  4102  0073                     	ds	1
  4103  0074                     ??_LCDPutCmd:
  4104  0074                     ??_open:	
  4105                           ; 1 bytes @ 0x4
  4106                           
  4107  0074                     ??_open@temp_sensor$F633:	
  4108                           ; 1 bytes @ 0x4
  4109                           
  4110  0074                     ??_LCDPutChar:	
  4111                           ; 1 bytes @ 0x4
  4112                           
  4113  0074                     ?_read:	
  4114                           ; 1 bytes @ 0x4
  4115                           
  4116  0074                     ?_read@temp_sensor$F636:	
  4117                           ; 2 bytes @ 0x4
  4118                           
  4119  0074                     fputc@fp:	
  4120                           ; 2 bytes @ 0x4
  4121                           
  4122  0074                     ___lmul@multiplicand:	
  4123                           ; 1 bytes @ 0x4
  4124                           
  4125                           
  4126                           ; 4 bytes @ 0x4
  4127  0074                     	ds	1
  4128  0075                     ??_fputc:
  4129                           
  4130                           ; 1 bytes @ 0x5
  4131  0075                     	ds	1
  4132  0076                     ??_read:
  4133  0076                     ??_read@temp_sensor$F636:	
  4134                           ; 1 bytes @ 0x6
  4135                           
  4136  0076                     LCDPutChar@ch:	
  4137                           ; 1 bytes @ 0x6
  4138                           
  4139  0076                     LCDPutCmd@ch:	
  4140                           ; 1 bytes @ 0x6
  4141                           
  4142  0076                     open@opening_value:	
  4143                           ; 1 bytes @ 0x6
  4144                           
  4145  0076                     open@temp_sensor$F633@opening_value:	
  4146                           ; 2 bytes @ 0x6
  4147                           
  4148                           
  4149                           ; 2 bytes @ 0x6
  4150  0076                     	ds	1
  4151  0077                     ??_LCD_Initialize:
  4152  0077                     ?_LCDPutStr:	
  4153                           ; 1 bytes @ 0x7
  4154                           
  4155  0077                     LCDPutStr@str:	
  4156                           ; 1 bytes @ 0x7
  4157                           
  4158                           
  4159                           ; 2 bytes @ 0x7
  4160  0077                     	ds	1
  4161  0078                     ??___lmul:
  4162  0078                     open@is_connected:	
  4163                           ; 1 bytes @ 0x8
  4164                           
  4165  0078                     open@temp_sensor$F633@is_connected:	
  4166                           ; 1 bytes @ 0x8
  4167                           
  4168  0078                     ___lmul@product:	
  4169                           ; 1 bytes @ 0x8
  4170                           
  4171                           
  4172                           ; 4 bytes @ 0x8
  4173  0078                     	ds	1
  4174  0079                     ??_LCDPutStr:
  4175                           
  4176                           ; 1 bytes @ 0x9
  4177  0079                     	ds	1
  4178  007A                     ?_stoa:
  4179  007A                     stoa@s:	
  4180                           ; 2 bytes @ 0xA
  4181                           
  4182                           
  4183                           ; 2 bytes @ 0xA
  4184  007A                     	ds	2
  4185  007C                     ??___aldiv:
  4186  007C                     ?_vfpfcnvrt:	
  4187                           ; 1 bytes @ 0xC
  4188                           
  4189  007C                     LCDPutStr@i:	
  4190                           ; 2 bytes @ 0xC
  4191                           
  4192  007C                     vfpfcnvrt@fmt:	
  4193                           ; 1 bytes @ 0xC
  4194                           
  4195                           
  4196                           ; 1 bytes @ 0xC
  4197  007C                     	ds	1
  4198  007D                     ??_set_brightness:
  4199  007D                     ??_set_color:	
  4200                           ; 1 bytes @ 0xD
  4201                           
  4202  007D                     vfpfcnvrt@ap:	
  4203                           ; 1 bytes @ 0xD
  4204                           
  4205                           
  4206                           ; 1 bytes @ 0xD
  4207  007D                     	ds	1
  4208                           
  4209                           	psect	cstackBANK0
  4210  0020                     __pcstackBANK0:
  4211  0020                     ??_stoa:
  4212  0020                     ?___aldiv:	
  4213                           ; 1 bytes @ 0x0
  4214                           
  4215  0020                     ___aldiv@divisor:	
  4216                           ; 4 bytes @ 0x0
  4217                           
  4218                           
  4219                           ; 4 bytes @ 0x0
  4220  0020                     	ds	3
  4221  0023                     stoa@nuls:
  4222                           
  4223                           ; 7 bytes @ 0x3
  4224  0023                     	ds	1
  4225  0024                     ___aldiv@dividend:
  4226                           
  4227                           ; 4 bytes @ 0x4
  4228  0024                     	ds	4
  4229  0028                     ___aldiv@counter:
  4230                           
  4231                           ; 1 bytes @ 0x8
  4232  0028                     	ds	1
  4233  0029                     ___aldiv@sign:
  4234                           
  4235                           ; 1 bytes @ 0x9
  4236  0029                     	ds	1
  4237  002A                     stoa@i:
  4238  002A                     ___aldiv@quotient:	
  4239                           ; 2 bytes @ 0xA
  4240                           
  4241                           
  4242                           ; 4 bytes @ 0xA
  4243  002A                     	ds	2
  4244  002C                     stoa@w:
  4245                           
  4246                           ; 2 bytes @ 0xC
  4247  002C                     	ds	2
  4248  002E                     ?_map:
  4249  002E                     map@x:	
  4250                           ; 4 bytes @ 0xE
  4251                           
  4252  002E                     stoa@cp:	
  4253                           ; 2 bytes @ 0xE
  4254                           
  4255                           
  4256                           ; 2 bytes @ 0xE
  4257  002E                     	ds	2
  4258  0030                     stoa@fp:
  4259  0030                     map@in_min:	
  4260                           ; 1 bytes @ 0x10
  4261                           
  4262                           
  4263                           ; 4 bytes @ 0x10
  4264  0030                     	ds	1
  4265  0031                     stoa@p:
  4266                           
  4267                           ; 2 bytes @ 0x11
  4268  0031                     	ds	2
  4269  0033                     stoa@l:
  4270                           
  4271                           ; 2 bytes @ 0x13
  4272  0033                     	ds	1
  4273  0034                     map@in_max:
  4274                           
  4275                           ; 4 bytes @ 0x14
  4276  0034                     	ds	1
  4277  0035                     ??_vfpfcnvrt:
  4278                           
  4279                           ; 1 bytes @ 0x15
  4280  0035                     	ds	3
  4281  0038                     map@out_min:
  4282                           
  4283                           ; 4 bytes @ 0x18
  4284  0038                     	ds	2
  4285  003A                     vfpfcnvrt@cp:
  4286                           
  4287                           ; 2 bytes @ 0x1A
  4288  003A                     	ds	2
  4289  003C                     vfpfcnvrt@fp:
  4290  003C                     map@out_max:	
  4291                           ; 1 bytes @ 0x1C
  4292                           
  4293                           
  4294                           ; 4 bytes @ 0x1C
  4295  003C                     	ds	1
  4296  003D                     ?_vfprintf:
  4297  003D                     vfprintf@fmt:	
  4298                           ; 2 bytes @ 0x1D
  4299                           
  4300                           
  4301                           ; 2 bytes @ 0x1D
  4302  003D                     	ds	2
  4303  003F                     vfprintf@ap:
  4304                           
  4305                           ; 1 bytes @ 0x1F
  4306  003F                     	ds	1
  4307  0040                     ??_vfprintf:
  4308  0040                     ??_map:	
  4309                           ; 1 bytes @ 0x20
  4310                           
  4311                           
  4312                           ; 1 bytes @ 0x20
  4313  0040                     	ds	2
  4314  0042                     vfprintf@fp:
  4315                           
  4316                           ; 1 bytes @ 0x22
  4317  0042                     	ds	1
  4318  0043                     vfprintf@cfmt:
  4319                           
  4320                           ; 2 bytes @ 0x23
  4321  0043                     	ds	2
  4322  0045                     ?_printf:
  4323  0045                     printf@fmt:	
  4324                           ; 2 bytes @ 0x25
  4325                           
  4326                           
  4327                           ; 2 bytes @ 0x25
  4328  0045                     	ds	4
  4329  0049                     ??_printf:
  4330                           
  4331                           ; 1 bytes @ 0x29
  4332  0049                     	ds	3
  4333  004C                     printf@ap:
  4334                           
  4335                           ; 1 bytes @ 0x2C
  4336  004C                     	ds	4
  4337  0050                     ?_set_brightness:
  4338  0050                     ?_set_color:	
  4339                           ; 1 bytes @ 0x30
  4340                           
  4341  0050                     set_brightness@brightness:	
  4342                           ; 1 bytes @ 0x30
  4343                           
  4344  0050                     set_color@temperature:	
  4345                           ; 2 bytes @ 0x30
  4346                           
  4347                           
  4348                           ; 2 bytes @ 0x30
  4349  0050                     	ds	2
  4350  0052                     set_brightness@mapped_value:
  4351  0052                     set_color@color:	
  4352                           ; 2 bytes @ 0x32
  4353                           
  4354                           
  4355                           ; 2 bytes @ 0x32
  4356  0052                     	ds	2
  4357  0054                     ??_main:
  4358                           
  4359                           ; 1 bytes @ 0x34
  4360  0054                     	ds	1
  4361  0055                     main@sensor_names:
  4362                           
  4363                           ; 6 bytes @ 0x35
  4364  0055                     	ds	6
  4365  005B                     main@light_value:
  4366                           
  4367                           ; 2 bytes @ 0x3B
  4368  005B                     	ds	2
  4369  005D                     main@temp_value:
  4370                           
  4371                           ; 2 bytes @ 0x3D
  4372  005D                     	ds	2
  4373  005F                     main@i:
  4374                           
  4375                           ; 2 bytes @ 0x3F
  4376  005F                     	ds	2
  4377  0061                     main@names_pointer:
  4378                           
  4379                           ; 1 bytes @ 0x41
  4380  0061                     	ds	1
  4381  0062                     main@sensor_counter:
  4382                           
  4383                           ; 2 bytes @ 0x42
  4384  0062                     	ds	2
  4385                           
  4386                           	psect	maintext
  4387  0708                     __pmaintext:	
  4388 ;;
  4389 ;;Main: autosize = 0, tempsize = 1, incstack = 0, save=0
  4390 ;;
  4391 ;; *************** function _main *****************
  4392 ;; Defined at:
  4393 ;;		line 66 in file "main.c"
  4394 ;; Parameters:    Size  Location     Type
  4395 ;;		None
  4396 ;; Auto vars:     Size  Location     Type
  4397 ;;  temp_value      2   61[BANK0 ] int 
  4398 ;;  light_value     2   59[BANK0 ] int 
  4399 ;;  sensor_names    6   53[BANK0 ] PTR unsigned char [3]
  4400 ;;		 -> STR_6(12), STR_5(6), 
  4401 ;;  sensor_count    2   66[BANK0 ] int 
  4402 ;;  i               2   63[BANK0 ] int 
  4403 ;;  names_pointe    1   65[BANK0 ] PTR PTR unsigned char 
  4404 ;;		 -> main@sensor_names(6), 
  4405 ;; Return value:  Size  Location     Type
  4406 ;;                  1    wreg      void 
  4407 ;; Registers used:
  4408 ;;		wreg, fsr0l, fsr0h, fsr1l, fsr1h, status,2, status,0, pclath, cstack
  4409 ;; Tracked objects:
  4410 ;;		On entry : B1F/0
  4411 ;;		On exit  : 0/0
  4412 ;;		Unchanged: 0/0
  4413 ;; Data sizes:     COMMON   BANK0   BANK1   BANK2   BANK3   BANK4   BANK5   BANK6   BANK7   BANK8   BANK9  BANK10  BANK1
      +1  BANK12
  4414 ;;      Params:         0       0       0       0       0       0       0       0       0       0       0       0       
      +0       0
  4415 ;;      Locals:         0      15       0       0       0       0       0       0       0       0       0       0       
      +0       0
  4416 ;;      Temps:          0       1       0       0       0       0       0       0       0       0       0       0       
      +0       0
  4417 ;;      Totals:         0      16       0       0       0       0       0       0       0       0       0       0       
      +0       0
  4418 ;;Total ram usage:       16 bytes
  4419 ;; Hardware stack levels required when called:    7
  4420 ;; This function calls:
  4421 ;;		_LCDPutStr
  4422 ;;		_LCD_Initialize
  4423 ;;		_SYSTEM_Initialize
  4424 ;;		_initialize_lcd_screen
  4425 ;;		_initialize_led
  4426 ;;		_initialize_light
  4427 ;;		_initialize_temp
  4428 ;;		_open
  4429 ;;		_open@temp_sensor$F633
  4430 ;;		_printf
  4431 ;;		_read
  4432 ;;		_read@temp_sensor$F636
  4433 ;;		_set_brightness
  4434 ;;		_set_color
  4435 ;; This function is called by:
  4436 ;;		Startup code after reset
  4437 ;; This function uses a non-reentrant model
  4438 ;;
  4439                           
  4440                           
  4441                           ;psect for function _main
  4442  0708                     _main:
  4443  0708                     l2110:	
  4444                           ;incstack = 0
  4445                           ; Regs used in _main: [wreg-fsr1h+status,2+status,0+pclath+cstack]
  4446                           
  4447                           
  4448                           ;main.c: 68:   SYSTEM_Initialize();
  4449  0708  3181  2126  3187   	fcall	_SYSTEM_Initialize
  4450                           
  4451                           ;main.c: 69:   LCD_Initialize();
  4452  070B  3182  2262  3187   	fcall	_LCD_Initialize
  4453  070E                     l2112:
  4454                           
  4455                           ;main.c: 71:   char *sensor_names[3] = {};
  4456  070E  3055               	movlw	low main@sensor_names
  4457  070F  0086               	movwf	6
  4458  0710  3000               	movlw	high main@sensor_names
  4459  0711  0087               	movwf	7
  4460  0712  3006               	movlw	6
  4461  0713  0020               	movlb	0	; select bank0
  4462  0714  00D4               	movwf	??_main
  4463  0715  3000               	movlw	0
  4464  0716                     u1170:
  4465  0716  001E               	movwi fsr1++
  4466  0717  0BD4               	decfsz	??_main,f
  4467  0718  2F16               	goto	u1170
  4468  0719                     l2114:
  4469                           
  4470                           ;main.c: 72:   char **names_pointer = sensor_names;
  4471  0719  3055               	movlw	(low (main@sensor_names| 0))& (0+255)
  4472  071A  00D4               	movwf	??_main
  4473  071B  0854               	movf	??_main,w
  4474  071C  00E1               	movwf	main@names_pointer
  4475  071D                     l2116:
  4476                           
  4477                           ;main.c: 73:   int sensor_counter = 0;
  4478  071D  01E2               	clrf	main@sensor_counter
  4479  071E  01E3               	clrf	main@sensor_counter+1
  4480  071F                     l2118:
  4481                           
  4482                           ;main.c: 76:   initialize_light(&light_sensor);
  4483  071F  30D1               	movlw	(low (_light_sensor| 0))& (0+255)
  4484  0720  3181  2183  3187   	fcall	_initialize_light
  4485  0723                     l2120:
  4486                           
  4487                           ;main.c: 77:   initialize_temp(&temp_sensor);
  4488  0723  30CB               	movlw	(low (_temp_sensor| 0))& (0+255)
  4489  0724  3181  219C  3187   	fcall	_initialize_temp
  4490  0727                     l2122:
  4491                           
  4492                           ;main.c: 78:   initialize_lcd_screen(&lcd_screen_var);
  4493  0727  30C5               	movlw	(low (_lcd_screen_var| 0))& (0+255)
  4494  0728  3181  216A  3187   	fcall	_initialize_lcd_screen
  4495  072B                     l2124:
  4496                           
  4497                           ;main.c: 79:   initialize_led(&led_var);
  4498  072B  30D7               	movlw	(low (_led_var| 0))& (0+255)
  4499  072C  3180  20EF  3187   	fcall	_initialize_led
  4500  072F                     l2126:
  4501                           
  4502                           ;main.c: 82:   if (temp_sensor.open())
  4503  072F  3002               	movlw	2
  4504  0730  3ECB               	addlw	(low (_temp_sensor| 0))& (0+255)
  4505  0731  0086               	movwf	6
  4506  0732  0187               	clrf	7
  4507  0733  3F41               	moviw [1]fsr1
  4508  0734  008A               	movwf	10
  4509  0735  3F40               	moviw [0]fsr1
  4510  0736  000A               	callw
  4511  0737  3187               	pagesel	$
  4512  0738  3A00               	xorlw	0
  4513  0739  1903               	skipnz
  4514  073A  2F3C               	goto	u1181
  4515  073B  2F3D               	goto	u1180
  4516  073C                     u1181:
  4517  073C  2F53               	goto	l2134
  4518  073D                     u1180:
  4519  073D                     l2128:
  4520                           
  4521                           ;main.c: 83:   {;main.c: 84:     printf("Temperature sensor is available\r\n");
  4522  073D  3000               	movlw	low (STR_1| (0+32768))
  4523  073E  0020               	movlb	0	; select bank0
  4524  073F  00C5               	movwf	printf@fmt
  4525  0740  3088               	movlw	high (STR_1| (0+32768))
  4526  0741  00C6               	movwf	printf@fmt+1
  4527  0742  3181  2100  3187   	fcall	_printf
  4528  0745                     l2130:
  4529                           
  4530                           ;main.c: 85:     names_pointer[sensor_counter++] = temp_sensor.name;
  4531  0745  0020               	movlb	0	; select bank0
  4532  0746  0861               	movf	main@names_pointer,w
  4533  0747  0086               	movwf	6
  4534  0748  0187               	clrf	7
  4535  0749  0021               	movlb	1	; select bank1
  4536  074A  084B               	movf	_temp_sensor^(0+128),w
  4537  074B  3FC0               	movwi [0]fsr1
  4538  074C  084C               	movf	(_temp_sensor+1)^(0+128),w
  4539  074D  3FC1               	movwi [1]fsr1
  4540  074E                     l2132:
  4541  074E  3001               	movlw	1
  4542  074F  0020               	movlb	0	; select bank0
  4543  0750  07E2               	addwf	main@sensor_counter,f
  4544  0751  3000               	movlw	0
  4545  0752  3DE3               	addwfc	main@sensor_counter+1,f
  4546  0753                     l2134:
  4547                           
  4548                           ;main.c: 88:   if (light_sensor.open())
  4549  0753  3002               	movlw	2
  4550  0754  3ED1               	addlw	(low (_light_sensor| 0))& (0+255)
  4551  0755  0086               	movwf	6
  4552  0756  0187               	clrf	7
  4553  0757  3F41               	moviw [1]fsr1
  4554  0758  008A               	movwf	10
  4555  0759  3F40               	moviw [0]fsr1
  4556  075A  000A               	callw
  4557  075B  3187               	pagesel	$
  4558  075C  3A00               	xorlw	0
  4559  075D  1903               	skipnz
  4560  075E  2F60               	goto	u1191
  4561  075F  2F61               	goto	u1190
  4562  0760                     u1191:
  4563  0760  2F7A               	goto	l2142
  4564  0761                     u1190:
  4565  0761                     l2136:
  4566                           
  4567                           ;main.c: 89:   {;main.c: 90:     printf("Light sensor is available\r\n");
  4568  0761  3022               	movlw	low (STR_2| (0+32768))
  4569  0762  0020               	movlb	0	; select bank0
  4570  0763  00C5               	movwf	printf@fmt
  4571  0764  3088               	movlw	high (STR_2| (0+32768))
  4572  0765  00C6               	movwf	printf@fmt+1
  4573  0766  3181  2100  3187   	fcall	_printf
  4574  0769                     l2138:
  4575                           
  4576                           ;main.c: 91:     names_pointer[sensor_counter++] = light_sensor.name;
  4577  0769  0020               	movlb	0	; select bank0
  4578  076A  3562               	lslf	main@sensor_counter,w
  4579  076B  0761               	addwf	main@names_pointer,w
  4580  076C  00D4               	movwf	??_main
  4581  076D  0854               	movf	??_main,w
  4582  076E  0086               	movwf	6
  4583  076F  0187               	clrf	7
  4584  0770  0021               	movlb	1	; select bank1
  4585  0771  0851               	movf	_light_sensor^(0+128),w
  4586  0772  3FC0               	movwi [0]fsr1
  4587  0773  0852               	movf	(_light_sensor+1)^(0+128),w
  4588  0774  3FC1               	movwi [1]fsr1
  4589  0775                     l2140:
  4590  0775  3001               	movlw	1
  4591  0776  0020               	movlb	0	; select bank0
  4592  0777  07E2               	addwf	main@sensor_counter,f
  4593  0778  3000               	movlw	0
  4594  0779  3DE3               	addwfc	main@sensor_counter+1,f
  4595  077A                     l2142:
  4596                           
  4597                           ;main.c: 95:   int i;;main.c: 96:   for (i = 0; i < sensor_counter; i++)
  4598  077A  0020               	movlb	0	; select bank0
  4599  077B  01DF               	clrf	main@i
  4600  077C  01E0               	clrf	main@i+1
  4601  077D  2F95               	goto	l2148
  4602  077E                     l2144:
  4603                           
  4604                           ;main.c: 97:     printf("%s \r\n", names_pointer[i]);
  4605  077E  306B               	movlw	low (STR_3| (0+32768))
  4606  077F  0020               	movlb	0	; select bank0
  4607  0780  00C5               	movwf	printf@fmt
  4608  0781  3088               	movlw	high (STR_3| (0+32768))
  4609  0782  00C6               	movwf	printf@fmt+1
  4610  0783  355F               	lslf	main@i,w
  4611  0784  0761               	addwf	main@names_pointer,w
  4612  0785  00D4               	movwf	??_main
  4613  0786  0854               	movf	??_main,w
  4614  0787  0086               	movwf	6
  4615  0788  0187               	clrf	7
  4616  0789  3F40               	moviw [0]fsr1
  4617  078A  00C7               	movwf	low ((?_printf| 0+2))
  4618  078B  3F41               	moviw [1]fsr1
  4619  078C  00C8               	movwf	(low ((?_printf| 0+2))+1)
  4620  078D  3181  2100  3187   	fcall	_printf
  4621  0790                     l2146:
  4622  0790  3001               	movlw	1
  4623  0791  0020               	movlb	0	; select bank0
  4624  0792  07DF               	addwf	main@i,f
  4625  0793  3000               	movlw	0
  4626  0794  3DE0               	addwfc	main@i+1,f
  4627  0795                     l2148:
  4628  0795  0860               	movf	main@i+1,w
  4629  0796  3A80               	xorlw	128
  4630  0797  00D4               	movwf	??_main
  4631  0798  0863               	movf	main@sensor_counter+1,w
  4632  0799  3A80               	xorlw	128
  4633  079A  0254               	subwf	??_main,w
  4634  079B  1D03               	skipz
  4635  079C  2F9F               	goto	u1205
  4636  079D  0862               	movf	main@sensor_counter,w
  4637  079E  025F               	subwf	main@i,w
  4638  079F                     u1205:
  4639  079F  1C03               	skipc
  4640  07A0  2FA2               	goto	u1201
  4641  07A1  2FA3               	goto	u1200
  4642  07A2                     u1201:
  4643  07A2  2F7E               	goto	l2144
  4644  07A3                     u1200:
  4645  07A3                     l2150:
  4646                           
  4647                           ;main.c: 107:   LCDPutStr("hola");
  4648  07A3  3071               	movlw	low (STR_4| (0+32768))
  4649  07A4  00F7               	movwf	LCDPutStr@str
  4650  07A5  3088               	movlw	high (STR_4| (0+32768))
  4651  07A6  00F8               	movwf	LCDPutStr@str+1
  4652  07A7  3182  22A6  3187   	fcall	_LCDPutStr
  4653  07AA                     l2152:
  4654                           
  4655                           ;main.c: 109:   {;main.c: 110:     int light_value = light_sensor.read();
  4656  07AA  3004               	movlw	4
  4657  07AB  3ED1               	addlw	(low (_light_sensor| 0))& (0+255)
  4658  07AC  0086               	movwf	6
  4659  07AD  0187               	clrf	7
  4660  07AE  3F41               	moviw [1]fsr1
  4661  07AF  008A               	movwf	10
  4662  07B0  3F40               	moviw [0]fsr1
  4663  07B1  000A               	callw
  4664  07B2  3187               	pagesel	$
  4665  07B3  0875               	movf	?_read@temp_sensor$F636+1,w
  4666  07B4  0020               	movlb	0	; select bank0
  4667  07B5  00DC               	movwf	main@light_value+1
  4668  07B6  0874               	movf	?_read@temp_sensor$F636,w
  4669  07B7  00DB               	movwf	main@light_value
  4670  07B8                     l2154:
  4671                           
  4672                           ;main.c: 111:     int temp_value = temp_sensor.read();
  4673  07B8  3004               	movlw	4
  4674  07B9  3ECB               	addlw	(low (_temp_sensor| 0))& (0+255)
  4675  07BA  0086               	movwf	6
  4676  07BB  0187               	clrf	7
  4677  07BC  3F41               	moviw [1]fsr1
  4678  07BD  008A               	movwf	10
  4679  07BE  3F40               	moviw [0]fsr1
  4680  07BF  000A               	callw
  4681  07C0  3187               	pagesel	$
  4682  07C1  0875               	movf	?_read@temp_sensor$F636+1,w
  4683  07C2  0020               	movlb	0	; select bank0
  4684  07C3  00DE               	movwf	main@temp_value+1
  4685  07C4  0874               	movf	?_read@temp_sensor$F636,w
  4686  07C5  00DD               	movwf	main@temp_value
  4687  07C6                     l2156:
  4688                           
  4689                           ;main.c: 113:     led_var.set_brightness(light_value);
  4690  07C6  085C               	movf	main@light_value+1,w
  4691  07C7  00D1               	movwf	set_brightness@brightness+1
  4692  07C8  085B               	movf	main@light_value,w
  4693  07C9  00D0               	movwf	set_brightness@brightness
  4694  07CA  0021               	movlb	1	; select bank1
  4695  07CB  0858               	movf	(_led_var+1)^(0+128),w
  4696  07CC  008A               	movwf	10
  4697  07CD  0857               	movf	_led_var^(0+128),w
  4698  07CE  000A               	callw
  4699  07CF  3187               	pagesel	$
  4700  07D0                     l2158:
  4701                           
  4702                           ;main.c: 114:     led_var.set_color(temp_value);
  4703  07D0  0020               	movlb	0	; select bank0
  4704  07D1  085E               	movf	main@temp_value+1,w
  4705  07D2  00D1               	movwf	set_color@temperature+1
  4706  07D3  085D               	movf	main@temp_value,w
  4707  07D4  00D0               	movwf	set_color@temperature
  4708  07D5  3002               	movlw	2
  4709  07D6  3ED7               	addlw	(low (_led_var| 0))& (0+255)
  4710  07D7  0086               	movwf	6
  4711  07D8  0187               	clrf	7
  4712  07D9  3F41               	moviw [1]fsr1
  4713  07DA  008A               	movwf	10
  4714  07DB  3F40               	moviw [0]fsr1
  4715  07DC  000A               	callw
  4716  07DD  3187               	pagesel	$
  4717  07DE  2FAA               	goto	l2152
  4718  07DF  3180  2802         	ljmp	start
  4719  07E1                     __end_of_main:
  4720                           
  4721                           	psect	text1
  4722  047E                     __ptext1:	
  4723 ;; *************** function _set_color *****************
  4724 ;; Defined at:
  4725 ;;		line 80 in file "led_adapter.c"
  4726 ;; Parameters:    Size  Location     Type
  4727 ;;  temperature     2   48[BANK0 ] int 
  4728 ;; Auto vars:     Size  Location     Type
  4729 ;;  color           2   50[BANK0 ] int 
  4730 ;; Return value:  Size  Location     Type
  4731 ;;                  1    wreg      void 
  4732 ;; Registers used:
  4733 ;;		wreg, status,2, status,0, pclath, cstack
  4734 ;; Tracked objects:
  4735 ;;		On entry : 0/0
  4736 ;;		On exit  : 0/0
  4737 ;;		Unchanged: 0/0
  4738 ;; Data sizes:     COMMON   BANK0   BANK1   BANK2   BANK3   BANK4   BANK5   BANK6   BANK7   BANK8   BANK9  BANK10  BANK1
      +1  BANK12
  4739 ;;      Params:         0       2       0       0       0       0       0       0       0       0       0       0       
      +0       0
  4740 ;;      Locals:         0       2       0       0       0       0       0       0       0       0       0       0       
      +0       0
  4741 ;;      Temps:          1       0       0       0       0       0       0       0       0       0       0       0       
      +0       0
  4742 ;;      Totals:         1       4       0       0       0       0       0       0       0       0       0       0       
      +0       0
  4743 ;;Total ram usage:        5 bytes
  4744 ;; Hardware stack levels used:    1
  4745 ;; Hardware stack levels required when called:    2
  4746 ;; This function calls:
  4747 ;;		_map
  4748 ;;		_turn_blue
  4749 ;;		_turn_green
  4750 ;;		_turn_red
  4751 ;; This function is called by:
  4752 ;;		_initialize_led
  4753 ;;		_main
  4754 ;; This function uses a non-reentrant model
  4755 ;;
  4756                           
  4757                           
  4758                           ;psect for function _set_color
  4759  047E                     _set_color:
  4760  047E                     l2086:	
  4761                           ;incstack = 0
  4762                           ; Regs used in _set_color: [wreg+status,2+status,0+pclath+cstack]
  4763                           
  4764                           
  4765                           ;led_adapter.c: 80: static void set_color(int temperature);led_adapter.c: 81: {;led_adap
      +                          ter.c: 83:   int color = (int)map(temperature, 19, 358, 0, 60);
  4766  047E  0020               	movlb	0	; select bank0
  4767  047F  0851               	movf	set_color@temperature+1,w
  4768  0480  00AF               	movwf	map@x+1
  4769  0481  0850               	movf	set_color@temperature,w
  4770  0482  00AE               	movwf	map@x
  4771  0483  3000               	movlw	0
  4772  0484  00B3               	movwf	map@in_min+3
  4773  0485  3000               	movlw	0
  4774  0486  00B2               	movwf	map@in_min+2
  4775  0487  3000               	movlw	0
  4776  0488  00B1               	movwf	map@in_min+1
  4777  0489  3013               	movlw	19
  4778  048A  00B0               	movwf	map@in_min
  4779  048B  3000               	movlw	0
  4780  048C  00B7               	movwf	map@in_max+3
  4781  048D  3000               	movlw	0
  4782  048E  00B6               	movwf	map@in_max+2
  4783  048F  3001               	movlw	1
  4784  0490  00B5               	movwf	map@in_max+1
  4785  0491  3066               	movlw	102
  4786  0492  00B4               	movwf	map@in_max
  4787  0493  3000               	movlw	0
  4788  0494  00BB               	movwf	map@out_min+3
  4789  0495  3000               	movlw	0
  4790  0496  00BA               	movwf	map@out_min+2
  4791  0497  3000               	movlw	0
  4792  0498  00B9               	movwf	map@out_min+1
  4793  0499  3000               	movlw	0
  4794  049A  00B8               	movwf	map@out_min
  4795  049B  3000               	movlw	0
  4796  049C  00BF               	movwf	map@out_max+3
  4797  049D  3000               	movlw	0
  4798  049E  00BE               	movwf	map@out_max+2
  4799  049F  3000               	movlw	0
  4800  04A0  00BD               	movwf	map@out_max+1
  4801  04A1  303C               	movlw	60
  4802  04A2  00BC               	movwf	map@out_max
  4803  04A3  3183  23AD  3184   	fcall	_map
  4804  04A6  0020               	movlb	0	; select bank0
  4805  04A7  082F               	movf	?_map+1,w
  4806  04A8  00D3               	movwf	set_color@color+1
  4807  04A9  082E               	movf	?_map,w
  4808  04AA  00D2               	movwf	set_color@color
  4809  04AB                     l2088:
  4810                           
  4811                           ;led_adapter.c: 86:   if (color >= 0 && color < 20)
  4812  04AB  1BD3               	btfsc	set_color@color+1,7
  4813  04AC  2CAE               	goto	u1111
  4814  04AD  2CAF               	goto	u1110
  4815  04AE                     u1111:
  4816  04AE  2CC0               	goto	l2094
  4817  04AF                     u1110:
  4818  04AF                     l2090:
  4819  04AF  0853               	movf	set_color@color+1,w
  4820  04B0  3A80               	xorlw	128
  4821  04B1  00FD               	movwf	??_set_color
  4822  04B2  3080               	movlw	128
  4823  04B3  027D               	subwf	??_set_color,w
  4824  04B4  1D03               	skipz
  4825  04B5  2CB8               	goto	u1125
  4826  04B6  3014               	movlw	20
  4827  04B7  0252               	subwf	set_color@color,w
  4828  04B8                     u1125:
  4829  04B8  1803               	skipnc
  4830  04B9  2CBB               	goto	u1121
  4831  04BA  2CBC               	goto	u1120
  4832  04BB                     u1121:
  4833  04BB  2CC0               	goto	l2094
  4834  04BC                     u1120:
  4835  04BC                     l2092:
  4836                           
  4837                           ;led_adapter.c: 87:   {;led_adapter.c: 88:     turn_blue();
  4838  04BC  3180  2088  3184   	fcall	_turn_blue
  4839                           
  4840                           ;led_adapter.c: 89:   }
  4841  04BF  2CFF               	goto	l417
  4842  04C0                     l2094:
  4843  04C0  0020               	movlb	0	; select bank0
  4844  04C1  0853               	movf	set_color@color+1,w
  4845  04C2  3A80               	xorlw	128
  4846  04C3  00FD               	movwf	??_set_color
  4847  04C4  3080               	movlw	128
  4848  04C5  027D               	subwf	??_set_color,w
  4849  04C6  1D03               	skipz
  4850  04C7  2CCA               	goto	u1135
  4851  04C8  3014               	movlw	20
  4852  04C9  0252               	subwf	set_color@color,w
  4853  04CA                     u1135:
  4854  04CA  1C03               	skipc
  4855  04CB  2CCD               	goto	u1131
  4856  04CC  2CCE               	goto	u1130
  4857  04CD                     u1131:
  4858  04CD  2CE0               	goto	l2100
  4859  04CE                     u1130:
  4860  04CE                     l2096:
  4861  04CE  0020               	movlb	0	; select bank0
  4862  04CF  0853               	movf	set_color@color+1,w
  4863  04D0  3A80               	xorlw	128
  4864  04D1  00FD               	movwf	??_set_color
  4865  04D2  3080               	movlw	128
  4866  04D3  027D               	subwf	??_set_color,w
  4867  04D4  1D03               	skipz
  4868  04D5  2CD8               	goto	u1145
  4869  04D6  3028               	movlw	40
  4870  04D7  0252               	subwf	set_color@color,w
  4871  04D8                     u1145:
  4872  04D8  1803               	skipnc
  4873  04D9  2CDB               	goto	u1141
  4874  04DA  2CDC               	goto	u1140
  4875  04DB                     u1141:
  4876  04DB  2CE0               	goto	l2100
  4877  04DC                     u1140:
  4878  04DC                     l2098:
  4879                           
  4880                           ;led_adapter.c: 91:   {;led_adapter.c: 92:     turn_green();
  4881  04DC  3180  20A7  3184   	fcall	_turn_green
  4882                           
  4883                           ;led_adapter.c: 93:   }
  4884  04DF  2CFF               	goto	l417
  4885  04E0                     l2100:
  4886  04E0  0020               	movlb	0	; select bank0
  4887  04E1  0853               	movf	set_color@color+1,w
  4888  04E2  3A80               	xorlw	128
  4889  04E3  00FD               	movwf	??_set_color
  4890  04E4  3080               	movlw	128
  4891  04E5  027D               	subwf	??_set_color,w
  4892  04E6  1D03               	skipz
  4893  04E7  2CEA               	goto	u1155
  4894  04E8  3028               	movlw	40
  4895  04E9  0252               	subwf	set_color@color,w
  4896  04EA                     u1155:
  4897  04EA  1C03               	skipc
  4898  04EB  2CED               	goto	u1151
  4899  04EC  2CEE               	goto	u1150
  4900  04ED                     u1151:
  4901  04ED  2CFF               	goto	l417
  4902  04EE                     u1150:
  4903  04EE                     l2102:
  4904  04EE  0020               	movlb	0	; select bank0
  4905  04EF  0853               	movf	set_color@color+1,w
  4906  04F0  3A80               	xorlw	128
  4907  04F1  00FD               	movwf	??_set_color
  4908  04F2  3080               	movlw	128
  4909  04F3  027D               	subwf	??_set_color,w
  4910  04F4  1D03               	skipz
  4911  04F5  2CF8               	goto	u1165
  4912  04F6  303D               	movlw	61
  4913  04F7  0252               	subwf	set_color@color,w
  4914  04F8                     u1165:
  4915  04F8  1803               	skipnc
  4916  04F9  2CFB               	goto	u1161
  4917  04FA  2CFC               	goto	u1160
  4918  04FB                     u1161:
  4919  04FB  2CFF               	goto	l417
  4920  04FC                     u1160:
  4921  04FC                     l2104:
  4922                           
  4923                           ;led_adapter.c: 95:   {;led_adapter.c: 96:     turn_red();
  4924  04FC  3180  208E  3184   	fcall	_turn_red
  4925  04FF                     l417:
  4926  04FF  0008               	return
  4927  0500                     __end_of_set_color:
  4928                           
  4929                           	psect	text2
  4930  008E                     __ptext2:	
  4931 ;; *************** function _turn_red *****************
  4932 ;; Defined at:
  4933 ;;		line 60 in file "led_adapter.c"
  4934 ;; Parameters:    Size  Location     Type
  4935 ;;		None
  4936 ;; Auto vars:     Size  Location     Type
  4937 ;;		None
  4938 ;; Return value:  Size  Location     Type
  4939 ;;                  1    wreg      void 
  4940 ;; Registers used:
  4941 ;;		wreg, status,2, status,0, pclath, cstack
  4942 ;; Tracked objects:
  4943 ;;		On entry : 0/0
  4944 ;;		On exit  : 0/0
  4945 ;;		Unchanged: 0/0
  4946 ;; Data sizes:     COMMON   BANK0   BANK1   BANK2   BANK3   BANK4   BANK5   BANK6   BANK7   BANK8   BANK9  BANK10  BANK1
      +1  BANK12
  4947 ;;      Params:         0       0       0       0       0       0       0       0       0       0       0       0       
      +0       0
  4948 ;;      Locals:         0       0       0       0       0       0       0       0       0       0       0       0       
      +0       0
  4949 ;;      Temps:          0       0       0       0       0       0       0       0       0       0       0       0       
      +0       0
  4950 ;;      Totals:         0       0       0       0       0       0       0       0       0       0       0       0       
      +0       0
  4951 ;;Total ram usage:        0 bytes
  4952 ;; Hardware stack levels used:    1
  4953 ;; Hardware stack levels required when called:    1
  4954 ;; This function calls:
  4955 ;;		_turn_selectors
  4956 ;; This function is called by:
  4957 ;;		_set_color
  4958 ;; This function uses a non-reentrant model
  4959 ;;
  4960                           
  4961                           
  4962                           ;psect for function _turn_red
  4963  008E                     _turn_red:
  4964  008E                     l1972:	
  4965                           ;incstack = 0
  4966                           ; Regs used in _turn_red: [wreg+status,2+status,0+pclath+cstack]
  4967                           
  4968                           
  4969                           ;led_adapter.c: 62:   turn_selectors(0, 0);
  4970  008E  01F0               	clrf	turn_selectors@selector2
  4971  008F  3000               	movlw	0
  4972  0090  3181  2112  3180   	fcall	_turn_selectors
  4973  0093                     l406:
  4974  0093  0008               	return
  4975  0094                     __end_of_turn_red:
  4976                           
  4977                           	psect	text3
  4978  00A7                     __ptext3:	
  4979 ;; *************** function _turn_green *****************
  4980 ;; Defined at:
  4981 ;;		line 55 in file "led_adapter.c"
  4982 ;; Parameters:    Size  Location     Type
  4983 ;;		None
  4984 ;; Auto vars:     Size  Location     Type
  4985 ;;		None
  4986 ;; Return value:  Size  Location     Type
  4987 ;;                  1    wreg      void 
  4988 ;; Registers used:
  4989 ;;		wreg, status,2, status,0, pclath, cstack
  4990 ;; Tracked objects:
  4991 ;;		On entry : 0/0
  4992 ;;		On exit  : 0/0
  4993 ;;		Unchanged: 0/0
  4994 ;; Data sizes:     COMMON   BANK0   BANK1   BANK2   BANK3   BANK4   BANK5   BANK6   BANK7   BANK8   BANK9  BANK10  BANK1
      +1  BANK12
  4995 ;;      Params:         0       0       0       0       0       0       0       0       0       0       0       0       
      +0       0
  4996 ;;      Locals:         0       0       0       0       0       0       0       0       0       0       0       0       
      +0       0
  4997 ;;      Temps:          0       0       0       0       0       0       0       0       0       0       0       0       
      +0       0
  4998 ;;      Totals:         0       0       0       0       0       0       0       0       0       0       0       0       
      +0       0
  4999 ;;Total ram usage:        0 bytes
  5000 ;; Hardware stack levels used:    1
  5001 ;; Hardware stack levels required when called:    1
  5002 ;; This function calls:
  5003 ;;		_turn_selectors
  5004 ;; This function is called by:
  5005 ;;		_set_color
  5006 ;; This function uses a non-reentrant model
  5007 ;;
  5008                           
  5009                           
  5010                           ;psect for function _turn_green
  5011  00A7                     _turn_green:
  5012  00A7                     l1970:	
  5013                           ;incstack = 0
  5014                           ; Regs used in _turn_green: [wreg+status,2+status,0+pclath+cstack]
  5015                           
  5016                           
  5017                           ;led_adapter.c: 57:   turn_selectors(0, 1);
  5018  00A7  01F0               	clrf	turn_selectors@selector2
  5019  00A8  0AF0               	incf	turn_selectors@selector2,f
  5020  00A9  3000               	movlw	0
  5021  00AA  3181  2112  3180   	fcall	_turn_selectors
  5022  00AD                     l403:
  5023  00AD  0008               	return
  5024  00AE                     __end_of_turn_green:
  5025                           
  5026                           	psect	text4
  5027  0088                     __ptext4:	
  5028 ;; *************** function _turn_blue *****************
  5029 ;; Defined at:
  5030 ;;		line 50 in file "led_adapter.c"
  5031 ;; Parameters:    Size  Location     Type
  5032 ;;		None
  5033 ;; Auto vars:     Size  Location     Type
  5034 ;;		None
  5035 ;; Return value:  Size  Location     Type
  5036 ;;                  1    wreg      void 
  5037 ;; Registers used:
  5038 ;;		wreg, status,2, status,0, pclath, cstack
  5039 ;; Tracked objects:
  5040 ;;		On entry : 0/0
  5041 ;;		On exit  : 0/0
  5042 ;;		Unchanged: 0/0
  5043 ;; Data sizes:     COMMON   BANK0   BANK1   BANK2   BANK3   BANK4   BANK5   BANK6   BANK7   BANK8   BANK9  BANK10  BANK1
      +1  BANK12
  5044 ;;      Params:         0       0       0       0       0       0       0       0       0       0       0       0       
      +0       0
  5045 ;;      Locals:         0       0       0       0       0       0       0       0       0       0       0       0       
      +0       0
  5046 ;;      Temps:          0       0       0       0       0       0       0       0       0       0       0       0       
      +0       0
  5047 ;;      Totals:         0       0       0       0       0       0       0       0       0       0       0       0       
      +0       0
  5048 ;;Total ram usage:        0 bytes
  5049 ;; Hardware stack levels used:    1
  5050 ;; Hardware stack levels required when called:    1
  5051 ;; This function calls:
  5052 ;;		_turn_selectors
  5053 ;; This function is called by:
  5054 ;;		_set_color
  5055 ;; This function uses a non-reentrant model
  5056 ;;
  5057                           
  5058                           
  5059                           ;psect for function _turn_blue
  5060  0088                     _turn_blue:
  5061  0088                     l1968:	
  5062                           ;incstack = 0
  5063                           ; Regs used in _turn_blue: [wreg+status,2+status,0+pclath+cstack]
  5064                           
  5065                           
  5066                           ;led_adapter.c: 52:   turn_selectors(1, 0);
  5067  0088  01F0               	clrf	turn_selectors@selector2
  5068  0089  3001               	movlw	1
  5069  008A  3181  2112  3180   	fcall	_turn_selectors
  5070  008D                     l400:
  5071  008D  0008               	return
  5072  008E                     __end_of_turn_blue:
  5073                           
  5074                           	psect	text5
  5075  0112                     __ptext5:	
  5076 ;; *************** function _turn_selectors *****************
  5077 ;; Defined at:
  5078 ;;		line 29 in file "led_adapter.c"
  5079 ;; Parameters:    Size  Location     Type
  5080 ;;  selector1       1    wreg     _Bool 
  5081 ;;  selector2       1    0[COMMON] _Bool 
  5082 ;; Auto vars:     Size  Location     Type
  5083 ;;  selector1       1    1[COMMON] _Bool 
  5084 ;; Return value:  Size  Location     Type
  5085 ;;                  1    wreg      void 
  5086 ;; Registers used:
  5087 ;;		wreg, status,2, status,0
  5088 ;; Tracked objects:
  5089 ;;		On entry : 0/0
  5090 ;;		On exit  : 0/0
  5091 ;;		Unchanged: 0/0
  5092 ;; Data sizes:     COMMON   BANK0   BANK1   BANK2   BANK3   BANK4   BANK5   BANK6   BANK7   BANK8   BANK9  BANK10  BANK1
      +1  BANK12
  5093 ;;      Params:         1       0       0       0       0       0       0       0       0       0       0       0       
      +0       0
  5094 ;;      Locals:         1       0       0       0       0       0       0       0       0       0       0       0       
      +0       0
  5095 ;;      Temps:          0       0       0       0       0       0       0       0       0       0       0       0       
      +0       0
  5096 ;;      Totals:         2       0       0       0       0       0       0       0       0       0       0       0       
      +0       0
  5097 ;;Total ram usage:        2 bytes
  5098 ;; Hardware stack levels used:    1
  5099 ;; This function calls:
  5100 ;;		Nothing
  5101 ;; This function is called by:
  5102 ;;		_turn_blue
  5103 ;;		_turn_green
  5104 ;;		_turn_red
  5105 ;; This function uses a non-reentrant model
  5106 ;;
  5107                           
  5108                           
  5109                           ;psect for function _turn_selectors
  5110  0112                     _turn_selectors:
  5111                           
  5112                           ;incstack = 0
  5113                           ; Regs used in _turn_selectors: [wreg+status,2+status,0]
  5114                           ;turn_selectors@selector1 stored from wreg
  5115  0112  00F1               	movwf	turn_selectors@selector1
  5116  0113                     l1744:
  5117                           
  5118                           ;led_adapter.c: 29: static void turn_selectors(_Bool selector1, _Bool selector2);led_ada
      +                          pter.c: 30: {;led_adapter.c: 31:   if (selector1)
  5119  0113  0871               	movf	turn_selectors@selector1,w
  5120  0114  1903               	btfsc	3,2
  5121  0115  2917               	goto	u791
  5122  0116  2918               	goto	u790
  5123  0117                     u791:
  5124  0117  291B               	goto	l389
  5125  0118                     u790:
  5126  0118                     l386:	
  5127                           ;led_adapter.c: 32:   {;led_adapter.c: 33:     do { LATBbits.LATB1 = 1; } while(0);
  5128                           
  5129  0118  0022               	movlb	2	; select bank2
  5130  0119  148D               	bsf	13,1	;volatile
  5131  011A  291D               	goto	l1746
  5132  011B                     l389:	
  5133                           ;led_adapter.c: 36:   {;led_adapter.c: 37:     do { LATBbits.LATB1 = 0; } while(0);
  5134                           
  5135  011B  0022               	movlb	2	; select bank2
  5136  011C  108D               	bcf	13,1	;volatile
  5137  011D                     l1746:
  5138                           
  5139                           ;led_adapter.c: 40:   if (selector2)
  5140  011D  0870               	movf	turn_selectors@selector2,w
  5141  011E  1903               	btfsc	3,2
  5142  011F  2921               	goto	u801
  5143  0120  2922               	goto	u800
  5144  0121                     u801:
  5145  0121  2924               	goto	l395
  5146  0122                     u800:
  5147  0122                     l392:	
  5148                           ;led_adapter.c: 41:   {;led_adapter.c: 42:     do { LATBbits.LATB2 = 1; } while(0);
  5149                           
  5150  0122  150D               	bsf	13,2	;volatile
  5151  0123  2925               	goto	l397
  5152  0124                     l395:	
  5153                           ;led_adapter.c: 45:   {;led_adapter.c: 46:     do { LATBbits.LATB2 = 0; } while(0);
  5154                           
  5155  0124  110D               	bcf	13,2	;volatile
  5156  0125                     l397:
  5157  0125  0008               	return
  5158  0126                     __end_of_turn_selectors:
  5159                           
  5160                           	psect	text6
  5161  0414                     __ptext6:	
  5162 ;; *************** function _set_brightness *****************
  5163 ;; Defined at:
  5164 ;;		line 65 in file "led_adapter.c"
  5165 ;; Parameters:    Size  Location     Type
  5166 ;;  brightness      2   48[BANK0 ] int 
  5167 ;; Auto vars:     Size  Location     Type
  5168 ;;  mapped_value    2   50[BANK0 ] int 
  5169 ;; Return value:  Size  Location     Type
  5170 ;;                  1    wreg      void 
  5171 ;; Registers used:
  5172 ;;		wreg, status,2, status,0, pclath, cstack
  5173 ;; Tracked objects:
  5174 ;;		On entry : 0/0
  5175 ;;		On exit  : 0/0
  5176 ;;		Unchanged: 0/0
  5177 ;; Data sizes:     COMMON   BANK0   BANK1   BANK2   BANK3   BANK4   BANK5   BANK6   BANK7   BANK8   BANK9  BANK10  BANK1
      +1  BANK12
  5178 ;;      Params:         0       2       0       0       0       0       0       0       0       0       0       0       
      +0       0
  5179 ;;      Locals:         0       2       0       0       0       0       0       0       0       0       0       0       
      +0       0
  5180 ;;      Temps:          1       0       0       0       0       0       0       0       0       0       0       0       
      +0       0
  5181 ;;      Totals:         1       4       0       0       0       0       0       0       0       0       0       0       
      +0       0
  5182 ;;Total ram usage:        5 bytes
  5183 ;; Hardware stack levels used:    1
  5184 ;; Hardware stack levels required when called:    2
  5185 ;; This function calls:
  5186 ;;		_PWM3_LoadDutyValue
  5187 ;;		_map
  5188 ;; This function is called by:
  5189 ;;		_initialize_led
  5190 ;;		_main
  5191 ;; This function uses a non-reentrant model
  5192 ;;
  5193                           
  5194                           
  5195                           ;psect for function _set_brightness
  5196  0414                     _set_brightness:
  5197  0414                     l2080:	
  5198                           ;incstack = 0
  5199                           ; Regs used in _set_brightness: [wreg+status,2+status,0+pclath+cstack]
  5200                           
  5201                           
  5202                           ;led_adapter.c: 65: static void set_brightness(int brightness);led_adapter.c: 66: {;led_
      +                          adapter.c: 68:   brightness = (int)map(brightness, 10, 1000, 372, 901);
  5203  0414  0020               	movlb	0	; select bank0
  5204  0415  0851               	movf	set_brightness@brightness+1,w
  5205  0416  00AF               	movwf	map@x+1
  5206  0417  0850               	movf	set_brightness@brightness,w
  5207  0418  00AE               	movwf	map@x
  5208  0419  3000               	movlw	0
  5209  041A  00B3               	movwf	map@in_min+3
  5210  041B  3000               	movlw	0
  5211  041C  00B2               	movwf	map@in_min+2
  5212  041D  3000               	movlw	0
  5213  041E  00B1               	movwf	map@in_min+1
  5214  041F  300A               	movlw	10
  5215  0420  00B0               	movwf	map@in_min
  5216  0421  3000               	movlw	0
  5217  0422  00B7               	movwf	map@in_max+3
  5218  0423  3000               	movlw	0
  5219  0424  00B6               	movwf	map@in_max+2
  5220  0425  3003               	movlw	3
  5221  0426  00B5               	movwf	map@in_max+1
  5222  0427  30E8               	movlw	232
  5223  0428  00B4               	movwf	map@in_max
  5224  0429  3000               	movlw	0
  5225  042A  00BB               	movwf	map@out_min+3
  5226  042B  3000               	movlw	0
  5227  042C  00BA               	movwf	map@out_min+2
  5228  042D  3001               	movlw	1
  5229  042E  00B9               	movwf	map@out_min+1
  5230  042F  3074               	movlw	116
  5231  0430  00B8               	movwf	map@out_min
  5232  0431  3000               	movlw	0
  5233  0432  00BF               	movwf	map@out_max+3
  5234  0433  3000               	movlw	0
  5235  0434  00BE               	movwf	map@out_max+2
  5236  0435  3003               	movlw	3
  5237  0436  00BD               	movwf	map@out_max+1
  5238  0437  3085               	movlw	133
  5239  0438  00BC               	movwf	map@out_max
  5240  0439  3183  23AD  3184   	fcall	_map
  5241  043C  0020               	movlb	0	; select bank0
  5242  043D  082F               	movf	?_map+1,w
  5243  043E  00D1               	movwf	set_brightness@brightness+1
  5244  043F  082E               	movf	?_map,w
  5245  0440  00D0               	movwf	set_brightness@brightness
  5246                           
  5247                           ;led_adapter.c: 71:   int mapped_value = (int)map(brightness, 372, 901, 0, 100);
  5248  0441  0851               	movf	set_brightness@brightness+1,w
  5249  0442  00AF               	movwf	map@x+1
  5250  0443  0850               	movf	set_brightness@brightness,w
  5251  0444  00AE               	movwf	map@x
  5252  0445  3000               	movlw	0
  5253  0446  00B3               	movwf	map@in_min+3
  5254  0447  3000               	movlw	0
  5255  0448  00B2               	movwf	map@in_min+2
  5256  0449  3001               	movlw	1
  5257  044A  00B1               	movwf	map@in_min+1
  5258  044B  3074               	movlw	116
  5259  044C  00B0               	movwf	map@in_min
  5260  044D  3000               	movlw	0
  5261  044E  00B7               	movwf	map@in_max+3
  5262  044F  3000               	movlw	0
  5263  0450  00B6               	movwf	map@in_max+2
  5264  0451  3003               	movlw	3
  5265  0452  00B5               	movwf	map@in_max+1
  5266  0453  3085               	movlw	133
  5267  0454  00B4               	movwf	map@in_max
  5268  0455  3000               	movlw	0
  5269  0456  00BB               	movwf	map@out_min+3
  5270  0457  3000               	movlw	0
  5271  0458  00BA               	movwf	map@out_min+2
  5272  0459  3000               	movlw	0
  5273  045A  00B9               	movwf	map@out_min+1
  5274  045B  3000               	movlw	0
  5275  045C  00B8               	movwf	map@out_min
  5276  045D  3000               	movlw	0
  5277  045E  00BF               	movwf	map@out_max+3
  5278  045F  3000               	movlw	0
  5279  0460  00BE               	movwf	map@out_max+2
  5280  0461  3000               	movlw	0
  5281  0462  00BD               	movwf	map@out_max+1
  5282  0463  3064               	movlw	100
  5283  0464  00BC               	movwf	map@out_max
  5284  0465  3183  23AD  3184   	fcall	_map
  5285  0468  0020               	movlb	0	; select bank0
  5286  0469  082F               	movf	?_map+1,w
  5287  046A  00D3               	movwf	set_brightness@mapped_value+1
  5288  046B  082E               	movf	?_map,w
  5289  046C  00D2               	movwf	set_brightness@mapped_value
  5290  046D                     l2082:
  5291                           
  5292                           ;led_adapter.c: 74:   duty_cycle = (uint16_t)(100 - mapped_value);
  5293  046D  3064               	movlw	100
  5294  046E  00FD               	movwf	??_set_brightness
  5295  046F  0852               	movf	set_brightness@mapped_value,w
  5296  0470  027D               	subwf	??_set_brightness,w
  5297  0471  00EC               	movwf	_duty_cycle
  5298  0472  0953               	comf	set_brightness@mapped_value+1,w
  5299  0473  1803               	skipnc
  5300  0474  0A89               	incf	9,f
  5301  0475  00ED               	movwf	_duty_cycle+1
  5302  0476                     l2084:
  5303                           
  5304                           ;led_adapter.c: 77:   PWM3_LoadDutyValue(duty_cycle);
  5305  0476  086D               	movf	_duty_cycle+1,w
  5306  0477  00F1               	movwf	PWM3_LoadDutyValue@dutyValue+1
  5307  0478  086C               	movf	_duty_cycle,w
  5308  0479  00F0               	movwf	PWM3_LoadDutyValue@dutyValue
  5309  047A  3181  213C  3184   	fcall	_PWM3_LoadDutyValue
  5310  047D                     l409:
  5311  047D  0008               	return
  5312  047E                     __end_of_set_brightness:
  5313                           
  5314                           	psect	text7
  5315  03AD                     __ptext7:	
  5316 ;; *************** function _map *****************
  5317 ;; Defined at:
  5318 ;;		line 24 in file "led_adapter.c"
  5319 ;; Parameters:    Size  Location     Type
  5320 ;;  x               2   14[BANK0 ] int 
  5321 ;;  in_min          4   16[BANK0 ] long 
  5322 ;;  in_max          4   20[BANK0 ] long 
  5323 ;;  out_min         4   24[BANK0 ] long 
  5324 ;;  out_max         4   28[BANK0 ] long 
  5325 ;; Auto vars:     Size  Location     Type
  5326 ;;		None
  5327 ;; Return value:  Size  Location     Type
  5328 ;;                  4   14[BANK0 ] long 
  5329 ;; Registers used:
  5330 ;;		wreg, status,2, status,0, pclath, cstack
  5331 ;; Tracked objects:
  5332 ;;		On entry : 0/0
  5333 ;;		On exit  : 0/0
  5334 ;;		Unchanged: 0/0
  5335 ;; Data sizes:     COMMON   BANK0   BANK1   BANK2   BANK3   BANK4   BANK5   BANK6   BANK7   BANK8   BANK9  BANK10  BANK1
      +1  BANK12
  5336 ;;      Params:         0      18       0       0       0       0       0       0       0       0       0       0       
      +0       0
  5337 ;;      Locals:         0       0       0       0       0       0       0       0       0       0       0       0       
      +0       0
  5338 ;;      Temps:          0      16       0       0       0       0       0       0       0       0       0       0       
      +0       0
  5339 ;;      Totals:         0      34       0       0       0       0       0       0       0       0       0       0       
      +0       0
  5340 ;;Total ram usage:       34 bytes
  5341 ;; Hardware stack levels used:    1
  5342 ;; Hardware stack levels required when called:    1
  5343 ;; This function calls:
  5344 ;;		___aldiv
  5345 ;;		___lmul
  5346 ;; This function is called by:
  5347 ;;		_set_brightness
  5348 ;;		_set_color
  5349 ;; This function uses a non-reentrant model
  5350 ;;
  5351                           
  5352                           
  5353                           ;psect for function _map
  5354  03AD                     _map:
  5355  03AD                     l1964:	
  5356                           ;incstack = 0
  5357                           ; Regs used in _map: [wreg+status,2+status,0+pclath+cstack]
  5358                           
  5359                           
  5360                           ;led_adapter.c: 24: static long map(int x, long in_min, long in_max, long out_min, long 
      +                          out_max);led_adapter.c: 25: {;led_adapter.c: 26:   return ((long)x - in_min) * (out_max 
      +                          - out_min) / (in_max - in_min) + out_min;
  5361  03AD  0020               	movlb	0	; select bank0
  5362  03AE  0830               	movf	map@in_min,w
  5363  03AF  0234               	subwf	map@in_max,w
  5364  03B0  00C0               	movwf	??_map
  5365  03B1  0831               	movf	map@in_min+1,w
  5366  03B2  3B35               	subwfb	map@in_max+1,w
  5367  03B3  00C1               	movwf	??_map+1
  5368  03B4  0832               	movf	map@in_min+2,w
  5369  03B5  3B36               	subwfb	map@in_max+2,w
  5370  03B6  00C2               	movwf	??_map+2
  5371  03B7  0833               	movf	map@in_min+3,w
  5372  03B8  3B37               	subwfb	map@in_max+3,w
  5373  03B9  00C3               	movwf	??_map+3
  5374  03BA  0843               	movf	??_map+3,w
  5375  03BB  00A3               	movwf	___aldiv@divisor+3
  5376  03BC  0842               	movf	??_map+2,w
  5377  03BD  00A2               	movwf	___aldiv@divisor+2
  5378  03BE  0841               	movf	??_map+1,w
  5379  03BF  00A1               	movwf	___aldiv@divisor+1
  5380  03C0  0840               	movf	??_map,w
  5381  03C1  00A0               	movwf	___aldiv@divisor
  5382  03C2  082E               	movf	map@x,w
  5383  03C3  00C4               	movwf	??_map+4
  5384  03C4  082F               	movf	map@x+1,w
  5385  03C5  00C5               	movwf	??_map+5
  5386  03C6  3000               	movlw	0
  5387  03C7  1BC5               	btfsc	??_map+5,7
  5388  03C8  30FF               	movlw	255
  5389  03C9  00C6               	movwf	??_map+6
  5390  03CA  00C7               	movwf	??_map+7
  5391  03CB  0830               	movf	map@in_min,w
  5392  03CC  02C4               	subwf	??_map+4,f
  5393  03CD  0831               	movf	map@in_min+1,w
  5394  03CE  3BC5               	subwfb	??_map+5,f
  5395  03CF  0832               	movf	map@in_min+2,w
  5396  03D0  3BC6               	subwfb	??_map+6,f
  5397  03D1  0833               	movf	map@in_min+3,w
  5398  03D2  3BC7               	subwfb	??_map+7,f
  5399  03D3  0847               	movf	??_map+7,w
  5400  03D4  00F3               	movwf	___lmul@multiplier+3
  5401  03D5  0846               	movf	??_map+6,w
  5402  03D6  00F2               	movwf	___lmul@multiplier+2
  5403  03D7  0845               	movf	??_map+5,w
  5404  03D8  00F1               	movwf	___lmul@multiplier+1
  5405  03D9  0844               	movf	??_map+4,w
  5406  03DA  00F0               	movwf	___lmul@multiplier
  5407  03DB  0838               	movf	map@out_min,w
  5408  03DC  023C               	subwf	map@out_max,w
  5409  03DD  00C8               	movwf	??_map+8
  5410  03DE  0839               	movf	map@out_min+1,w
  5411  03DF  3B3D               	subwfb	map@out_max+1,w
  5412  03E0  00C9               	movwf	??_map+9
  5413  03E1  083A               	movf	map@out_min+2,w
  5414  03E2  3B3E               	subwfb	map@out_max+2,w
  5415  03E3  00CA               	movwf	??_map+10
  5416  03E4  083B               	movf	map@out_min+3,w
  5417  03E5  3B3F               	subwfb	map@out_max+3,w
  5418  03E6  00CB               	movwf	??_map+11
  5419  03E7  084B               	movf	??_map+11,w
  5420  03E8  00F7               	movwf	___lmul@multiplicand+3
  5421  03E9  084A               	movf	??_map+10,w
  5422  03EA  00F6               	movwf	___lmul@multiplicand+2
  5423  03EB  0849               	movf	??_map+9,w
  5424  03EC  00F5               	movwf	___lmul@multiplicand+1
  5425  03ED  0848               	movf	??_map+8,w
  5426  03EE  00F4               	movwf	___lmul@multiplicand
  5427  03EF  3182  22F4  3183   	fcall	___lmul
  5428  03F2  0873               	movf	?___lmul+3,w
  5429  03F3  0020               	movlb	0	; select bank0
  5430  03F4  00A7               	movwf	___aldiv@dividend+3
  5431  03F5  0872               	movf	?___lmul+2,w
  5432  03F6  00A6               	movwf	___aldiv@dividend+2
  5433  03F7  0871               	movf	?___lmul+1,w
  5434  03F8  00A5               	movwf	___aldiv@dividend+1
  5435  03F9  0870               	movf	?___lmul,w
  5436  03FA  00A4               	movwf	___aldiv@dividend
  5437  03FB  3185  2500  3183   	fcall	___aldiv
  5438  03FE  0020               	movlb	0	; select bank0
  5439  03FF  0820               	movf	?___aldiv,w
  5440  0400  0738               	addwf	map@out_min,w
  5441  0401  00CC               	movwf	??_map+12
  5442  0402  0821               	movf	?___aldiv+1,w
  5443  0403  3D39               	addwfc	map@out_min+1,w
  5444  0404  00CD               	movwf	??_map+13
  5445  0405  0822               	movf	?___aldiv+2,w
  5446  0406  3D3A               	addwfc	map@out_min+2,w
  5447  0407  00CE               	movwf	??_map+14
  5448  0408  0823               	movf	?___aldiv+3,w
  5449  0409  3D3B               	addwfc	map@out_min+3,w
  5450  040A  00CF               	movwf	??_map+15
  5451  040B  084F               	movf	??_map+15,w
  5452  040C  00B1               	movwf	?_map+3
  5453  040D  084E               	movf	??_map+14,w
  5454  040E  00B0               	movwf	?_map+2
  5455  040F  084D               	movf	??_map+13,w
  5456  0410  00AF               	movwf	?_map+1
  5457  0411  084C               	movf	??_map+12,w
  5458  0412  00AE               	movwf	?_map
  5459  0413                     l382:
  5460  0413  0008               	return
  5461  0414                     __end_of_map:
  5462                           
  5463                           	psect	text8
  5464  02F4                     __ptext8:	
  5465 ;; *************** function ___lmul *****************
  5466 ;; Defined at:
  5467 ;;		line 15 in file "D:\Programas\Microchip\xc8\v2.31\pic\sources\c99\common\Umul32.c"
  5468 ;; Parameters:    Size  Location     Type
  5469 ;;  multiplier      4    0[COMMON] unsigned long 
  5470 ;;  multiplicand    4    4[COMMON] unsigned long 
  5471 ;; Auto vars:     Size  Location     Type
  5472 ;;  product         4    8[COMMON] unsigned long 
  5473 ;; Return value:  Size  Location     Type
  5474 ;;                  4    0[COMMON] unsigned long 
  5475 ;; Registers used:
  5476 ;;		wreg, status,2, status,0
  5477 ;; Tracked objects:
  5478 ;;		On entry : 0/0
  5479 ;;		On exit  : 0/0
  5480 ;;		Unchanged: 0/0
  5481 ;; Data sizes:     COMMON   BANK0   BANK1   BANK2   BANK3   BANK4   BANK5   BANK6   BANK7   BANK8   BANK9  BANK10  BANK1
      +1  BANK12
  5482 ;;      Params:         8       0       0       0       0       0       0       0       0       0       0       0       
      +0       0
  5483 ;;      Locals:         4       0       0       0       0       0       0       0       0       0       0       0       
      +0       0
  5484 ;;      Temps:          0       0       0       0       0       0       0       0       0       0       0       0       
      +0       0
  5485 ;;      Totals:        12       0       0       0       0       0       0       0       0       0       0       0       
      +0       0
  5486 ;;Total ram usage:       12 bytes
  5487 ;; Hardware stack levels used:    1
  5488 ;; This function calls:
  5489 ;;		Nothing
  5490 ;; This function is called by:
  5491 ;;		_map
  5492 ;; This function uses a non-reentrant model
  5493 ;;
  5494                           
  5495                           
  5496                           ;psect for function ___lmul
  5497  02F4                     ___lmul:
  5498  02F4                     l1762:	
  5499                           ;incstack = 0
  5500                           ; Regs used in ___lmul: [wreg+status,2+status,0]
  5501                           
  5502  02F4  3000               	movlw	0
  5503  02F5  00FB               	movwf	___lmul@product+3
  5504  02F6  3000               	movlw	0
  5505  02F7  00FA               	movwf	___lmul@product+2
  5506  02F8  3000               	movlw	0
  5507  02F9  00F9               	movwf	___lmul@product+1
  5508  02FA  3000               	movlw	0
  5509  02FB  00F8               	movwf	___lmul@product
  5510  02FC                     l1764:
  5511  02FC  1C70               	btfss	___lmul@multiplier,0
  5512  02FD  2AFF               	goto	u821
  5513  02FE  2B00               	goto	u820
  5514  02FF                     u821:
  5515  02FF  2B08               	goto	l1768
  5516  0300                     u820:
  5517  0300                     l1766:
  5518  0300  0874               	movf	___lmul@multiplicand,w
  5519  0301  07F8               	addwf	___lmul@product,f
  5520  0302  0875               	movf	___lmul@multiplicand+1,w
  5521  0303  3DF9               	addwfc	___lmul@product+1,f
  5522  0304  0876               	movf	___lmul@multiplicand+2,w
  5523  0305  3DFA               	addwfc	___lmul@product+2,f
  5524  0306  0877               	movf	___lmul@multiplicand+3,w
  5525  0307  3DFB               	addwfc	___lmul@product+3,f
  5526  0308                     l1768:
  5527  0308  3001               	movlw	1
  5528  0309                     u835:
  5529  0309  35F4               	lslf	___lmul@multiplicand,f
  5530  030A  0DF5               	rlf	___lmul@multiplicand+1,f
  5531  030B  0DF6               	rlf	___lmul@multiplicand+2,f
  5532  030C  0DF7               	rlf	___lmul@multiplicand+3,f
  5533  030D  0B89               	decfsz	9,f
  5534  030E  2B09               	goto	u835
  5535  030F                     l1770:
  5536  030F  3001               	movlw	1
  5537  0310                     u845:
  5538  0310  36F3               	lsrf	___lmul@multiplier+3,f
  5539  0311  0CF2               	rrf	___lmul@multiplier+2,f
  5540  0312  0CF1               	rrf	___lmul@multiplier+1,f
  5541  0313  0CF0               	rrf	___lmul@multiplier,f
  5542  0314  0B89               	decfsz	9,f
  5543  0315  2B10               	goto	u845
  5544  0316  0873               	movf	___lmul@multiplier+3,w
  5545  0317  0472               	iorwf	___lmul@multiplier+2,w
  5546  0318  0471               	iorwf	___lmul@multiplier+1,w
  5547  0319  0470               	iorwf	___lmul@multiplier,w
  5548  031A  1D03               	skipz
  5549  031B  2B1D               	goto	u851
  5550  031C  2B1E               	goto	u850
  5551  031D                     u851:
  5552  031D  2AFC               	goto	l1764
  5553  031E                     u850:
  5554  031E                     l1772:
  5555  031E  087B               	movf	___lmul@product+3,w
  5556  031F  00F3               	movwf	?___lmul+3
  5557  0320  087A               	movf	___lmul@product+2,w
  5558  0321  00F2               	movwf	?___lmul+2
  5559  0322  0879               	movf	___lmul@product+1,w
  5560  0323  00F1               	movwf	?___lmul+1
  5561  0324  0878               	movf	___lmul@product,w
  5562  0325  00F0               	movwf	?___lmul
  5563  0326                     l540:
  5564  0326  0008               	return
  5565  0327                     __end_of___lmul:
  5566                           
  5567                           	psect	text9
  5568  0500                     __ptext9:	
  5569 ;; *************** function ___aldiv *****************
  5570 ;; Defined at:
  5571 ;;		line 5 in file "D:\Programas\Microchip\xc8\v2.31\pic\sources\c99\common\aldiv.c"
  5572 ;; Parameters:    Size  Location     Type
  5573 ;;  divisor         4    0[BANK0 ] long 
  5574 ;;  dividend        4    4[BANK0 ] long 
  5575 ;; Auto vars:     Size  Location     Type
  5576 ;;  quotient        4   10[BANK0 ] long 
  5577 ;;  sign            1    9[BANK0 ] unsigned char 
  5578 ;;  counter         1    8[BANK0 ] unsigned char 
  5579 ;; Return value:  Size  Location     Type
  5580 ;;                  4    0[BANK0 ] long 
  5581 ;; Registers used:
  5582 ;;		wreg, status,2, status,0
  5583 ;; Tracked objects:
  5584 ;;		On entry : 0/0
  5585 ;;		On exit  : 0/0
  5586 ;;		Unchanged: 0/0
  5587 ;; Data sizes:     COMMON   BANK0   BANK1   BANK2   BANK3   BANK4   BANK5   BANK6   BANK7   BANK8   BANK9  BANK10  BANK1
      +1  BANK12
  5588 ;;      Params:         0       8       0       0       0       0       0       0       0       0       0       0       
      +0       0
  5589 ;;      Locals:         0       6       0       0       0       0       0       0       0       0       0       0       
      +0       0
  5590 ;;      Temps:          1       0       0       0       0       0       0       0       0       0       0       0       
      +0       0
  5591 ;;      Totals:         1      14       0       0       0       0       0       0       0       0       0       0       
      +0       0
  5592 ;;Total ram usage:       15 bytes
  5593 ;; Hardware stack levels used:    1
  5594 ;; This function calls:
  5595 ;;		Nothing
  5596 ;; This function is called by:
  5597 ;;		_map
  5598 ;; This function uses a non-reentrant model
  5599 ;;
  5600                           
  5601                           
  5602                           ;psect for function ___aldiv
  5603  0500                     ___aldiv:
  5604  0500                     l1776:	
  5605                           ;incstack = 0
  5606                           ; Regs used in ___aldiv: [wreg+status,2+status,0]
  5607                           
  5608  0500  0020               	movlb	0	; select bank0
  5609  0501  01A9               	clrf	___aldiv@sign
  5610  0502                     l1778:
  5611  0502  1FA3               	btfss	___aldiv@divisor+3,7
  5612  0503  2D05               	goto	u861
  5613  0504  2D06               	goto	u860
  5614  0505                     u861:
  5615  0505  2D13               	goto	l591
  5616  0506                     u860:
  5617  0506                     l1780:
  5618  0506  09A0               	comf	___aldiv@divisor,f
  5619  0507  09A1               	comf	___aldiv@divisor+1,f
  5620  0508  09A2               	comf	___aldiv@divisor+2,f
  5621  0509  09A3               	comf	___aldiv@divisor+3,f
  5622  050A  0AA0               	incf	___aldiv@divisor,f
  5623  050B  1903               	skipnz
  5624  050C  0AA1               	incf	___aldiv@divisor+1,f
  5625  050D  1903               	skipnz
  5626  050E  0AA2               	incf	___aldiv@divisor+2,f
  5627  050F  1903               	skipnz
  5628  0510  0AA3               	incf	___aldiv@divisor+3,f
  5629  0511  01A9               	clrf	___aldiv@sign
  5630  0512  0AA9               	incf	___aldiv@sign,f
  5631  0513                     l591:
  5632  0513  1FA7               	btfss	___aldiv@dividend+3,7
  5633  0514  2D16               	goto	u871
  5634  0515  2D17               	goto	u870
  5635  0516                     u871:
  5636  0516  2D26               	goto	l1786
  5637  0517                     u870:
  5638  0517                     l1782:
  5639  0517  09A4               	comf	___aldiv@dividend,f
  5640  0518  09A5               	comf	___aldiv@dividend+1,f
  5641  0519  09A6               	comf	___aldiv@dividend+2,f
  5642  051A  09A7               	comf	___aldiv@dividend+3,f
  5643  051B  0AA4               	incf	___aldiv@dividend,f
  5644  051C  1903               	skipnz
  5645  051D  0AA5               	incf	___aldiv@dividend+1,f
  5646  051E  1903               	skipnz
  5647  051F  0AA6               	incf	___aldiv@dividend+2,f
  5648  0520  1903               	skipnz
  5649  0521  0AA7               	incf	___aldiv@dividend+3,f
  5650  0522                     l1784:
  5651  0522  3001               	movlw	1
  5652  0523  00FC               	movwf	??___aldiv
  5653  0524  087C               	movf	??___aldiv,w
  5654  0525  06A9               	xorwf	___aldiv@sign,f
  5655  0526                     l1786:
  5656  0526  3000               	movlw	0
  5657  0527  00AD               	movwf	___aldiv@quotient+3
  5658  0528  3000               	movlw	0
  5659  0529  00AC               	movwf	___aldiv@quotient+2
  5660  052A  3000               	movlw	0
  5661  052B  00AB               	movwf	___aldiv@quotient+1
  5662  052C  3000               	movlw	0
  5663  052D  00AA               	movwf	___aldiv@quotient
  5664  052E                     l1788:
  5665  052E  0823               	movf	___aldiv@divisor+3,w
  5666  052F  0422               	iorwf	___aldiv@divisor+2,w
  5667  0530  0421               	iorwf	___aldiv@divisor+1,w
  5668  0531  0420               	iorwf	___aldiv@divisor,w
  5669  0532  1903               	skipnz
  5670  0533  2D35               	goto	u881
  5671  0534  2D36               	goto	u880
  5672  0535                     u881:
  5673  0535  2D77               	goto	l1808
  5674  0536                     u880:
  5675  0536                     l1790:
  5676  0536  01A8               	clrf	___aldiv@counter
  5677  0537  0AA8               	incf	___aldiv@counter,f
  5678  0538  2D44               	goto	l1794
  5679  0539                     l1792:
  5680  0539  3001               	movlw	1
  5681  053A                     u895:
  5682  053A  35A0               	lslf	___aldiv@divisor,f
  5683  053B  0DA1               	rlf	___aldiv@divisor+1,f
  5684  053C  0DA2               	rlf	___aldiv@divisor+2,f
  5685  053D  0DA3               	rlf	___aldiv@divisor+3,f
  5686  053E  0B89               	decfsz	9,f
  5687  053F  2D3A               	goto	u895
  5688  0540  3001               	movlw	1
  5689  0541  00FC               	movwf	??___aldiv
  5690  0542  087C               	movf	??___aldiv,w
  5691  0543  07A8               	addwf	___aldiv@counter,f
  5692  0544                     l1794:
  5693  0544  1FA3               	btfss	___aldiv@divisor+3,7
  5694  0545  2D47               	goto	u901
  5695  0546  2D48               	goto	u900
  5696  0547                     u901:
  5697  0547  2D39               	goto	l1792
  5698  0548                     u900:
  5699  0548                     l1796:
  5700  0548  3001               	movlw	1
  5701  0549                     u915:
  5702  0549  35AA               	lslf	___aldiv@quotient,f
  5703  054A  0DAB               	rlf	___aldiv@quotient+1,f
  5704  054B  0DAC               	rlf	___aldiv@quotient+2,f
  5705  054C  0DAD               	rlf	___aldiv@quotient+3,f
  5706  054D  0B89               	decfsz	9,f
  5707  054E  2D49               	goto	u915
  5708  054F                     l1798:
  5709  054F  0823               	movf	___aldiv@divisor+3,w
  5710  0550  0227               	subwf	___aldiv@dividend+3,w
  5711  0551  1D03               	skipz
  5712  0552  2D5D               	goto	u925
  5713  0553  0822               	movf	___aldiv@divisor+2,w
  5714  0554  0226               	subwf	___aldiv@dividend+2,w
  5715  0555  1D03               	skipz
  5716  0556  2D5D               	goto	u925
  5717  0557  0821               	movf	___aldiv@divisor+1,w
  5718  0558  0225               	subwf	___aldiv@dividend+1,w
  5719  0559  1D03               	skipz
  5720  055A  2D5D               	goto	u925
  5721  055B  0820               	movf	___aldiv@divisor,w
  5722  055C  0224               	subwf	___aldiv@dividend,w
  5723  055D                     u925:
  5724  055D  1C03               	skipc
  5725  055E  2D60               	goto	u921
  5726  055F  2D61               	goto	u920
  5727  0560                     u921:
  5728  0560  2D6A               	goto	l1804
  5729  0561                     u920:
  5730  0561                     l1800:
  5731  0561  0820               	movf	___aldiv@divisor,w
  5732  0562  02A4               	subwf	___aldiv@dividend,f
  5733  0563  0821               	movf	___aldiv@divisor+1,w
  5734  0564  3BA5               	subwfb	___aldiv@dividend+1,f
  5735  0565  0822               	movf	___aldiv@divisor+2,w
  5736  0566  3BA6               	subwfb	___aldiv@dividend+2,f
  5737  0567  0823               	movf	___aldiv@divisor+3,w
  5738  0568  3BA7               	subwfb	___aldiv@dividend+3,f
  5739  0569                     l1802:
  5740  0569  142A               	bsf	___aldiv@quotient,0
  5741  056A                     l1804:
  5742  056A  3001               	movlw	1
  5743  056B                     u935:
  5744  056B  36A3               	lsrf	___aldiv@divisor+3,f
  5745  056C  0CA2               	rrf	___aldiv@divisor+2,f
  5746  056D  0CA1               	rrf	___aldiv@divisor+1,f
  5747  056E  0CA0               	rrf	___aldiv@divisor,f
  5748  056F  0B89               	decfsz	9,f
  5749  0570  2D6B               	goto	u935
  5750  0571                     l1806:
  5751  0571  3001               	movlw	1
  5752  0572  02A8               	subwf	___aldiv@counter,f
  5753  0573  1D03               	btfss	3,2
  5754  0574  2D76               	goto	u941
  5755  0575  2D77               	goto	u940
  5756  0576                     u941:
  5757  0576  2D48               	goto	l1796
  5758  0577                     u940:
  5759  0577                     l1808:
  5760  0577  0829               	movf	___aldiv@sign,w
  5761  0578  1903               	btfsc	3,2
  5762  0579  2D7B               	goto	u951
  5763  057A  2D7C               	goto	u950
  5764  057B                     u951:
  5765  057B  2D87               	goto	l1812
  5766  057C                     u950:
  5767  057C                     l1810:
  5768  057C  09AA               	comf	___aldiv@quotient,f
  5769  057D  09AB               	comf	___aldiv@quotient+1,f
  5770  057E  09AC               	comf	___aldiv@quotient+2,f
  5771  057F  09AD               	comf	___aldiv@quotient+3,f
  5772  0580  0AAA               	incf	___aldiv@quotient,f
  5773  0581  1903               	skipnz
  5774  0582  0AAB               	incf	___aldiv@quotient+1,f
  5775  0583  1903               	skipnz
  5776  0584  0AAC               	incf	___aldiv@quotient+2,f
  5777  0585  1903               	skipnz
  5778  0586  0AAD               	incf	___aldiv@quotient+3,f
  5779  0587                     l1812:
  5780  0587  082D               	movf	___aldiv@quotient+3,w
  5781  0588  00A3               	movwf	?___aldiv+3
  5782  0589  082C               	movf	___aldiv@quotient+2,w
  5783  058A  00A2               	movwf	?___aldiv+2
  5784  058B  082B               	movf	___aldiv@quotient+1,w
  5785  058C  00A1               	movwf	?___aldiv+1
  5786  058D  082A               	movf	___aldiv@quotient,w
  5787  058E  00A0               	movwf	?___aldiv
  5788  058F                     l601:
  5789  058F  0008               	return
  5790  0590                     __end_of___aldiv:
  5791                           
  5792                           	psect	text10
  5793  013C                     __ptext10:	
  5794 ;; *************** function _PWM3_LoadDutyValue *****************
  5795 ;; Defined at:
  5796 ;;		line 74 in file "mcc_generated_files/pwm3.c"
  5797 ;; Parameters:    Size  Location     Type
  5798 ;;  dutyValue       2    0[COMMON] unsigned short 
  5799 ;; Auto vars:     Size  Location     Type
  5800 ;;		None
  5801 ;; Return value:  Size  Location     Type
  5802 ;;                  1    wreg      void 
  5803 ;; Registers used:
  5804 ;;		wreg, status,2, status,0
  5805 ;; Tracked objects:
  5806 ;;		On entry : 0/0
  5807 ;;		On exit  : 0/0
  5808 ;;		Unchanged: 0/0
  5809 ;; Data sizes:     COMMON   BANK0   BANK1   BANK2   BANK3   BANK4   BANK5   BANK6   BANK7   BANK8   BANK9  BANK10  BANK1
      +1  BANK12
  5810 ;;      Params:         2       0       0       0       0       0       0       0       0       0       0       0       
      +0       0
  5811 ;;      Locals:         0       0       0       0       0       0       0       0       0       0       0       0       
      +0       0
  5812 ;;      Temps:          2       0       0       0       0       0       0       0       0       0       0       0       
      +0       0
  5813 ;;      Totals:         4       0       0       0       0       0       0       0       0       0       0       0       
      +0       0
  5814 ;;Total ram usage:        4 bytes
  5815 ;; Hardware stack levels used:    1
  5816 ;; This function calls:
  5817 ;;		Nothing
  5818 ;; This function is called by:
  5819 ;;		_set_brightness
  5820 ;; This function uses a non-reentrant model
  5821 ;;
  5822                           
  5823                           
  5824                           ;psect for function _PWM3_LoadDutyValue
  5825  013C                     _PWM3_LoadDutyValue:
  5826  013C                     l1950:	
  5827                           ;incstack = 0
  5828                           ; Regs used in _PWM3_LoadDutyValue: [wreg+status,2+status,0]
  5829                           
  5830                           
  5831                           ;mcc_generated_files/pwm3.c: 74:  void PWM3_LoadDutyValue(uint16_t dutyValue);mcc_genera
      +                          ted_files/pwm3.c: 75:  {;mcc_generated_files/pwm3.c: 77:      PWM3DCH = (dutyValue & 0x0
      +                          3FC)>>2;
  5832  013C  0871               	movf	PWM3_LoadDutyValue@dutyValue+1,w
  5833  013D  00F3               	movwf	??_PWM3_LoadDutyValue+1
  5834  013E  0870               	movf	PWM3_LoadDutyValue@dutyValue,w
  5835  013F  00F2               	movwf	??_PWM3_LoadDutyValue
  5836  0140  36F3               	lsrf	??_PWM3_LoadDutyValue+1,f
  5837  0141  0CF2               	rrf	??_PWM3_LoadDutyValue,f
  5838  0142  36F3               	lsrf	??_PWM3_LoadDutyValue+1,f
  5839  0143  0CF2               	rrf	??_PWM3_LoadDutyValue,f
  5840  0144  0872               	movf	??_PWM3_LoadDutyValue,w
  5841  0145  002C               	movlb	12	; select bank12
  5842  0146  0098               	movwf	24	;volatile
  5843                           
  5844                           ;mcc_generated_files/pwm3.c: 80:      PWM3DCL = (dutyValue & 0x0003)<<6;
  5845  0147  0870               	movf	PWM3_LoadDutyValue@dutyValue,w
  5846  0148  3903               	andlw	3
  5847  0149  00F2               	movwf	??_PWM3_LoadDutyValue
  5848  014A  3005               	movlw	5
  5849  014B                     u995:
  5850  014B  35F2               	lslf	??_PWM3_LoadDutyValue,f
  5851  014C  3EFF               	addlw	-1
  5852  014D  1D03               	skipz
  5853  014E  294B               	goto	u995
  5854  014F  3572               	lslf	??_PWM3_LoadDutyValue,w
  5855  0150  0097               	movwf	23	;volatile
  5856  0151                     l255:
  5857  0151  0008               	return
  5858  0152                     __end_of_PWM3_LoadDutyValue:
  5859                           
  5860                           	psect	text11
  5861  00C7                     __ptext11:	
  5862 ;; *************** function _read *****************
  5863 ;; Defined at:
  5864 ;;		line 27 in file "light_sensor.c"
  5865 ;; Parameters:    Size  Location     Type
  5866 ;;		None
  5867 ;; Auto vars:     Size  Location     Type
  5868 ;;		None
  5869 ;; Return value:  Size  Location     Type
  5870 ;;                  2    4[COMMON] int 
  5871 ;; Registers used:
  5872 ;;		wreg, status,2, status,0, pclath, cstack
  5873 ;; Tracked objects:
  5874 ;;		On entry : 0/0
  5875 ;;		On exit  : 0/0
  5876 ;;		Unchanged: 0/0
  5877 ;; Data sizes:     COMMON   BANK0   BANK1   BANK2   BANK3   BANK4   BANK5   BANK6   BANK7   BANK8   BANK9  BANK10  BANK1
      +1  BANK12
  5878 ;;      Params:         2       0       0       0       0       0       0       0       0       0       0       0       
      +0       0
  5879 ;;      Locals:         0       0       0       0       0       0       0       0       0       0       0       0       
      +0       0
  5880 ;;      Temps:          0       0       0       0       0       0       0       0       0       0       0       0       
      +0       0
  5881 ;;      Totals:         2       0       0       0       0       0       0       0       0       0       0       0       
      +0       0
  5882 ;;Total ram usage:        2 bytes
  5883 ;; Hardware stack levels used:    1
  5884 ;; Hardware stack levels required when called:    1
  5885 ;; This function calls:
  5886 ;;		_ADC_GetConversion
  5887 ;; This function is called by:
  5888 ;;		_initialize_light
  5889 ;;		_main
  5890 ;; This function uses a non-reentrant model
  5891 ;;
  5892                           
  5893                           
  5894                           ;psect for function _read
  5895  00C7                     _read:
  5896  00C7                     l2064:	
  5897                           ;incstack = 0
  5898                           ; Regs used in _read: [wreg+status,2+status,0+pclath+cstack]
  5899                           
  5900                           
  5901                           ;light_sensor.c: 30:   return (int)ADC_GetConversion(SENSOR_LIGHT);
  5902  00C7  3001               	movlw	1
  5903  00C8  3181  2152  3180   	fcall	_ADC_GetConversion
  5904  00CB  0871               	movf	?_ADC_GetConversion+1,w
  5905  00CC  00F5               	movwf	?_read+1
  5906  00CD  0870               	movf	?_ADC_GetConversion,w
  5907  00CE  00F4               	movwf	?_read
  5908  00CF                     l345:
  5909  00CF  0008               	return
  5910  00D0                     __end_of_read:
  5911                           
  5912                           	psect	text12
  5913  00BE                     __ptext12:	
  5914 ;; *************** function _read@temp_sensor$F636 *****************
  5915 ;; Defined at:
  5916 ;;		line 26 in file "temp_sensor.c"
  5917 ;; Parameters:    Size  Location     Type
  5918 ;;		None
  5919 ;; Auto vars:     Size  Location     Type
  5920 ;;		None
  5921 ;; Return value:  Size  Location     Type
  5922 ;;                  2    4[COMMON] int 
  5923 ;; Registers used:
  5924 ;;		wreg, status,2, status,0, pclath, cstack
  5925 ;; Tracked objects:
  5926 ;;		On entry : 0/0
  5927 ;;		On exit  : 0/0
  5928 ;;		Unchanged: 0/0
  5929 ;; Data sizes:     COMMON   BANK0   BANK1   BANK2   BANK3   BANK4   BANK5   BANK6   BANK7   BANK8   BANK9  BANK10  BANK1
      +1  BANK12
  5930 ;;      Params:         2       0       0       0       0       0       0       0       0       0       0       0       
      +0       0
  5931 ;;      Locals:         0       0       0       0       0       0       0       0       0       0       0       0       
      +0       0
  5932 ;;      Temps:          0       0       0       0       0       0       0       0       0       0       0       0       
      +0       0
  5933 ;;      Totals:         2       0       0       0       0       0       0       0       0       0       0       0       
      +0       0
  5934 ;;Total ram usage:        2 bytes
  5935 ;; Hardware stack levels used:    1
  5936 ;; Hardware stack levels required when called:    1
  5937 ;; This function calls:
  5938 ;;		_ADC_GetConversion
  5939 ;; This function is called by:
  5940 ;;		_initialize_temp
  5941 ;;		_main
  5942 ;; This function uses a non-reentrant model
  5943 ;;
  5944                           
  5945                           
  5946                           ;psect for function _read@temp_sensor$F636
  5947  00BE                     _read@temp_sensor$F636:
  5948  00BE                     l2076:	
  5949                           ;incstack = 0
  5950                           ; Regs used in _read@temp_sensor$F636: [wreg+status,2+status,0+pclath+cstack]
  5951                           
  5952                           
  5953                           ;temp_sensor.c: 29:   return (int)ADC_GetConversion(SENSOR_TEMP);
  5954  00BE  3000               	movlw	0
  5955  00BF  3181  2152  3180   	fcall	_ADC_GetConversion
  5956  00C2  0871               	movf	?_ADC_GetConversion+1,w
  5957  00C3  00F5               	movwf	?_read@temp_sensor$F636+1
  5958  00C4  0870               	movf	?_ADC_GetConversion,w
  5959  00C5  00F4               	movwf	?_read@temp_sensor$F636
  5960  00C6                     l356:
  5961  00C6  0008               	return
  5962  00C7                     __end_of_read@temp_sensor$F636:
  5963                           
  5964                           	psect	text13
  5965  0100                     __ptext13:	
  5966 ;; *************** function _printf *****************
  5967 ;; Defined at:
  5968 ;;		line 5 in file "D:\Programas\Microchip\xc8\v2.31\pic\sources\c99\common\printf.c"
  5969 ;; Parameters:    Size  Location     Type
  5970 ;;  fmt             2   37[BANK0 ] PTR const unsigned char 
  5971 ;;		 -> STR_9(9), STR_8(9), STR_7(9), STR_3(6), 
  5972 ;;		 -> STR_2(28), STR_1(34), 
  5973 ;; Auto vars:     Size  Location     Type
  5974 ;;  ret             2    0        int 
  5975 ;;  ap              1   44[BANK0 ] PTR void [1]
  5976 ;;		 -> ?_printf(2), 
  5977 ;; Return value:  Size  Location     Type
  5978 ;;                  2   37[BANK0 ] int 
  5979 ;; Registers used:
  5980 ;;		wreg, fsr0l, fsr0h, fsr1l, fsr1h, status,2, status,0, pclath, cstack
  5981 ;; Tracked objects:
  5982 ;;		On entry : 0/0
  5983 ;;		On exit  : 0/0
  5984 ;;		Unchanged: 0/0
  5985 ;; Data sizes:     COMMON   BANK0   BANK1   BANK2   BANK3   BANK4   BANK5   BANK6   BANK7   BANK8   BANK9  BANK10  BANK1
      +1  BANK12
  5986 ;;      Params:         0       4       0       0       0       0       0       0       0       0       0       0       
      +0       0
  5987 ;;      Locals:         0       3       0       0       0       0       0       0       0       0       0       0       
      +0       0
  5988 ;;      Temps:          0       1       0       0       0       0       0       0       0       0       0       0       
      +0       0
  5989 ;;      Totals:         0       8       0       0       0       0       0       0       0       0       0       0       
      +0       0
  5990 ;;Total ram usage:        8 bytes
  5991 ;; Hardware stack levels used:    1
  5992 ;; Hardware stack levels required when called:    6
  5993 ;; This function calls:
  5994 ;;		_vfprintf
  5995 ;; This function is called by:
  5996 ;;		_main
  5997 ;;		_demo1
  5998 ;;		_demo2
  5999 ;;		_demo3
  6000 ;; This function uses a non-reentrant model
  6001 ;;
  6002                           
  6003                           
  6004                           ;psect for function _printf
  6005  0100                     _printf:
  6006  0100                     l2042:	
  6007                           ;incstack = 0
  6008                           ; Regs used in _printf: [wreg-fsr1h+status,2+status,0+pclath+cstack]
  6009                           
  6010  0100  3047               	movlw	(low ((?_printf| 0+2)))& (0+255)
  6011  0101  0020               	movlb	0	; select bank0
  6012  0102  00C9               	movwf	??_printf
  6013  0103  0849               	movf	??_printf,w
  6014  0104  00CC               	movwf	printf@ap
  6015  0105                     l2044:
  6016  0105  0846               	movf	printf@fmt+1,w
  6017  0106  00BE               	movwf	vfprintf@fmt+1
  6018  0107  0845               	movf	printf@fmt,w
  6019  0108  00BD               	movwf	vfprintf@fmt
  6020  0109  304C               	movlw	(low (printf@ap| 0))& (0+255)
  6021  010A  00C9               	movwf	??_printf
  6022  010B  0849               	movf	??_printf,w
  6023  010C  00BF               	movwf	vfprintf@ap
  6024  010D  3000               	movlw	0
  6025  010E  3182  22CC  3181   	fcall	_vfprintf
  6026  0111                     l989:
  6027  0111  0008               	return
  6028  0112                     __end_of_printf:
  6029                           
  6030                           	psect	text14
  6031  02CC                     __ptext14:	
  6032 ;; *************** function _vfprintf *****************
  6033 ;; Defined at:
  6034 ;;		line 1390 in file "D:\Programas\Microchip\xc8\v2.31\pic\sources\c99\common\doprnt.c"
  6035 ;; Parameters:    Size  Location     Type
  6036 ;;  fp              1    wreg     PTR struct _IO_FILE
  6037 ;;		 -> NULL(0), 
  6038 ;;  fmt             2   29[BANK0 ] PTR const unsigned char 
  6039 ;;		 -> STR_9(9), STR_8(9), STR_7(9), STR_3(6), 
  6040 ;;		 -> STR_2(28), STR_1(34), 
  6041 ;;  ap              1   31[BANK0 ] PTR PTR void 
  6042 ;;		 -> printf@ap(1), 
  6043 ;; Auto vars:     Size  Location     Type
  6044 ;;  fp              1   34[BANK0 ] PTR struct _IO_FILE
  6045 ;;		 -> NULL(0), 
  6046 ;;  cfmt            2   35[BANK0 ] PTR unsigned char 
  6047 ;;		 -> STR_9(9), STR_8(9), STR_7(9), STR_3(6), 
  6048 ;;		 -> STR_2(28), STR_1(34), 
  6049 ;; Return value:  Size  Location     Type
  6050 ;;                  2   29[BANK0 ] int 
  6051 ;; Registers used:
  6052 ;;		wreg, fsr0l, fsr0h, fsr1l, fsr1h, status,2, status,0, pclath, cstack
  6053 ;; Tracked objects:
  6054 ;;		On entry : 0/0
  6055 ;;		On exit  : 0/0
  6056 ;;		Unchanged: 0/0
  6057 ;; Data sizes:     COMMON   BANK0   BANK1   BANK2   BANK3   BANK4   BANK5   BANK6   BANK7   BANK8   BANK9  BANK10  BANK1
      +1  BANK12
  6058 ;;      Params:         0       3       0       0       0       0       0       0       0       0       0       0       
      +0       0
  6059 ;;      Locals:         0       3       0       0       0       0       0       0       0       0       0       0       
      +0       0
  6060 ;;      Temps:          0       2       0       0       0       0       0       0       0       0       0       0       
      +0       0
  6061 ;;      Totals:         0       8       0       0       0       0       0       0       0       0       0       0       
      +0       0
  6062 ;;Total ram usage:        8 bytes
  6063 ;; Hardware stack levels used:    1
  6064 ;; Hardware stack levels required when called:    5
  6065 ;; This function calls:
  6066 ;;		_vfpfcnvrt
  6067 ;; This function is called by:
  6068 ;;		_printf
  6069 ;; This function uses a non-reentrant model
  6070 ;;
  6071                           
  6072                           
  6073                           ;psect for function _vfprintf
  6074  02CC                     _vfprintf:
  6075                           
  6076                           ;incstack = 0
  6077                           ; Regs used in _vfprintf: [wreg-fsr1h+status,2+status,0+pclath+cstack]
  6078                           ;vfprintf@fp stored from wreg
  6079  02CC  0020               	movlb	0	; select bank0
  6080  02CD  00C2               	movwf	vfprintf@fp
  6081  02CE                     l1992:
  6082                           
  6083                           ;D:\Programas\Microchip\xc8\v2.31\pic\sources\c99\common\doprnt.c: 1390: int vfprintf(FI
      +                          LE *fp, const char *fmt, va_list ap);D:\Programas\Microchip\xc8\v2.31\pic\sources\c99\co
      +                          mmon\doprnt.c: 1391: {;D:\Programas\Microchip\xc8\v2.31\pic\sources\c99\common\doprnt.c:
      +                           1393:     char *cfmt;;D:\Programas\Microchip\xc8\v2.31\pic\sources\c99\common\doprnt.c:
      +                           1395:     cfmt = (char *)fmt;
  6084  02CE  083E               	movf	vfprintf@fmt+1,w
  6085  02CF  00C4               	movwf	vfprintf@cfmt+1
  6086  02D0  083D               	movf	vfprintf@fmt,w
  6087  02D1  00C3               	movwf	vfprintf@cfmt
  6088  02D2                     l1994:
  6089                           
  6090                           ;D:\Programas\Microchip\xc8\v2.31\pic\sources\c99\common\doprnt.c: 1396:     nout = 0;
  6091  02D2  01E4               	clrf	_nout
  6092  02D3  01E5               	clrf	_nout+1
  6093                           
  6094                           ;D:\Programas\Microchip\xc8\v2.31\pic\sources\c99\common\doprnt.c: 1397:     while (*cfm
      +                          t) {
  6095  02D4  2AE6               	goto	l1998
  6096  02D5                     l1996:
  6097                           
  6098                           ;D:\Programas\Microchip\xc8\v2.31\pic\sources\c99\common\doprnt.c: 1398:         nout +=
      +                           vfpfcnvrt(fp, &cfmt, ap);
  6099  02D5  3043               	movlw	(low (vfprintf@cfmt| 0))& (0+255)
  6100  02D6  00C0               	movwf	??_vfprintf
  6101  02D7  0840               	movf	??_vfprintf,w
  6102  02D8  00FC               	movwf	vfpfcnvrt@fmt
  6103  02D9  083F               	movf	vfprintf@ap,w
  6104  02DA  00C1               	movwf	??_vfprintf+1
  6105  02DB  0841               	movf	??_vfprintf+1,w
  6106  02DC  00FD               	movwf	vfpfcnvrt@ap
  6107  02DD  0842               	movf	vfprintf@fp,w
  6108  02DE  3185  2590  3182   	fcall	_vfpfcnvrt
  6109  02E1  087C               	movf	?_vfpfcnvrt,w
  6110  02E2  0020               	movlb	0	; select bank0
  6111  02E3  07E4               	addwf	_nout,f
  6112  02E4  087D               	movf	?_vfpfcnvrt+1,w
  6113  02E5  3DE5               	addwfc	_nout+1,f
  6114  02E6                     l1998:
  6115                           
  6116                           ;D:\Programas\Microchip\xc8\v2.31\pic\sources\c99\common\doprnt.c: 1397:     while (*cfm
      +                          t) {
  6117  02E6  0843               	movf	vfprintf@cfmt,w
  6118  02E7  0084               	movwf	4
  6119  02E8  0844               	movf	vfprintf@cfmt+1,w
  6120  02E9  0085               	movwf	5
  6121  02EA  0012               	moviw fsr0++
  6122  02EB  1D03               	btfss	3,2
  6123  02EC  2AEE               	goto	u1031
  6124  02ED  2AEF               	goto	u1030
  6125  02EE                     u1031:
  6126  02EE  2AD5               	goto	l1996
  6127  02EF                     u1030:
  6128  02EF                     l2000:
  6129                           
  6130                           ;D:\Programas\Microchip\xc8\v2.31\pic\sources\c99\common\doprnt.c: 1400:     return nout
      +                          ;
  6131  02EF  0865               	movf	_nout+1,w
  6132  02F0  00BE               	movwf	?_vfprintf+1
  6133  02F1  0864               	movf	_nout,w
  6134  02F2  00BD               	movwf	?_vfprintf
  6135  02F3                     l1054:
  6136  02F3  0008               	return
  6137  02F4                     __end_of_vfprintf:
  6138                           
  6139                           	psect	text15
  6140  0590                     __ptext15:	
  6141 ;; *************** function _vfpfcnvrt *****************
  6142 ;; Defined at:
  6143 ;;		line 692 in file "D:\Programas\Microchip\xc8\v2.31\pic\sources\c99\common\doprnt.c"
  6144 ;; Parameters:    Size  Location     Type
  6145 ;;  fp              1    wreg     PTR struct _IO_FILE
  6146 ;;		 -> NULL(0), 
  6147 ;;  fmt             1   12[COMMON] PTR PTR unsigned char 
  6148 ;;		 -> vfprintf@cfmt(2), 
  6149 ;;  ap              1   13[COMMON] PTR PTR void 
  6150 ;;		 -> printf@ap(1), 
  6151 ;; Auto vars:     Size  Location     Type
  6152 ;;  fp              1   28[BANK0 ] PTR struct _IO_FILE
  6153 ;;		 -> NULL(0), 
  6154 ;;  llu             8    0        unsigned long long 
  6155 ;;  ll              8    0        long long 
  6156 ;;  f               4    0        long long 
  6157 ;;  ct              3    0        unsigned char [3]
  6158 ;;  cp              2   26[BANK0 ] PTR unsigned char 
  6159 ;;		 -> ?_printf(2), STR_6(12), STR_5(6), 
  6160 ;;  vp              2    0        PTR void 
  6161 ;;  i               2    0        int 
  6162 ;;  done            2    0        int 
  6163 ;;  c               1    0        unsigned char 
  6164 ;; Return value:  Size  Location     Type
  6165 ;;                  2   12[COMMON] int 
  6166 ;; Registers used:
  6167 ;;		wreg, fsr0l, fsr0h, fsr1l, fsr1h, status,2, status,0, pclath, cstack
  6168 ;; Tracked objects:
  6169 ;;		On entry : 0/0
  6170 ;;		On exit  : 0/0
  6171 ;;		Unchanged: 0/0
  6172 ;; Data sizes:     COMMON   BANK0   BANK1   BANK2   BANK3   BANK4   BANK5   BANK6   BANK7   BANK8   BANK9  BANK10  BANK1
      +1  BANK12
  6173 ;;      Params:         2       0       0       0       0       0       0       0       0       0       0       0       
      +0       0
  6174 ;;      Locals:         0       3       0       0       0       0       0       0       0       0       0       0       
      +0       0
  6175 ;;      Temps:          0       5       0       0       0       0       0       0       0       0       0       0       
      +0       0
  6176 ;;      Totals:         2       8       0       0       0       0       0       0       0       0       0       0       
      +0       0
  6177 ;;Total ram usage:       10 bytes
  6178 ;; Hardware stack levels used:    1
  6179 ;; Hardware stack levels required when called:    4
  6180 ;; This function calls:
  6181 ;;		_fputc
  6182 ;;		_stoa
  6183 ;; This function is called by:
  6184 ;;		_vfprintf
  6185 ;; This function uses a non-reentrant model
  6186 ;;
  6187                           
  6188                           
  6189                           ;psect for function _vfpfcnvrt
  6190  0590                     _vfpfcnvrt:
  6191                           
  6192                           ;incstack = 0
  6193                           ; Regs used in _vfpfcnvrt: [wreg-fsr1h+status,2+status,0+pclath+cstack]
  6194                           ;vfpfcnvrt@fp stored from wreg
  6195  0590  0020               	movlb	0	; select bank0
  6196  0591  00BC               	movwf	vfpfcnvrt@fp
  6197  0592                     l1816:
  6198                           
  6199                           ;D:\Programas\Microchip\xc8\v2.31\pic\sources\c99\common\doprnt.c: 692: static int vfpfc
      +                          nvrt(FILE *fp, char *fmt[], va_list ap);D:\Programas\Microchip\xc8\v2.31\pic\sources\c99
      +                          \common\doprnt.c: 693: {;D:\Programas\Microchip\xc8\v2.31\pic\sources\c99\common\doprnt.
      +                          c: 694:     char c, *cp, ct[3];;D:\Programas\Microchip\xc8\v2.31\pic\sources\c99\common\
      +                          doprnt.c: 695:     int done, i;;D:\Programas\Microchip\xc8\v2.31\pic\sources\c99\common\
      +                          doprnt.c: 696:     long long ll;;D:\Programas\Microchip\xc8\v2.31\pic\sources\c99\common
      +                          \doprnt.c: 697:     unsigned long long llu;
  6200  0592  087C               	movf	vfpfcnvrt@fmt,w
  6201  0593  0086               	movwf	6
  6202  0594  0187               	clrf	7
  6203  0595  3F40               	moviw [0]fsr1
  6204  0596  00B5               	movwf	??_vfpfcnvrt
  6205  0597  3F41               	moviw [1]fsr1
  6206  0598  00B6               	movwf	??_vfpfcnvrt+1
  6207  0599  0835               	movf	??_vfpfcnvrt,w
  6208  059A  0084               	movwf	4
  6209  059B  0836               	movf	??_vfpfcnvrt+1,w
  6210  059C  0085               	movwf	5
  6211  059D  0012               	moviw fsr0++
  6212  059E  3A25               	xorlw	37
  6213  059F  1D03               	btfss	3,2
  6214  05A0  2DA2               	goto	u961
  6215  05A1  2DA3               	goto	u960
  6216  05A2                     u961:
  6217  05A2  2E19               	goto	l1850
  6218  05A3                     u960:
  6219  05A3                     l1818:
  6220                           
  6221                           ;D:\Programas\Microchip\xc8\v2.31\pic\sources\c99\common\doprnt.c: 703:         ++*fmt;
  6222  05A3  087C               	movf	vfpfcnvrt@fmt,w
  6223  05A4  0086               	movwf	6
  6224  05A5  0187               	clrf	7
  6225  05A6  3001               	movlw	1
  6226  05A7  0781               	addwf	1,f
  6227  05A8  3141               	addfsr 1,1
  6228  05A9  1803               	skipnc
  6229  05AA  0A81               	incf	1,f
  6230  05AB                     l1820:
  6231                           
  6232                           ;D:\Programas\Microchip\xc8\v2.31\pic\sources\c99\common\doprnt.c: 705:         flags = 
      +                          width = 0;
  6233  05AB  01E6               	clrf	_width
  6234  05AC  01E7               	clrf	_width+1
  6235  05AD  01EA               	clrf	_flags
  6236  05AE  01EB               	clrf	_flags+1
  6237  05AF                     l1822:
  6238                           
  6239                           ;D:\Programas\Microchip\xc8\v2.31\pic\sources\c99\common\doprnt.c: 706:         prec = -
      +                          1;
  6240  05AF  30FF               	movlw	255
  6241  05B0  00E8               	movwf	_prec
  6242  05B1  30FF               	movlw	255
  6243  05B2  00E9               	movwf	_prec+1
  6244  05B3                     l1824:
  6245                           
  6246                           ;D:\Programas\Microchip\xc8\v2.31\pic\sources\c99\common\doprnt.c: 1171:         if (*fm
      +                          t[0] == 's') {
  6247  05B3  087C               	movf	vfpfcnvrt@fmt,w
  6248  05B4  0086               	movwf	6
  6249  05B5  0187               	clrf	7
  6250  05B6  3F40               	moviw [0]fsr1
  6251  05B7  00B5               	movwf	??_vfpfcnvrt
  6252  05B8  3F41               	moviw [1]fsr1
  6253  05B9  00B6               	movwf	??_vfpfcnvrt+1
  6254  05BA  0835               	movf	??_vfpfcnvrt,w
  6255  05BB  0084               	movwf	4
  6256  05BC  0836               	movf	??_vfpfcnvrt+1,w
  6257  05BD  0085               	movwf	5
  6258  05BE  0012               	moviw fsr0++
  6259  05BF  3A73               	xorlw	115
  6260  05C0  1D03               	btfss	3,2
  6261  05C1  2DC3               	goto	u971
  6262  05C2  2DC4               	goto	u970
  6263  05C3                     u971:
  6264  05C3  2DE5               	goto	l1834
  6265  05C4                     u970:
  6266  05C4                     l1826:
  6267                           
  6268                           ;D:\Programas\Microchip\xc8\v2.31\pic\sources\c99\common\doprnt.c: 1173:             ++*
      +                          fmt;
  6269  05C4  087C               	movf	vfpfcnvrt@fmt,w
  6270  05C5  0086               	movwf	6
  6271  05C6  0187               	clrf	7
  6272  05C7  3001               	movlw	1
  6273  05C8  0781               	addwf	1,f
  6274  05C9  3141               	addfsr 1,1
  6275  05CA  1803               	skipnc
  6276  05CB  0A81               	incf	1,f
  6277  05CC                     l1828:
  6278                           
  6279                           ;D:\Programas\Microchip\xc8\v2.31\pic\sources\c99\common\doprnt.c: 1174:             cp 
      +                          = (*(char * *)__va_arg(*(char * **)ap, (char *)0));
  6280  05CC  087D               	movf	vfpfcnvrt@ap,w
  6281  05CD  0086               	movwf	6
  6282  05CE  0187               	clrf	7
  6283  05CF  0801               	movf	1,w
  6284  05D0  0084               	movwf	4
  6285  05D1  0185               	clrf	5
  6286  05D2  3002               	movlw	2
  6287  05D3  0781               	addwf	1,f
  6288  05D4  3F00               	moviw [0]fsr0
  6289  05D5  00BA               	movwf	vfpfcnvrt@cp
  6290  05D6  3F01               	moviw [1]fsr0
  6291  05D7  00BB               	movwf	vfpfcnvrt@cp+1
  6292  05D8                     l1830:
  6293                           
  6294                           ;D:\Programas\Microchip\xc8\v2.31\pic\sources\c99\common\doprnt.c: 1176:             ret
      +                          urn stoa(fp, cp);
  6295  05D8  083B               	movf	vfpfcnvrt@cp+1,w
  6296  05D9  00FB               	movwf	stoa@s+1
  6297  05DA  083A               	movf	vfpfcnvrt@cp,w
  6298  05DB  00FA               	movwf	stoa@s
  6299  05DC  083C               	movf	vfpfcnvrt@fp,w
  6300  05DD  3186  263C  3185   	fcall	_stoa
  6301  05E0  087B               	movf	?_stoa+1,w
  6302  05E1  00FD               	movwf	?_vfpfcnvrt+1
  6303  05E2  087A               	movf	?_stoa,w
  6304  05E3  00FC               	movwf	?_vfpfcnvrt
  6305  05E4  2E3B               	goto	l1047
  6306  05E5                     l1834:
  6307                           
  6308                           ;D:\Programas\Microchip\xc8\v2.31\pic\sources\c99\common\doprnt.c: 1372:         if ((*f
      +                          mt)[0] == '%') {
  6309  05E5  087C               	movf	vfpfcnvrt@fmt,w
  6310  05E6  0086               	movwf	6
  6311  05E7  0187               	clrf	7
  6312  05E8  3F40               	moviw [0]fsr1
  6313  05E9  00B5               	movwf	??_vfpfcnvrt
  6314  05EA  3F41               	moviw [1]fsr1
  6315  05EB  00B6               	movwf	??_vfpfcnvrt+1
  6316  05EC  0835               	movf	??_vfpfcnvrt,w
  6317  05ED  0084               	movwf	4
  6318  05EE  0836               	movf	??_vfpfcnvrt+1,w
  6319  05EF  0085               	movwf	5
  6320  05F0  0012               	moviw fsr0++
  6321  05F1  3A25               	xorlw	37
  6322  05F2  1D03               	btfss	3,2
  6323  05F3  2DF5               	goto	u981
  6324  05F4  2DF6               	goto	u980
  6325  05F5                     u981:
  6326  05F5  2E0E               	goto	l1844
  6327  05F6                     u980:
  6328  05F6                     l1836:
  6329                           
  6330                           ;D:\Programas\Microchip\xc8\v2.31\pic\sources\c99\common\doprnt.c: 1373:             ++*
      +                          fmt;
  6331  05F6  087C               	movf	vfpfcnvrt@fmt,w
  6332  05F7  0086               	movwf	6
  6333  05F8  0187               	clrf	7
  6334  05F9  3001               	movlw	1
  6335  05FA  0781               	addwf	1,f
  6336  05FB  3141               	addfsr 1,1
  6337  05FC  1803               	skipnc
  6338  05FD  0A81               	incf	1,f
  6339  05FE                     l1838:
  6340                           
  6341                           ;D:\Programas\Microchip\xc8\v2.31\pic\sources\c99\common\doprnt.c: 1374:             fpu
      +                          tc((int)'%', fp);
  6342  05FE  3025               	movlw	37
  6343  05FF  00F2               	movwf	fputc@c
  6344  0600  3000               	movlw	0
  6345  0601  00F3               	movwf	fputc@c+1
  6346  0602  083C               	movf	vfpfcnvrt@fp,w
  6347  0603  00B5               	movwf	??_vfpfcnvrt
  6348  0604  0835               	movf	??_vfpfcnvrt,w
  6349  0605  00F4               	movwf	fputc@fp
  6350  0606  3183  2327  3185   	fcall	_fputc
  6351  0609                     l1840:
  6352                           
  6353                           ;D:\Programas\Microchip\xc8\v2.31\pic\sources\c99\common\doprnt.c: 1375:             ret
      +                          urn 1;
  6354  0609  3001               	movlw	1
  6355  060A  00FC               	movwf	?_vfpfcnvrt
  6356  060B  3000               	movlw	0
  6357  060C  00FD               	movwf	?_vfpfcnvrt+1
  6358  060D  2E3B               	goto	l1047
  6359  060E                     l1844:
  6360                           
  6361                           ;D:\Programas\Microchip\xc8\v2.31\pic\sources\c99\common\doprnt.c: 1379:         ++*fmt;
  6362  060E  087C               	movf	vfpfcnvrt@fmt,w
  6363  060F  0086               	movwf	6
  6364  0610  0187               	clrf	7
  6365  0611  3001               	movlw	1
  6366  0612  0781               	addwf	1,f
  6367  0613  3141               	addfsr 1,1
  6368  0614  1803               	skipnc
  6369  0615  0A81               	incf	1,f
  6370  0616                     l1846:
  6371                           
  6372                           ;D:\Programas\Microchip\xc8\v2.31\pic\sources\c99\common\doprnt.c: 1380:         return 
      +                          0;
  6373  0616  01FC               	clrf	?_vfpfcnvrt
  6374  0617  01FD               	clrf	?_vfpfcnvrt+1
  6375  0618  2E3B               	goto	l1047
  6376  0619                     l1850:
  6377                           
  6378                           ;D:\Programas\Microchip\xc8\v2.31\pic\sources\c99\common\doprnt.c: 1384:     fputc((int)
      +                          (*fmt)[0], fp);
  6379  0619  087C               	movf	vfpfcnvrt@fmt,w
  6380  061A  0086               	movwf	6
  6381  061B  0187               	clrf	7
  6382  061C  3F40               	moviw [0]fsr1
  6383  061D  00B5               	movwf	??_vfpfcnvrt
  6384  061E  3F41               	moviw [1]fsr1
  6385  061F  00B6               	movwf	??_vfpfcnvrt+1
  6386  0620  0835               	movf	??_vfpfcnvrt,w
  6387  0621  0084               	movwf	4
  6388  0622  0836               	movf	??_vfpfcnvrt+1,w
  6389  0623  0085               	movwf	5
  6390  0624  0800               	movf	0,w	;code access
  6391  0625  00B7               	movwf	??_vfpfcnvrt+2
  6392  0626  01B8               	clrf	??_vfpfcnvrt+3
  6393  0627  0837               	movf	??_vfpfcnvrt+2,w
  6394  0628  00F2               	movwf	fputc@c
  6395  0629  0838               	movf	??_vfpfcnvrt+3,w
  6396  062A  00F3               	movwf	fputc@c+1
  6397  062B  083C               	movf	vfpfcnvrt@fp,w
  6398  062C  00B9               	movwf	??_vfpfcnvrt+4
  6399  062D  0839               	movf	??_vfpfcnvrt+4,w
  6400  062E  00F4               	movwf	fputc@fp
  6401  062F  3183  2327  3185   	fcall	_fputc
  6402  0632                     l1852:
  6403                           
  6404                           ;D:\Programas\Microchip\xc8\v2.31\pic\sources\c99\common\doprnt.c: 1385:     ++*fmt;
  6405  0632  087C               	movf	vfpfcnvrt@fmt,w
  6406  0633  0086               	movwf	6
  6407  0634  0187               	clrf	7
  6408  0635  3001               	movlw	1
  6409  0636  0781               	addwf	1,f
  6410  0637  3141               	addfsr 1,1
  6411  0638  1803               	skipnc
  6412  0639  0A81               	incf	1,f
  6413  063A  2E09               	goto	l1840
  6414  063B                     l1047:
  6415  063B  0008               	return
  6416  063C                     __end_of_vfpfcnvrt:
  6417                           
  6418                           	psect	text16
  6419  063C                     __ptext16:	
  6420 ;; *************** function _stoa *****************
  6421 ;; Defined at:
  6422 ;;		line 568 in file "D:\Programas\Microchip\xc8\v2.31\pic\sources\c99\common\doprnt.c"
  6423 ;; Parameters:    Size  Location     Type
  6424 ;;  fp              1    wreg     PTR struct _IO_FILE
  6425 ;;		 -> NULL(0), 
  6426 ;;  s               2   10[COMMON] PTR unsigned char 
  6427 ;;		 -> ?_printf(2), STR_6(12), STR_5(6), 
  6428 ;; Auto vars:     Size  Location     Type
  6429 ;;  fp              1   16[BANK0 ] PTR struct _IO_FILE
  6430 ;;		 -> NULL(0), 
  6431 ;;  nuls            7    3[BANK0 ] unsigned char [7]
  6432 ;;  l               2   19[BANK0 ] int 
  6433 ;;  p               2   17[BANK0 ] int 
  6434 ;;  cp              2   14[BANK0 ] PTR unsigned char 
  6435 ;;		 -> stoa@nuls(7), ?_printf(2), STR_6(12), STR_5(6), 
  6436 ;;  w               2   12[BANK0 ] int 
  6437 ;;  i               2   10[BANK0 ] int 
  6438 ;; Return value:  Size  Location     Type
  6439 ;;                  2   10[COMMON] int 
  6440 ;; Registers used:
  6441 ;;		wreg, fsr0l, fsr0h, fsr1l, fsr1h, status,2, status,0, pclath, cstack
  6442 ;; Tracked objects:
  6443 ;;		On entry : 0/0
  6444 ;;		On exit  : 0/0
  6445 ;;		Unchanged: 0/0
  6446 ;; Data sizes:     COMMON   BANK0   BANK1   BANK2   BANK3   BANK4   BANK5   BANK6   BANK7   BANK8   BANK9  BANK10  BANK1
      +1  BANK12
  6447 ;;      Params:         2       0       0       0       0       0       0       0       0       0       0       0       
      +0       0
  6448 ;;      Locals:         0      18       0       0       0       0       0       0       0       0       0       0       
      +0       0
  6449 ;;      Temps:          0       3       0       0       0       0       0       0       0       0       0       0       
      +0       0
  6450 ;;      Totals:         2      21       0       0       0       0       0       0       0       0       0       0       
      +0       0
  6451 ;;Total ram usage:       23 bytes
  6452 ;; Hardware stack levels used:    1
  6453 ;; Hardware stack levels required when called:    3
  6454 ;; This function calls:
  6455 ;;		_fputc
  6456 ;;		_strlen
  6457 ;; This function is called by:
  6458 ;;		_vfpfcnvrt
  6459 ;; This function uses a non-reentrant model
  6460 ;;
  6461                           
  6462                           
  6463                           ;psect for function _stoa
  6464  063C                     _stoa:
  6465                           
  6466                           ;incstack = 0
  6467                           ; Regs used in _stoa: [wreg-fsr1h+status,2+status,0+pclath+cstack]
  6468                           ;stoa@fp stored from wreg
  6469  063C  0020               	movlb	0	; select bank0
  6470  063D  00B0               	movwf	stoa@fp
  6471  063E                     l1688:
  6472                           
  6473                           ;D:\Programas\Microchip\xc8\v2.31\pic\sources\c99\common\doprnt.c: 568: static int stoa(
      +                          FILE *fp, char *s);D:\Programas\Microchip\xc8\v2.31\pic\sources\c99\common\doprnt.c: 569
      +                          : {;D:\Programas\Microchip\xc8\v2.31\pic\sources\c99\common\doprnt.c: 570:     char *cp,
      +                           nuls[] = "(null)";
  6474  063E  30DB               	movlw	low stoa@F1133
  6475  063F  0086               	movwf	6
  6476  0640  3000               	movlw	high stoa@F1133
  6477  0641  0087               	movwf	7
  6478  0642  3023               	movlw	low stoa@nuls
  6479  0643  0084               	movwf	4
  6480  0644  3000               	movlw	high stoa@nuls
  6481  0645  0085               	movwf	5
  6482  0646  3007               	movlw	7
  6483  0647  00A0               	movwf	??_stoa
  6484  0648                     u700:
  6485  0648  0016               	moviw fsr1++
  6486  0649  001A               	movwi fsr0++
  6487  064A  0BA0               	decfsz	??_stoa,f
  6488  064B  2E48               	goto	u700
  6489  064C                     l1690:
  6490                           
  6491                           ;D:\Programas\Microchip\xc8\v2.31\pic\sources\c99\common\doprnt.c: 571:     int i, l, p,
      +                           w;;D:\Programas\Microchip\xc8\v2.31\pic\sources\c99\common\doprnt.c: 574:     cp = s;
  6492  064C  087B               	movf	stoa@s+1,w
  6493  064D  00AF               	movwf	stoa@cp+1
  6494  064E  087A               	movf	stoa@s,w
  6495  064F  00AE               	movwf	stoa@cp
  6496  0650                     l1692:
  6497                           
  6498                           ;D:\Programas\Microchip\xc8\v2.31\pic\sources\c99\common\doprnt.c: 575:     if (!cp) {
  6499  0650  082E               	movf	stoa@cp,w
  6500  0651  042F               	iorwf	stoa@cp+1,w
  6501  0652  1D03               	btfss	3,2
  6502  0653  2E55               	goto	u711
  6503  0654  2E56               	goto	u710
  6504  0655                     u711:
  6505  0655  2E5A               	goto	l1696
  6506  0656                     u710:
  6507  0656                     l1694:
  6508                           
  6509                           ;D:\Programas\Microchip\xc8\v2.31\pic\sources\c99\common\doprnt.c: 576:         cp = nul
      +                          s;
  6510  0656  3023               	movlw	low stoa@nuls
  6511  0657  00AE               	movwf	stoa@cp
  6512  0658  3000               	movlw	high stoa@nuls
  6513  0659  00AF               	movwf	stoa@cp+1
  6514  065A                     l1696:
  6515                           
  6516                           ;D:\Programas\Microchip\xc8\v2.31\pic\sources\c99\common\doprnt.c: 580:     l = (int)str
      +                          len(cp);
  6517  065A  082F               	movf	stoa@cp+1,w
  6518  065B  00F1               	movwf	strlen@s+1
  6519  065C  082E               	movf	stoa@cp,w
  6520  065D  00F0               	movwf	strlen@s
  6521  065E  3181  21B5  3186   	fcall	_strlen
  6522  0661  0871               	movf	?_strlen+1,w
  6523  0662  0020               	movlb	0	; select bank0
  6524  0663  00B4               	movwf	stoa@l+1
  6525  0664  0870               	movf	?_strlen,w
  6526  0665  00B3               	movwf	stoa@l
  6527  0666                     l1698:
  6528                           
  6529                           ;D:\Programas\Microchip\xc8\v2.31\pic\sources\c99\common\doprnt.c: 581:     p = prec;
  6530  0666  0869               	movf	_prec+1,w
  6531  0667  00B2               	movwf	stoa@p+1
  6532  0668  0868               	movf	_prec,w
  6533  0669  00B1               	movwf	stoa@p
  6534  066A                     l1700:
  6535                           
  6536                           ;D:\Programas\Microchip\xc8\v2.31\pic\sources\c99\common\doprnt.c: 582:     l = (!(p < 0
      +                          ) && (p < l)) ? p : l;
  6537  066A  1BB2               	btfsc	stoa@p+1,7
  6538  066B  2E6D               	goto	u721
  6539  066C  2E6E               	goto	u720
  6540  066D                     u721:
  6541  066D  2E82               	goto	l1028
  6542  066E                     u720:
  6543  066E                     l1702:
  6544  066E  0832               	movf	stoa@p+1,w
  6545  066F  3A80               	xorlw	128
  6546  0670  00A0               	movwf	??_stoa
  6547  0671  0834               	movf	stoa@l+1,w
  6548  0672  3A80               	xorlw	128
  6549  0673  0220               	subwf	??_stoa,w
  6550  0674  1D03               	skipz
  6551  0675  2E78               	goto	u735
  6552  0676  0833               	movf	stoa@l,w
  6553  0677  0231               	subwf	stoa@p,w
  6554  0678                     u735:
  6555  0678  1C03               	skipc
  6556  0679  2E7B               	goto	u731
  6557  067A  2E7C               	goto	u730
  6558  067B                     u731:
  6559  067B  2E7D               	goto	l1704
  6560  067C                     u730:
  6561  067C  2E82               	goto	l1028
  6562  067D                     l1704:
  6563  067D  0020               	movlb	0	; select bank0
  6564  067E  0832               	movf	stoa@p+1,w
  6565  067F  00B4               	movwf	stoa@l+1
  6566  0680  0831               	movf	stoa@p,w
  6567  0681  00B3               	movwf	stoa@l
  6568  0682                     l1028:
  6569                           
  6570                           ;D:\Programas\Microchip\xc8\v2.31\pic\sources\c99\common\doprnt.c: 583:     p = l;
  6571  0682  0020               	movlb	0	; select bank0
  6572  0683  0834               	movf	stoa@l+1,w
  6573  0684  00B2               	movwf	stoa@p+1
  6574  0685  0833               	movf	stoa@l,w
  6575  0686  00B1               	movwf	stoa@p
  6576                           
  6577                           ;D:\Programas\Microchip\xc8\v2.31\pic\sources\c99\common\doprnt.c: 584:     w = width;
  6578  0687  0867               	movf	_width+1,w
  6579  0688  00AD               	movwf	stoa@w+1
  6580  0689  0866               	movf	_width,w
  6581  068A  00AC               	movwf	stoa@w
  6582  068B                     l1706:
  6583                           
  6584                           ;D:\Programas\Microchip\xc8\v2.31\pic\sources\c99\common\doprnt.c: 587:     if (!(flags 
      +                          & (1 << 0))) {
  6585  068B  186A               	btfsc	_flags,0
  6586  068C  2E8E               	goto	u741
  6587  068D  2E8F               	goto	u740
  6588  068E                     u741:
  6589  068E  2EAF               	goto	l1716
  6590  068F                     u740:
  6591  068F  2EA1               	goto	l1714
  6592  0690                     l1710:
  6593                           
  6594                           ;D:\Programas\Microchip\xc8\v2.31\pic\sources\c99\common\doprnt.c: 589:             fput
      +                          c(' ', fp);
  6595  0690  3020               	movlw	32
  6596  0691  00F2               	movwf	fputc@c
  6597  0692  3000               	movlw	0
  6598  0693  00F3               	movwf	fputc@c+1
  6599  0694  0020               	movlb	0	; select bank0
  6600  0695  0830               	movf	stoa@fp,w
  6601  0696  00A0               	movwf	??_stoa
  6602  0697  0820               	movf	??_stoa,w
  6603  0698  00F4               	movwf	fputc@fp
  6604  0699  3183  2327  3186   	fcall	_fputc
  6605  069C                     l1712:
  6606                           
  6607                           ;D:\Programas\Microchip\xc8\v2.31\pic\sources\c99\common\doprnt.c: 590:             ++l;
  6608  069C  3001               	movlw	1
  6609  069D  0020               	movlb	0	; select bank0
  6610  069E  07B3               	addwf	stoa@l,f
  6611  069F  3000               	movlw	0
  6612  06A0  3DB4               	addwfc	stoa@l+1,f
  6613  06A1                     l1714:
  6614                           
  6615                           ;D:\Programas\Microchip\xc8\v2.31\pic\sources\c99\common\doprnt.c: 588:         while (l
      +                           < w) {
  6616  06A1  0834               	movf	stoa@l+1,w
  6617  06A2  3A80               	xorlw	128
  6618  06A3  00A0               	movwf	??_stoa
  6619  06A4  082D               	movf	stoa@w+1,w
  6620  06A5  3A80               	xorlw	128
  6621  06A6  0220               	subwf	??_stoa,w
  6622  06A7  1D03               	skipz
  6623  06A8  2EAB               	goto	u755
  6624  06A9  082C               	movf	stoa@w,w
  6625  06AA  0233               	subwf	stoa@l,w
  6626  06AB                     u755:
  6627  06AB  1C03               	skipc
  6628  06AC  2EAE               	goto	u751
  6629  06AD  2EAF               	goto	u750
  6630  06AE                     u751:
  6631  06AE  2E90               	goto	l1710
  6632  06AF                     u750:
  6633  06AF                     l1716:
  6634                           
  6635                           ;D:\Programas\Microchip\xc8\v2.31\pic\sources\c99\common\doprnt.c: 595:     i = 0;
  6636  06AF  0020               	movlb	0	; select bank0
  6637  06B0  01AA               	clrf	stoa@i
  6638  06B1  01AB               	clrf	stoa@i+1
  6639                           
  6640                           ;D:\Programas\Microchip\xc8\v2.31\pic\sources\c99\common\doprnt.c: 596:     while (i < p
      +                          ) {
  6641  06B2  2ECF               	goto	l1724
  6642  06B3                     l1718:
  6643                           
  6644                           ;D:\Programas\Microchip\xc8\v2.31\pic\sources\c99\common\doprnt.c: 597:         fputc(*c
      +                          p, fp);
  6645  06B3  0020               	movlb	0	; select bank0
  6646  06B4  082E               	movf	stoa@cp,w
  6647  06B5  0084               	movwf	4
  6648  06B6  082F               	movf	stoa@cp+1,w
  6649  06B7  0085               	movwf	5
  6650  06B8  0800               	movf	0,w	;code access
  6651  06B9  00A0               	movwf	??_stoa
  6652  06BA  01A1               	clrf	??_stoa+1
  6653  06BB  0820               	movf	??_stoa,w
  6654  06BC  00F2               	movwf	fputc@c
  6655  06BD  0821               	movf	??_stoa+1,w
  6656  06BE  00F3               	movwf	fputc@c+1
  6657  06BF  0830               	movf	stoa@fp,w
  6658  06C0  00A2               	movwf	??_stoa+2
  6659  06C1  0822               	movf	??_stoa+2,w
  6660  06C2  00F4               	movwf	fputc@fp
  6661  06C3  3183  2327  3186   	fcall	_fputc
  6662  06C6                     l1720:
  6663                           
  6664                           ;D:\Programas\Microchip\xc8\v2.31\pic\sources\c99\common\doprnt.c: 598:         ++cp;
  6665  06C6  3001               	movlw	1
  6666  06C7  0020               	movlb	0	; select bank0
  6667  06C8  07AE               	addwf	stoa@cp,f
  6668  06C9  3000               	movlw	0
  6669  06CA  3DAF               	addwfc	stoa@cp+1,f
  6670  06CB                     l1722:
  6671                           
  6672                           ;D:\Programas\Microchip\xc8\v2.31\pic\sources\c99\common\doprnt.c: 599:         ++i;
  6673  06CB  3001               	movlw	1
  6674  06CC  07AA               	addwf	stoa@i,f
  6675  06CD  3000               	movlw	0
  6676  06CE  3DAB               	addwfc	stoa@i+1,f
  6677  06CF                     l1724:
  6678                           
  6679                           ;D:\Programas\Microchip\xc8\v2.31\pic\sources\c99\common\doprnt.c: 596:     while (i < p
      +                          ) {
  6680  06CF  082B               	movf	stoa@i+1,w
  6681  06D0  3A80               	xorlw	128
  6682  06D1  00A0               	movwf	??_stoa
  6683  06D2  0832               	movf	stoa@p+1,w
  6684  06D3  3A80               	xorlw	128
  6685  06D4  0220               	subwf	??_stoa,w
  6686  06D5  1D03               	skipz
  6687  06D6  2ED9               	goto	u765
  6688  06D7  0831               	movf	stoa@p,w
  6689  06D8  022A               	subwf	stoa@i,w
  6690  06D9                     u765:
  6691  06D9  1C03               	skipc
  6692  06DA  2EDC               	goto	u761
  6693  06DB  2EDD               	goto	u760
  6694  06DC                     u761:
  6695  06DC  2EB3               	goto	l1718
  6696  06DD                     u760:
  6697  06DD                     l1037:
  6698                           
  6699                           ;D:\Programas\Microchip\xc8\v2.31\pic\sources\c99\common\doprnt.c: 603:     if (flags & 
      +                          (1 << 0)) {
  6700  06DD  0020               	movlb	0	; select bank0
  6701  06DE  1C6A               	btfss	_flags,0
  6702  06DF  2EE1               	goto	u771
  6703  06E0  2EE2               	goto	u770
  6704  06E1                     u771:
  6705  06E1  2F02               	goto	l1734
  6706  06E2                     u770:
  6707  06E2  2EF4               	goto	l1732
  6708  06E3                     l1728:
  6709                           
  6710                           ;D:\Programas\Microchip\xc8\v2.31\pic\sources\c99\common\doprnt.c: 605:             fput
      +                          c(' ', fp);
  6711  06E3  3020               	movlw	32
  6712  06E4  00F2               	movwf	fputc@c
  6713  06E5  3000               	movlw	0
  6714  06E6  00F3               	movwf	fputc@c+1
  6715  06E7  0020               	movlb	0	; select bank0
  6716  06E8  0830               	movf	stoa@fp,w
  6717  06E9  00A0               	movwf	??_stoa
  6718  06EA  0820               	movf	??_stoa,w
  6719  06EB  00F4               	movwf	fputc@fp
  6720  06EC  3183  2327  3186   	fcall	_fputc
  6721  06EF                     l1730:
  6722                           
  6723                           ;D:\Programas\Microchip\xc8\v2.31\pic\sources\c99\common\doprnt.c: 606:             ++l;
  6724  06EF  3001               	movlw	1
  6725  06F0  0020               	movlb	0	; select bank0
  6726  06F1  07B3               	addwf	stoa@l,f
  6727  06F2  3000               	movlw	0
  6728  06F3  3DB4               	addwfc	stoa@l+1,f
  6729  06F4                     l1732:
  6730                           
  6731                           ;D:\Programas\Microchip\xc8\v2.31\pic\sources\c99\common\doprnt.c: 604:         while (l
      +                           < w) {
  6732  06F4  0834               	movf	stoa@l+1,w
  6733  06F5  3A80               	xorlw	128
  6734  06F6  00A0               	movwf	??_stoa
  6735  06F7  082D               	movf	stoa@w+1,w
  6736  06F8  3A80               	xorlw	128
  6737  06F9  0220               	subwf	??_stoa,w
  6738  06FA  1D03               	skipz
  6739  06FB  2EFE               	goto	u785
  6740  06FC  082C               	movf	stoa@w,w
  6741  06FD  0233               	subwf	stoa@l,w
  6742  06FE                     u785:
  6743  06FE  1C03               	skipc
  6744  06FF  2F01               	goto	u781
  6745  0700  2F02               	goto	u780
  6746  0701                     u781:
  6747  0701  2EE3               	goto	l1728
  6748  0702                     u780:
  6749  0702                     l1734:
  6750                           
  6751                           ;D:\Programas\Microchip\xc8\v2.31\pic\sources\c99\common\doprnt.c: 610:     return l;
  6752  0702  0020               	movlb	0	; select bank0
  6753  0703  0834               	movf	stoa@l+1,w
  6754  0704  00FB               	movwf	?_stoa+1
  6755  0705  0833               	movf	stoa@l,w
  6756  0706  00FA               	movwf	?_stoa
  6757  0707                     l1042:
  6758  0707  0008               	return
  6759  0708                     __end_of_stoa:
  6760                           
  6761                           	psect	text17
  6762  01B5                     __ptext17:	
  6763 ;; *************** function _strlen *****************
  6764 ;; Defined at:
  6765 ;;		line 5 in file "D:\Programas\Microchip\xc8\v2.31\pic\sources\c99\common\strlen.c"
  6766 ;; Parameters:    Size  Location     Type
  6767 ;;  s               2    0[COMMON] PTR const unsigned char 
  6768 ;;		 -> stoa@nuls(7), ?_printf(2), STR_6(12), STR_5(6), 
  6769 ;; Auto vars:     Size  Location     Type
  6770 ;;  a               2    3[COMMON] PTR const unsigned char 
  6771 ;;		 -> stoa@nuls(7), ?_printf(2), STR_6(12), STR_5(6), 
  6772 ;; Return value:  Size  Location     Type
  6773 ;;                  2    0[COMMON] unsigned int 
  6774 ;; Registers used:
  6775 ;;		wreg, fsr0l, fsr0h, status,2, status,0
  6776 ;; Tracked objects:
  6777 ;;		On entry : 0/0
  6778 ;;		On exit  : 0/0
  6779 ;;		Unchanged: 0/0
  6780 ;; Data sizes:     COMMON   BANK0   BANK1   BANK2   BANK3   BANK4   BANK5   BANK6   BANK7   BANK8   BANK9  BANK10  BANK1
      +1  BANK12
  6781 ;;      Params:         2       0       0       0       0       0       0       0       0       0       0       0       
      +0       0
  6782 ;;      Locals:         2       0       0       0       0       0       0       0       0       0       0       0       
      +0       0
  6783 ;;      Temps:          1       0       0       0       0       0       0       0       0       0       0       0       
      +0       0
  6784 ;;      Totals:         5       0       0       0       0       0       0       0       0       0       0       0       
      +0       0
  6785 ;;Total ram usage:        5 bytes
  6786 ;; Hardware stack levels used:    1
  6787 ;; This function calls:
  6788 ;;		Nothing
  6789 ;; This function is called by:
  6790 ;;		_stoa
  6791 ;; This function uses a non-reentrant model
  6792 ;;
  6793                           
  6794                           
  6795                           ;psect for function _strlen
  6796  01B5                     _strlen:
  6797  01B5                     l1678:	
  6798                           ;incstack = 0
  6799                           ; Regs used in _strlen: [wreg-fsr0h+status,2+status,0]
  6800                           
  6801  01B5  0871               	movf	strlen@s+1,w
  6802  01B6  00F4               	movwf	strlen@a+1
  6803  01B7  0870               	movf	strlen@s,w
  6804  01B8  00F3               	movwf	strlen@a
  6805  01B9  29BE               	goto	l1682
  6806  01BA                     l1680:
  6807  01BA  3001               	movlw	1
  6808  01BB  07F0               	addwf	strlen@s,f
  6809  01BC  3000               	movlw	0
  6810  01BD  3DF1               	addwfc	strlen@s+1,f
  6811  01BE                     l1682:
  6812  01BE  0870               	movf	strlen@s,w
  6813  01BF  0084               	movwf	4
  6814  01C0  0871               	movf	strlen@s+1,w
  6815  01C1  0085               	movwf	5
  6816  01C2  0012               	moviw fsr0++
  6817  01C3  1D03               	btfss	3,2
  6818  01C4  29C6               	goto	u691
  6819  01C5  29C7               	goto	u690
  6820  01C6                     u691:
  6821  01C6  29BA               	goto	l1680
  6822  01C7                     u690:
  6823  01C7                     l1684:
  6824  01C7  0873               	movf	strlen@a,w
  6825  01C8  0270               	subwf	strlen@s,w
  6826  01C9  00F0               	movwf	?_strlen
  6827  01CA  0874               	movf	strlen@a+1,w
  6828  01CB  3B71               	subwfb	strlen@s+1,w
  6829  01CC  00F1               	movwf	?_strlen+1
  6830  01CD                     l1080:
  6831  01CD  0008               	return
  6832  01CE                     __end_of_strlen:
  6833                           
  6834                           	psect	text18
  6835  0327                     __ptext18:	
  6836 ;; *************** function _fputc *****************
  6837 ;; Defined at:
  6838 ;;		line 8 in file "D:\Programas\Microchip\xc8\v2.31\pic\sources\c99\common\nf_fputc.c"
  6839 ;; Parameters:    Size  Location     Type
  6840 ;;  c               2    2[COMMON] int 
  6841 ;;  fp              1    4[COMMON] PTR struct _IO_FILE
  6842 ;;		 -> NULL(0), 
  6843 ;; Auto vars:     Size  Location     Type
  6844 ;;		None
  6845 ;; Return value:  Size  Location     Type
  6846 ;;                  2    2[COMMON] int 
  6847 ;; Registers used:
  6848 ;;		wreg, fsr1l, fsr1h, status,2, status,0, pclath, cstack
  6849 ;; Tracked objects:
  6850 ;;		On entry : 0/0
  6851 ;;		On exit  : 0/0
  6852 ;;		Unchanged: 0/0
  6853 ;; Data sizes:     COMMON   BANK0   BANK1   BANK2   BANK3   BANK4   BANK5   BANK6   BANK7   BANK8   BANK9  BANK10  BANK1
      +1  BANK12
  6854 ;;      Params:         3       0       0       0       0       0       0       0       0       0       0       0       
      +0       0
  6855 ;;      Locals:         0       0       0       0       0       0       0       0       0       0       0       0       
      +0       0
  6856 ;;      Temps:          5       0       0       0       0       0       0       0       0       0       0       0       
      +0       0
  6857 ;;      Totals:         8       0       0       0       0       0       0       0       0       0       0       0       
      +0       0
  6858 ;;Total ram usage:        8 bytes
  6859 ;; Hardware stack levels used:    1
  6860 ;; Hardware stack levels required when called:    2
  6861 ;; This function calls:
  6862 ;;		_putch
  6863 ;; This function is called by:
  6864 ;;		_stoa
  6865 ;;		_vfpfcnvrt
  6866 ;; This function uses a non-reentrant model
  6867 ;;
  6868                           
  6869                           
  6870                           ;psect for function _fputc
  6871  0327                     _fputc:
  6872  0327                     l1664:	
  6873                           ;incstack = 0
  6874                           ; Regs used in _fputc: [wreg+fsr1l+fsr1h+status,2+status,0+pclath+cstack]
  6875                           
  6876  0327  0874               	movf	fputc@fp,w
  6877  0328  1903               	btfsc	3,2
  6878  0329  2B2B               	goto	u651
  6879  032A  2B2C               	goto	u650
  6880  032B                     u651:
  6881  032B  2B31               	goto	l1668
  6882  032C                     u650:
  6883  032C                     l1666:
  6884  032C  0874               	movf	fputc@fp,w
  6885  032D  1D03               	btfss	3,2
  6886  032E  2B30               	goto	u661
  6887  032F  2B31               	goto	u660
  6888  0330                     u661:
  6889  0330  2B36               	goto	l1670
  6890  0331                     u660:
  6891  0331                     l1668:
  6892  0331  0872               	movf	fputc@c,w
  6893  0332  3180  2082  3183   	fcall	_putch
  6894  0335  2B65               	goto	l1066
  6895  0336                     l1670:
  6896  0336  0874               	movf	fputc@fp,w
  6897  0337  3E03               	addlw	3
  6898  0338  0086               	movwf	6
  6899  0339  0187               	clrf	7
  6900  033A  0016               	moviw fsr1++
  6901  033B  0401               	iorwf	1,w
  6902  033C  1903               	btfsc	3,2
  6903  033D  2B3F               	goto	u671
  6904  033E  2B40               	goto	u670
  6905  033F                     u671:
  6906  033F  2B5D               	goto	l1674
  6907  0340                     u670:
  6908  0340                     l1672:
  6909  0340  0874               	movf	fputc@fp,w
  6910  0341  3E03               	addlw	3
  6911  0342  0086               	movwf	6
  6912  0343  0187               	clrf	7
  6913  0344  3F40               	moviw [0]fsr1
  6914  0345  00F5               	movwf	??_fputc
  6915  0346  3F41               	moviw [1]fsr1
  6916  0347  00F6               	movwf	??_fputc+1
  6917  0348  0A74               	incf	fputc@fp,w
  6918  0349  0086               	movwf	6
  6919  034A  0187               	clrf	7
  6920  034B  3F40               	moviw [0]fsr1
  6921  034C  00F7               	movwf	??_fputc+2
  6922  034D  3F41               	moviw [1]fsr1
  6923  034E  00F8               	movwf	??_fputc+3
  6924  034F  0878               	movf	??_fputc+3,w
  6925  0350  3A80               	xorlw	128
  6926  0351  00F9               	movwf	??_fputc+4
  6927  0352  0876               	movf	??_fputc+1,w
  6928  0353  3A80               	xorlw	128
  6929  0354  0279               	subwf	??_fputc+4,w
  6930  0355  1D03               	skipz
  6931  0356  2B59               	goto	u685
  6932  0357  0875               	movf	??_fputc,w
  6933  0358  0277               	subwf	??_fputc+2,w
  6934  0359                     u685:
  6935  0359  1803               	skipnc
  6936  035A  2B5C               	goto	u681
  6937  035B  2B5D               	goto	u680
  6938  035C                     u681:
  6939  035C  2B65               	goto	l1066
  6940  035D                     u680:
  6941  035D                     l1674:
  6942  035D  0A74               	incf	fputc@fp,w
  6943  035E  0086               	movwf	6
  6944  035F  0187               	clrf	7
  6945  0360  3001               	movlw	1
  6946  0361  0781               	addwf	1,f
  6947  0362  3141               	addfsr 1,1
  6948  0363  1803               	skipnc
  6949  0364  0A81               	incf	1,f
  6950  0365                     l1066:
  6951  0365  0008               	return
  6952  0366                     __end_of_fputc:
  6953                           
  6954                           	psect	text19
  6955  0082                     __ptext19:	
  6956 ;; *************** function _putch *****************
  6957 ;; Defined at:
  6958 ;;		line 146 in file "mcc_generated_files/eusart.c"
  6959 ;; Parameters:    Size  Location     Type
  6960 ;;  txData          1    wreg     unsigned char 
  6961 ;; Auto vars:     Size  Location     Type
  6962 ;;  txData          1    1[COMMON] unsigned char 
  6963 ;; Return value:  Size  Location     Type
  6964 ;;                  1    wreg      void 
  6965 ;; Registers used:
  6966 ;;		wreg, status,2, status,0, pclath, cstack
  6967 ;; Tracked objects:
  6968 ;;		On entry : 0/0
  6969 ;;		On exit  : 0/0
  6970 ;;		Unchanged: 0/0
  6971 ;; Data sizes:     COMMON   BANK0   BANK1   BANK2   BANK3   BANK4   BANK5   BANK6   BANK7   BANK8   BANK9  BANK10  BANK1
      +1  BANK12
  6972 ;;      Params:         0       0       0       0       0       0       0       0       0       0       0       0       
      +0       0
  6973 ;;      Locals:         1       0       0       0       0       0       0       0       0       0       0       0       
      +0       0
  6974 ;;      Temps:          0       0       0       0       0       0       0       0       0       0       0       0       
      +0       0
  6975 ;;      Totals:         1       0       0       0       0       0       0       0       0       0       0       0       
      +0       0
  6976 ;;Total ram usage:        1 bytes
  6977 ;; Hardware stack levels used:    1
  6978 ;; Hardware stack levels required when called:    1
  6979 ;; This function calls:
  6980 ;;		_EUSART_Write
  6981 ;; This function is called by:
  6982 ;;		_fputc
  6983 ;; This function uses a non-reentrant model
  6984 ;;
  6985                           
  6986                           
  6987                           ;psect for function _putch
  6988  0082                     _putch:
  6989                           
  6990                           ;incstack = 0
  6991                           ; Regs used in _putch: [wreg+status,2+status,0+pclath+cstack]
  6992                           ;putch@txData stored from wreg
  6993  0082  00F1               	movwf	putch@txData
  6994  0083                     l1662:
  6995                           
  6996                           ;mcc_generated_files/eusart.c: 146: void putch(char txData);mcc_generated_files/eusart.c
      +                          : 147: {;mcc_generated_files/eusart.c: 148:     EUSART_Write(txData);
  6997  0083  0871               	movf	putch@txData,w
  6998  0084  3180  20DA  3180   	fcall	_EUSART_Write
  6999  0087                     l191:
  7000  0087  0008               	return
  7001  0088                     __end_of_putch:
  7002                           
  7003                           	psect	text20
  7004  00DA                     __ptext20:	
  7005 ;; *************** function _EUSART_Write *****************
  7006 ;; Defined at:
  7007 ;;		line 132 in file "mcc_generated_files/eusart.c"
  7008 ;; Parameters:    Size  Location     Type
  7009 ;;  txData          1    wreg     unsigned char 
  7010 ;; Auto vars:     Size  Location     Type
  7011 ;;  txData          1    0[COMMON] unsigned char 
  7012 ;; Return value:  Size  Location     Type
  7013 ;;                  1    wreg      void 
  7014 ;; Registers used:
  7015 ;;		wreg
  7016 ;; Tracked objects:
  7017 ;;		On entry : 0/0
  7018 ;;		On exit  : 0/0
  7019 ;;		Unchanged: 0/0
  7020 ;; Data sizes:     COMMON   BANK0   BANK1   BANK2   BANK3   BANK4   BANK5   BANK6   BANK7   BANK8   BANK9  BANK10  BANK1
      +1  BANK12
  7021 ;;      Params:         0       0       0       0       0       0       0       0       0       0       0       0       
      +0       0
  7022 ;;      Locals:         1       0       0       0       0       0       0       0       0       0       0       0       
      +0       0
  7023 ;;      Temps:          0       0       0       0       0       0       0       0       0       0       0       0       
      +0       0
  7024 ;;      Totals:         1       0       0       0       0       0       0       0       0       0       0       0       
      +0       0
  7025 ;;Total ram usage:        1 bytes
  7026 ;; Hardware stack levels used:    1
  7027 ;; This function calls:
  7028 ;;		Nothing
  7029 ;; This function is called by:
  7030 ;;		_putch
  7031 ;; This function uses a non-reentrant model
  7032 ;;
  7033                           
  7034                           
  7035                           ;psect for function _EUSART_Write
  7036  00DA                     _EUSART_Write:
  7037                           
  7038                           ;incstack = 0
  7039                           ; Regs used in _EUSART_Write: [wreg]
  7040                           ;EUSART_Write@txData stored from wreg
  7041  00DA  00F0               	movwf	EUSART_Write@txData
  7042  00DB                     l1658:
  7043  00DB                     l182:	
  7044                           ;mcc_generated_files/eusart.c: 135:     {;mcc_generated_files/eusart.c: 136:     }
  7045                           
  7046                           
  7047                           ;mcc_generated_files/eusart.c: 134:     while(0 == PIR1bits.TXIF)
  7048  00DB  0020               	movlb	0	; select bank0
  7049  00DC  1E11               	btfss	17,4	;volatile
  7050  00DD  28DF               	goto	u641
  7051  00DE  28E0               	goto	u640
  7052  00DF                     u641:
  7053  00DF  28DB               	goto	l182
  7054  00E0                     u640:
  7055  00E0                     l1660:
  7056                           
  7057                           ;mcc_generated_files/eusart.c: 138:     TX1REG = txData;
  7058  00E0  0870               	movf	EUSART_Write@txData,w
  7059  00E1  0023               	movlb	3	; select bank3
  7060  00E2  009A               	movwf	26	;volatile
  7061  00E3                     l185:
  7062  00E3  0008               	return
  7063  00E4                     __end_of_EUSART_Write:
  7064                           
  7065                           	psect	text21
  7066  01EA                     __ptext21:	
  7067 ;; *************** function _open *****************
  7068 ;; Defined at:
  7069 ;;		line 17 in file "light_sensor.c"
  7070 ;; Parameters:    Size  Location     Type
  7071 ;;		None
  7072 ;; Auto vars:     Size  Location     Type
  7073 ;;  opening_valu    2    6[COMMON] int 
  7074 ;;  is_connected    1    8[COMMON] _Bool 
  7075 ;; Return value:  Size  Location     Type
  7076 ;;                  1    wreg      _Bool 
  7077 ;; Registers used:
  7078 ;;		wreg, status,2, status,0, pclath, cstack
  7079 ;; Tracked objects:
  7080 ;;		On entry : 0/0
  7081 ;;		On exit  : 0/0
  7082 ;;		Unchanged: 0/0
  7083 ;; Data sizes:     COMMON   BANK0   BANK1   BANK2   BANK3   BANK4   BANK5   BANK6   BANK7   BANK8   BANK9  BANK10  BANK1
      +1  BANK12
  7084 ;;      Params:         0       0       0       0       0       0       0       0       0       0       0       0       
      +0       0
  7085 ;;      Locals:         3       0       0       0       0       0       0       0       0       0       0       0       
      +0       0
  7086 ;;      Temps:          2       0       0       0       0       0       0       0       0       0       0       0       
      +0       0
  7087 ;;      Totals:         5       0       0       0       0       0       0       0       0       0       0       0       
      +0       0
  7088 ;;Total ram usage:        5 bytes
  7089 ;; Hardware stack levels used:    1
  7090 ;; Hardware stack levels required when called:    1
  7091 ;; This function calls:
  7092 ;;		_ADC_GetConversion
  7093 ;; This function is called by:
  7094 ;;		_initialize_light
  7095 ;;		_main
  7096 ;; This function uses a non-reentrant model
  7097 ;;
  7098                           
  7099                           
  7100                           ;psect for function _open
  7101  01EA                     _open:
  7102  01EA                     l2056:	
  7103                           ;incstack = 0
  7104                           ; Regs used in _open: [wreg+status,2+status,0+pclath+cstack]
  7105                           
  7106                           
  7107                           ;light_sensor.c: 20:   int opening_value = (int)ADC_GetConversion(SENSOR_LIGHT);
  7108  01EA  3001               	movlw	1
  7109  01EB  3181  2152  3181   	fcall	_ADC_GetConversion
  7110  01EE  0871               	movf	?_ADC_GetConversion+1,w
  7111  01EF  00F7               	movwf	open@opening_value+1
  7112  01F0  0870               	movf	?_ADC_GetConversion,w
  7113  01F1  00F6               	movwf	open@opening_value
  7114  01F2                     l2058:
  7115                           
  7116                           ;light_sensor.c: 23:   _Bool is_connected = opening_value > 0;
  7117  01F2  0877               	movf	open@opening_value+1,w
  7118  01F3  3A80               	xorlw	128
  7119  01F4  00F4               	movwf	??_open
  7120  01F5  3080               	movlw	128
  7121  01F6  0274               	subwf	??_open,w
  7122  01F7  1D03               	skipz
  7123  01F8  29FB               	goto	u1075
  7124  01F9  3001               	movlw	1
  7125  01FA  0276               	subwf	open@opening_value,w
  7126  01FB                     u1075:
  7127  01FB  1803               	skipnc
  7128  01FC  29FE               	goto	u1071
  7129  01FD  2A00               	goto	u1070
  7130  01FE                     u1071:
  7131  01FE  3001               	movlw	1
  7132  01FF  2A01               	goto	u1080
  7133  0200                     u1070:
  7134  0200  3000               	movlw	0
  7135  0201                     u1080:
  7136  0201  00F5               	movwf	??_open+1
  7137  0202  0875               	movf	??_open+1,w
  7138  0203  00F8               	movwf	open@is_connected
  7139  0204                     l2060:
  7140                           
  7141                           ;light_sensor.c: 24:   return is_connected;
  7142  0204  0878               	movf	open@is_connected,w
  7143  0205                     l342:
  7144  0205  0008               	return
  7145  0206                     __end_of_open:
  7146                           
  7147                           	psect	text22
  7148  01CE                     __ptext22:	
  7149 ;; *************** function _open@temp_sensor$F633 *****************
  7150 ;; Defined at:
  7151 ;;		line 16 in file "temp_sensor.c"
  7152 ;; Parameters:    Size  Location     Type
  7153 ;;		None
  7154 ;; Auto vars:     Size  Location     Type
  7155 ;;  opening_valu    2    6[COMMON] int 
  7156 ;;  is_connected    1    8[COMMON] _Bool 
  7157 ;; Return value:  Size  Location     Type
  7158 ;;                  1    wreg      _Bool 
  7159 ;; Registers used:
  7160 ;;		wreg, status,2, status,0, pclath, cstack
  7161 ;; Tracked objects:
  7162 ;;		On entry : 0/0
  7163 ;;		On exit  : 0/0
  7164 ;;		Unchanged: 0/0
  7165 ;; Data sizes:     COMMON   BANK0   BANK1   BANK2   BANK3   BANK4   BANK5   BANK6   BANK7   BANK8   BANK9  BANK10  BANK1
      +1  BANK12
  7166 ;;      Params:         0       0       0       0       0       0       0       0       0       0       0       0       
      +0       0
  7167 ;;      Locals:         3       0       0       0       0       0       0       0       0       0       0       0       
      +0       0
  7168 ;;      Temps:          2       0       0       0       0       0       0       0       0       0       0       0       
      +0       0
  7169 ;;      Totals:         5       0       0       0       0       0       0       0       0       0       0       0       
      +0       0
  7170 ;;Total ram usage:        5 bytes
  7171 ;; Hardware stack levels used:    1
  7172 ;; Hardware stack levels required when called:    1
  7173 ;; This function calls:
  7174 ;;		_ADC_GetConversion
  7175 ;; This function is called by:
  7176 ;;		_initialize_temp
  7177 ;;		_main
  7178 ;; This function uses a non-reentrant model
  7179 ;;
  7180                           
  7181                           
  7182                           ;psect for function _open@temp_sensor$F633
  7183  01CE                     _open@temp_sensor$F633:
  7184  01CE                     l2068:	
  7185                           ;incstack = 0
  7186                           ; Regs used in _open@temp_sensor$F633: [wreg+status,2+status,0+pclath+cstack]
  7187                           
  7188                           
  7189                           ;temp_sensor.c: 19:   int opening_value = (int)ADC_GetConversion(SENSOR_TEMP);
  7190  01CE  3000               	movlw	0
  7191  01CF  3181  2152  3181   	fcall	_ADC_GetConversion
  7192  01D2  0871               	movf	?_ADC_GetConversion+1,w
  7193  01D3  00F7               	movwf	open@temp_sensor$F633@opening_value+1
  7194  01D4  0870               	movf	?_ADC_GetConversion,w
  7195  01D5  00F6               	movwf	open@temp_sensor$F633@opening_value
  7196  01D6                     l2070:
  7197                           
  7198                           ;temp_sensor.c: 22:   _Bool is_connected = opening_value > 0;
  7199  01D6  0877               	movf	open@temp_sensor$F633@opening_value+1,w
  7200  01D7  3A80               	xorlw	128
  7201  01D8  00F4               	movwf	??_open@temp_sensor$F633
  7202  01D9  3080               	movlw	128
  7203  01DA  0274               	subwf	??_open@temp_sensor$F633,w
  7204  01DB  1D03               	skipz
  7205  01DC  29DF               	goto	u1095
  7206  01DD  3001               	movlw	1
  7207  01DE  0276               	subwf	open@temp_sensor$F633@opening_value,w
  7208  01DF                     u1095:
  7209  01DF  1803               	skipnc
  7210  01E0  29E2               	goto	u1091
  7211  01E1  29E4               	goto	u1090
  7212  01E2                     u1091:
  7213  01E2  3001               	movlw	1
  7214  01E3  29E5               	goto	u1100
  7215  01E4                     u1090:
  7216  01E4  3000               	movlw	0
  7217  01E5                     u1100:
  7218  01E5  00F5               	movwf	??_open@temp_sensor$F633+1
  7219  01E6  0875               	movf	??_open@temp_sensor$F633+1,w
  7220  01E7  00F8               	movwf	open@temp_sensor$F633@is_connected
  7221  01E8                     l2072:
  7222                           
  7223                           ;temp_sensor.c: 23:   return is_connected;
  7224  01E8  0878               	movf	open@temp_sensor$F633@is_connected,w
  7225  01E9                     l353:
  7226  01E9  0008               	return
  7227  01EA                     __end_of_open@temp_sensor$F633:
  7228                           
  7229                           	psect	text23
  7230  0152                     __ptext23:	
  7231 ;; *************** function _ADC_GetConversion *****************
  7232 ;; Defined at:
  7233 ;;		line 115 in file "mcc_generated_files/adc.c"
  7234 ;; Parameters:    Size  Location     Type
  7235 ;;  channel         1    wreg     enum E5569
  7236 ;; Auto vars:     Size  Location     Type
  7237 ;;  channel         1    3[COMMON] enum E5569
  7238 ;; Return value:  Size  Location     Type
  7239 ;;                  2    0[COMMON] unsigned short 
  7240 ;; Registers used:
  7241 ;;		wreg, status,2, status,0
  7242 ;; Tracked objects:
  7243 ;;		On entry : 0/0
  7244 ;;		On exit  : 0/0
  7245 ;;		Unchanged: 0/0
  7246 ;; Data sizes:     COMMON   BANK0   BANK1   BANK2   BANK3   BANK4   BANK5   BANK6   BANK7   BANK8   BANK9  BANK10  BANK1
      +1  BANK12
  7247 ;;      Params:         2       0       0       0       0       0       0       0       0       0       0       0       
      +0       0
  7248 ;;      Locals:         1       0       0       0       0       0       0       0       0       0       0       0       
      +0       0
  7249 ;;      Temps:          1       0       0       0       0       0       0       0       0       0       0       0       
      +0       0
  7250 ;;      Totals:         4       0       0       0       0       0       0       0       0       0       0       0       
      +0       0
  7251 ;;Total ram usage:        4 bytes
  7252 ;; Hardware stack levels used:    1
  7253 ;; This function calls:
  7254 ;;		Nothing
  7255 ;; This function is called by:
  7256 ;;		_open
  7257 ;;		_read
  7258 ;;		_open@temp_sensor$F633
  7259 ;;		_read@temp_sensor$F636
  7260 ;; This function uses a non-reentrant model
  7261 ;;
  7262                           
  7263                           
  7264                           ;psect for function _ADC_GetConversion
  7265  0152                     _ADC_GetConversion:
  7266                           
  7267                           ;incstack = 0
  7268                           ; Regs used in _ADC_GetConversion: [wreg+status,2+status,0]
  7269                           ;ADC_GetConversion@channel stored from wreg
  7270  0152  00F3               	movwf	ADC_GetConversion@channel
  7271  0153                     l1952:
  7272                           
  7273                           ;mcc_generated_files/adc.c: 115: adc_result_t ADC_GetConversion(adc_channel_t channel);m
      +                          cc_generated_files/adc.c: 116: {;mcc_generated_files/adc.c: 118:     ADCON0bits.CHS = ch
      +                          annel;
  7274  0153  0873               	movf	ADC_GetConversion@channel,w
  7275  0154  00F2               	movwf	??_ADC_GetConversion
  7276  0155  0DF2               	rlf	??_ADC_GetConversion,f
  7277  0156  0DF2               	rlf	??_ADC_GetConversion,f
  7278  0157  0021               	movlb	1	; select bank1
  7279  0158  081D               	movf	29,w	;volatile
  7280  0159  0672               	xorwf	??_ADC_GetConversion,w
  7281  015A  3983               	andlw	-125
  7282  015B  0672               	xorwf	??_ADC_GetConversion,w
  7283  015C  009D               	movwf	29	;volatile
  7284  015D                     l1954:
  7285                           
  7286                           ;mcc_generated_files/adc.c: 121:     ADCON0bits.ADON = 1;
  7287  015D  141D               	bsf	29,0	;volatile
  7288  015E                     l1956:
  7289                           
  7290                           ;mcc_generated_files/adc.c: 124:     _delay((unsigned long)((5)*(1000000/4000000.0)));
  7291  015E  0000               	nop
  7292  015F                     l1958:
  7293                           
  7294                           ;mcc_generated_files/adc.c: 127:     ADCON0bits.GO_nDONE = 1;
  7295  015F  0021               	movlb	1	; select bank1
  7296  0160  149D               	bsf	29,1	;volatile
  7297  0161                     l289:	
  7298                           ;mcc_generated_files/adc.c: 131:     {;mcc_generated_files/adc.c: 132:     }
  7299                           
  7300                           
  7301                           ;mcc_generated_files/adc.c: 130:     while (ADCON0bits.GO_nDONE)
  7302  0161  189D               	btfsc	29,1	;volatile
  7303  0162  2964               	goto	u1001
  7304  0163  2965               	goto	u1000
  7305  0164                     u1001:
  7306  0164  2961               	goto	l289
  7307  0165                     u1000:
  7308  0165                     l1960:
  7309                           
  7310                           ;mcc_generated_files/adc.c: 135:     return ((adc_result_t)((ADRESH << 8) + ADRESL));
  7311  0165  081C               	movf	28,w	;volatile
  7312  0166  00F1               	movwf	?_ADC_GetConversion+1
  7313  0167  081B               	movf	27,w	;volatile
  7314  0168  00F0               	movwf	?_ADC_GetConversion
  7315  0169                     l292:
  7316  0169  0008               	return
  7317  016A                     __end_of_ADC_GetConversion:
  7318                           
  7319                           	psect	text24
  7320  019C                     __ptext24:	
  7321 ;; *************** function _initialize_temp *****************
  7322 ;; Defined at:
  7323 ;;		line 32 in file "temp_sensor.c"
  7324 ;; Parameters:    Size  Location     Type
  7325 ;;  sensor_var      1    wreg     PTR struct sensor
  7326 ;;		 -> temp_sensor(6), 
  7327 ;; Auto vars:     Size  Location     Type
  7328 ;;  sensor_var      1    0[COMMON] PTR struct sensor
  7329 ;;		 -> temp_sensor(6), 
  7330 ;; Return value:  Size  Location     Type
  7331 ;;                  1    wreg      void 
  7332 ;; Registers used:
  7333 ;;		wreg, fsr1l, fsr1h, status,2, status,0
  7334 ;; Tracked objects:
  7335 ;;		On entry : 0/0
  7336 ;;		On exit  : 0/0
  7337 ;;		Unchanged: 0/0
  7338 ;; Data sizes:     COMMON   BANK0   BANK1   BANK2   BANK3   BANK4   BANK5   BANK6   BANK7   BANK8   BANK9  BANK10  BANK1
      +1  BANK12
  7339 ;;      Params:         0       0       0       0       0       0       0       0       0       0       0       0       
      +0       0
  7340 ;;      Locals:         1       0       0       0       0       0       0       0       0       0       0       0       
      +0       0
  7341 ;;      Temps:          0       0       0       0       0       0       0       0       0       0       0       0       
      +0       0
  7342 ;;      Totals:         1       0       0       0       0       0       0       0       0       0       0       0       
      +0       0
  7343 ;;Total ram usage:        1 bytes
  7344 ;; Hardware stack levels used:    1
  7345 ;; This function calls:
  7346 ;;		Nothing
  7347 ;; This function is called by:
  7348 ;;		_main
  7349 ;; This function uses a non-reentrant model
  7350 ;;
  7351                           
  7352                           
  7353                           ;psect for function _initialize_temp
  7354  019C                     _initialize_temp:
  7355                           
  7356                           ;incstack = 0
  7357                           ; Regs used in _initialize_temp: [wreg+fsr1l+fsr1h+status,2+status,0]
  7358                           ;initialize_temp@sensor_var stored from wreg
  7359  019C  00F0               	movwf	initialize_temp@sensor_var
  7360  019D                     l2036:
  7361                           
  7362                           ;temp_sensor.c: 32: void initialize_temp(sensor *sensor_var);temp_sensor.c: 33: {;temp_s
      +                          ensor.c: 34:   sensor_var->name = "Temperature";
  7363  019D  0870               	movf	initialize_temp@sensor_var,w
  7364  019E  0086               	movwf	6
  7365  019F  0187               	clrf	7
  7366  01A0  303E               	movlw	low (STR_6| (0+32768))
  7367  01A1  3FC0               	movwi [0]fsr1
  7368  01A2  3088               	movlw	high (STR_6| (0+32768))
  7369  01A3  3FC1               	movwi [1]fsr1
  7370                           
  7371                           ;temp_sensor.c: 35:   sensor_var->open = open;
  7372  01A4  0870               	movf	initialize_temp@sensor_var,w
  7373  01A5  3E02               	addlw	2
  7374  01A6  0086               	movwf	6
  7375  01A7  0187               	clrf	7
  7376  01A8  30CE               	movlw	low _open@temp_sensor$F633
  7377  01A9  3FC0               	movwi [0]fsr1
  7378  01AA  3001               	movlw	high _open@temp_sensor$F633
  7379  01AB  3FC1               	movwi [1]fsr1
  7380                           
  7381                           ;temp_sensor.c: 36:   sensor_var->read = read;
  7382  01AC  0870               	movf	initialize_temp@sensor_var,w
  7383  01AD  3E04               	addlw	4
  7384  01AE  0086               	movwf	6
  7385  01AF  0187               	clrf	7
  7386  01B0  30BE               	movlw	low _read@temp_sensor$F636
  7387  01B1  3FC0               	movwi [0]fsr1
  7388  01B2  3000               	movlw	high _read@temp_sensor$F636
  7389  01B3  3FC1               	movwi [1]fsr1
  7390  01B4                     l359:
  7391  01B4  0008               	return
  7392  01B5                     __end_of_initialize_temp:
  7393                           
  7394                           	psect	text25
  7395  0183                     __ptext25:	
  7396 ;; *************** function _initialize_light *****************
  7397 ;; Defined at:
  7398 ;;		line 33 in file "light_sensor.c"
  7399 ;; Parameters:    Size  Location     Type
  7400 ;;  sensor_var      1    wreg     PTR struct sensor
  7401 ;;		 -> light_sensor(6), 
  7402 ;; Auto vars:     Size  Location     Type
  7403 ;;  sensor_var      1    0[COMMON] PTR struct sensor
  7404 ;;		 -> light_sensor(6), 
  7405 ;; Return value:  Size  Location     Type
  7406 ;;                  1    wreg      void 
  7407 ;; Registers used:
  7408 ;;		wreg, fsr1l, fsr1h, status,2, status,0
  7409 ;; Tracked objects:
  7410 ;;		On entry : 0/0
  7411 ;;		On exit  : 0/0
  7412 ;;		Unchanged: 0/0
  7413 ;; Data sizes:     COMMON   BANK0   BANK1   BANK2   BANK3   BANK4   BANK5   BANK6   BANK7   BANK8   BANK9  BANK10  BANK1
      +1  BANK12
  7414 ;;      Params:         0       0       0       0       0       0       0       0       0       0       0       0       
      +0       0
  7415 ;;      Locals:         1       0       0       0       0       0       0       0       0       0       0       0       
      +0       0
  7416 ;;      Temps:          0       0       0       0       0       0       0       0       0       0       0       0       
      +0       0
  7417 ;;      Totals:         1       0       0       0       0       0       0       0       0       0       0       0       
      +0       0
  7418 ;;Total ram usage:        1 bytes
  7419 ;; Hardware stack levels used:    1
  7420 ;; This function calls:
  7421 ;;		Nothing
  7422 ;; This function is called by:
  7423 ;;		_main
  7424 ;; This function uses a non-reentrant model
  7425 ;;
  7426                           
  7427                           
  7428                           ;psect for function _initialize_light
  7429  0183                     _initialize_light:
  7430                           
  7431                           ;incstack = 0
  7432                           ; Regs used in _initialize_light: [wreg+fsr1l+fsr1h+status,2+status,0]
  7433                           ;initialize_light@sensor_var stored from wreg
  7434  0183  00F0               	movwf	initialize_light@sensor_var
  7435  0184                     l2034:
  7436                           
  7437                           ;light_sensor.c: 33: void initialize_light(sensor *sensor_var);light_sensor.c: 34: {;lig
      +                          ht_sensor.c: 35:   sensor_var->name = "Light";
  7438  0184  0870               	movf	initialize_light@sensor_var,w
  7439  0185  0086               	movwf	6
  7440  0186  0187               	clrf	7
  7441  0187  3065               	movlw	low (STR_5| (0+32768))
  7442  0188  3FC0               	movwi [0]fsr1
  7443  0189  3088               	movlw	high (STR_5| (0+32768))
  7444  018A  3FC1               	movwi [1]fsr1
  7445                           
  7446                           ;light_sensor.c: 36:   sensor_var->open = open;
  7447  018B  0870               	movf	initialize_light@sensor_var,w
  7448  018C  3E02               	addlw	2
  7449  018D  0086               	movwf	6
  7450  018E  0187               	clrf	7
  7451  018F  30EA               	movlw	low _open
  7452  0190  3FC0               	movwi [0]fsr1
  7453  0191  3001               	movlw	high _open
  7454  0192  3FC1               	movwi [1]fsr1
  7455                           
  7456                           ;light_sensor.c: 37:   sensor_var->read = read;
  7457  0193  0870               	movf	initialize_light@sensor_var,w
  7458  0194  3E04               	addlw	4
  7459  0195  0086               	movwf	6
  7460  0196  0187               	clrf	7
  7461  0197  30C7               	movlw	low _read
  7462  0198  3FC0               	movwi [0]fsr1
  7463  0199  3000               	movlw	high _read
  7464  019A  3FC1               	movwi [1]fsr1
  7465  019B                     l348:
  7466  019B  0008               	return
  7467  019C                     __end_of_initialize_light:
  7468                           
  7469                           	psect	text26
  7470  00EF                     __ptext26:	
  7471 ;; *************** function _initialize_led *****************
  7472 ;; Defined at:
  7473 ;;		line 100 in file "led_adapter.c"
  7474 ;; Parameters:    Size  Location     Type
  7475 ;;  led             1    wreg     PTR struct led
  7476 ;;		 -> led_var(4), 
  7477 ;; Auto vars:     Size  Location     Type
  7478 ;;  led             1    0[COMMON] PTR struct led
  7479 ;;		 -> led_var(4), 
  7480 ;; Return value:  Size  Location     Type
  7481 ;;                  1    wreg      void 
  7482 ;; Registers used:
  7483 ;;		wreg, fsr1l, fsr1h, status,2, status,0
  7484 ;; Tracked objects:
  7485 ;;		On entry : 0/0
  7486 ;;		On exit  : 0/0
  7487 ;;		Unchanged: 0/0
  7488 ;; Data sizes:     COMMON   BANK0   BANK1   BANK2   BANK3   BANK4   BANK5   BANK6   BANK7   BANK8   BANK9  BANK10  BANK1
      +1  BANK12
  7489 ;;      Params:         0       0       0       0       0       0       0       0       0       0       0       0       
      +0       0
  7490 ;;      Locals:         1       0       0       0       0       0       0       0       0       0       0       0       
      +0       0
  7491 ;;      Temps:          0       0       0       0       0       0       0       0       0       0       0       0       
      +0       0
  7492 ;;      Totals:         1       0       0       0       0       0       0       0       0       0       0       0       
      +0       0
  7493 ;;Total ram usage:        1 bytes
  7494 ;; Hardware stack levels used:    1
  7495 ;; This function calls:
  7496 ;;		Nothing
  7497 ;; This function is called by:
  7498 ;;		_main
  7499 ;; This function uses a non-reentrant model
  7500 ;;
  7501                           
  7502                           
  7503                           ;psect for function _initialize_led
  7504  00EF                     _initialize_led:
  7505                           
  7506                           ;incstack = 0
  7507                           ; Regs used in _initialize_led: [wreg+fsr1l+fsr1h+status,2+status,0]
  7508                           ;initialize_led@led stored from wreg
  7509  00EF  00F0               	movwf	initialize_led@led
  7510  00F0                     l2040:
  7511                           
  7512                           ;led_adapter.c: 100: void initialize_led(led *led);led_adapter.c: 101: {;led_adapter.c: 
      +                          102:   led->set_brightness = set_brightness;
  7513  00F0  0870               	movf	initialize_led@led,w
  7514  00F1  0086               	movwf	6
  7515  00F2  0187               	clrf	7
  7516  00F3  3014               	movlw	low _set_brightness
  7517  00F4  3FC0               	movwi [0]fsr1
  7518  00F5  3004               	movlw	high _set_brightness
  7519  00F6  3FC1               	movwi [1]fsr1
  7520                           
  7521                           ;led_adapter.c: 103:   led->set_color = set_color;
  7522  00F7  0870               	movf	initialize_led@led,w
  7523  00F8  3E02               	addlw	2
  7524  00F9  0086               	movwf	6
  7525  00FA  0187               	clrf	7
  7526  00FB  307E               	movlw	low _set_color
  7527  00FC  3FC0               	movwi [0]fsr1
  7528  00FD  3004               	movlw	high _set_color
  7529  00FE  3FC1               	movwi [1]fsr1
  7530  00FF                     l420:
  7531  00FF  0008               	return
  7532  0100                     __end_of_initialize_led:
  7533                           
  7534                           	psect	text27
  7535  016A                     __ptext27:	
  7536 ;; *************** function _initialize_lcd_screen *****************
  7537 ;; Defined at:
  7538 ;;		line 31 in file "lcd_screen.c"
  7539 ;; Parameters:    Size  Location     Type
  7540 ;;  lcd_screen_v    1    wreg     PTR struct lcd_screen
  7541 ;;		 -> lcd_screen_var(6), 
  7542 ;; Auto vars:     Size  Location     Type
  7543 ;;  lcd_screen_v    1    0[COMMON] PTR struct lcd_screen
  7544 ;;		 -> lcd_screen_var(6), 
  7545 ;; Return value:  Size  Location     Type
  7546 ;;                  1    wreg      void 
  7547 ;; Registers used:
  7548 ;;		wreg, fsr1l, fsr1h, status,2, status,0
  7549 ;; Tracked objects:
  7550 ;;		On entry : 0/0
  7551 ;;		On exit  : 0/0
  7552 ;;		Unchanged: 0/0
  7553 ;; Data sizes:     COMMON   BANK0   BANK1   BANK2   BANK3   BANK4   BANK5   BANK6   BANK7   BANK8   BANK9  BANK10  BANK1
      +1  BANK12
  7554 ;;      Params:         0       0       0       0       0       0       0       0       0       0       0       0       
      +0       0
  7555 ;;      Locals:         1       0       0       0       0       0       0       0       0       0       0       0       
      +0       0
  7556 ;;      Temps:          0       0       0       0       0       0       0       0       0       0       0       0       
      +0       0
  7557 ;;      Totals:         1       0       0       0       0       0       0       0       0       0       0       0       
      +0       0
  7558 ;;Total ram usage:        1 bytes
  7559 ;; Hardware stack levels used:    1
  7560 ;; This function calls:
  7561 ;;		Nothing
  7562 ;; This function is called by:
  7563 ;;		_main
  7564 ;; This function uses a non-reentrant model
  7565 ;;
  7566                           
  7567                           
  7568                           ;psect for function _initialize_lcd_screen
  7569  016A                     _initialize_lcd_screen:
  7570                           
  7571                           ;incstack = 0
  7572                           ; Regs used in _initialize_lcd_screen: [wreg+fsr1l+fsr1h+status,2+status,0]
  7573                           ;initialize_lcd_screen@lcd_screen_var stored from wreg
  7574  016A  00F0               	movwf	initialize_lcd_screen@lcd_screen_var
  7575  016B                     l2038:
  7576                           
  7577                           ;lcd_screen.c: 31: void initialize_lcd_screen(lcd_screen *lcd_screen_var);lcd_screen.c: 
      +                          32: {;lcd_screen.c: 33:   lcd_screen_var->demo1 = demo1;
  7578  016B  0870               	movf	initialize_lcd_screen@lcd_screen_var,w
  7579  016C  0086               	movwf	6
  7580  016D  0187               	clrf	7
  7581  016E  3000               	movlw	0
  7582  016F  3FC0               	movwi [0]fsr1
  7583  0170  3000               	movlw	0
  7584  0171  3FC1               	movwi [1]fsr1
  7585                           
  7586                           ;lcd_screen.c: 34:   lcd_screen_var->demo2 = demo2;
  7587  0172  0870               	movf	initialize_lcd_screen@lcd_screen_var,w
  7588  0173  3E02               	addlw	2
  7589  0174  0086               	movwf	6
  7590  0175  0187               	clrf	7
  7591  0176  3000               	movlw	0
  7592  0177  3FC0               	movwi [0]fsr1
  7593  0178  3000               	movlw	0
  7594  0179  3FC1               	movwi [1]fsr1
  7595                           
  7596                           ;lcd_screen.c: 35:   lcd_screen_var->demo3 = demo3;
  7597  017A  0870               	movf	initialize_lcd_screen@lcd_screen_var,w
  7598  017B  3E04               	addlw	4
  7599  017C  0086               	movwf	6
  7600  017D  0187               	clrf	7
  7601  017E  3000               	movlw	0
  7602  017F  3FC0               	movwi [0]fsr1
  7603  0180  3000               	movlw	0
  7604  0181  3FC1               	movwi [1]fsr1
  7605  0182                     l373:
  7606  0182  0008               	return
  7607  0183                     __end_of_initialize_lcd_screen:
  7608                           
  7609                           	psect	text28
  7610  0126                     __ptext28:	
  7611 ;; *************** function _SYSTEM_Initialize *****************
  7612 ;; Defined at:
  7613 ;;		line 50 in file "mcc_generated_files/mcc.c"
  7614 ;; Parameters:    Size  Location     Type
  7615 ;;		None
  7616 ;; Auto vars:     Size  Location     Type
  7617 ;;		None
  7618 ;; Return value:  Size  Location     Type
  7619 ;;                  1    wreg      void 
  7620 ;; Registers used:
  7621 ;;		wreg, status,2, status,0, pclath, cstack
  7622 ;; Tracked objects:
  7623 ;;		On entry : 0/0
  7624 ;;		On exit  : 0/0
  7625 ;;		Unchanged: 0/0
  7626 ;; Data sizes:     COMMON   BANK0   BANK1   BANK2   BANK3   BANK4   BANK5   BANK6   BANK7   BANK8   BANK9  BANK10  BANK1
      +1  BANK12
  7627 ;;      Params:         0       0       0       0       0       0       0       0       0       0       0       0       
      +0       0
  7628 ;;      Locals:         0       0       0       0       0       0       0       0       0       0       0       0       
      +0       0
  7629 ;;      Temps:          0       0       0       0       0       0       0       0       0       0       0       0       
      +0       0
  7630 ;;      Totals:         0       0       0       0       0       0       0       0       0       0       0       0       
      +0       0
  7631 ;;Total ram usage:        0 bytes
  7632 ;; Hardware stack levels used:    1
  7633 ;; Hardware stack levels required when called:    2
  7634 ;; This function calls:
  7635 ;;		_ADC_Initialize
  7636 ;;		_EUSART_Initialize
  7637 ;;		_OSCILLATOR_Initialize
  7638 ;;		_PIN_MANAGER_Initialize
  7639 ;;		_PWM3_Initialize
  7640 ;;		_TMR4_Initialize
  7641 ;;		_WDT_Initialize
  7642 ;; This function is called by:
  7643 ;;		_main
  7644 ;; This function uses a non-reentrant model
  7645 ;;
  7646                           
  7647                           
  7648                           ;psect for function _SYSTEM_Initialize
  7649  0126                     _SYSTEM_Initialize:
  7650  0126                     l2004:	
  7651                           ;incstack = 0
  7652                           ; Regs used in _SYSTEM_Initialize: [wreg+status,2+status,0+pclath+cstack]
  7653                           
  7654                           
  7655                           ;mcc_generated_files/mcc.c: 53:     PIN_MANAGER_Initialize();
  7656  0126  3183  2366  3181   	fcall	_PIN_MANAGER_Initialize
  7657                           
  7658                           ;mcc_generated_files/mcc.c: 54:     OSCILLATOR_Initialize();
  7659  0129  3180  20A0  3181   	fcall	_OSCILLATOR_Initialize
  7660                           
  7661                           ;mcc_generated_files/mcc.c: 55:     WDT_Initialize();
  7662  012C  3180  206C  3181   	fcall	_WDT_Initialize
  7663                           
  7664                           ;mcc_generated_files/mcc.c: 56:     ADC_Initialize();
  7665  012F  3180  20B5  3181   	fcall	_ADC_Initialize
  7666                           
  7667                           ;mcc_generated_files/mcc.c: 57:     TMR4_Initialize();
  7668  0132  3180  20D0  3181   	fcall	_TMR4_Initialize
  7669                           
  7670                           ;mcc_generated_files/mcc.c: 58:     PWM3_Initialize();
  7671  0135  3180  20E4  3181   	fcall	_PWM3_Initialize
  7672                           
  7673                           ;mcc_generated_files/mcc.c: 59:     EUSART_Initialize();
  7674  0138  3182  2284  3181   	fcall	_EUSART_Initialize
  7675  013B                     l25:
  7676  013B  0008               	return
  7677  013C                     __end_of_SYSTEM_Initialize:
  7678                           
  7679                           	psect	text29
  7680  006C                     __ptext29:	
  7681 ;; *************** function _WDT_Initialize *****************
  7682 ;; Defined at:
  7683 ;;		line 72 in file "mcc_generated_files/mcc.c"
  7684 ;; Parameters:    Size  Location     Type
  7685 ;;		None
  7686 ;; Auto vars:     Size  Location     Type
  7687 ;;		None
  7688 ;; Return value:  Size  Location     Type
  7689 ;;                  1    wreg      void 
  7690 ;; Registers used:
  7691 ;;		wreg
  7692 ;; Tracked objects:
  7693 ;;		On entry : 0/0
  7694 ;;		On exit  : 0/0
  7695 ;;		Unchanged: 0/0
  7696 ;; Data sizes:     COMMON   BANK0   BANK1   BANK2   BANK3   BANK4   BANK5   BANK6   BANK7   BANK8   BANK9  BANK10  BANK1
      +1  BANK12
  7697 ;;      Params:         0       0       0       0       0       0       0       0       0       0       0       0       
      +0       0
  7698 ;;      Locals:         0       0       0       0       0       0       0       0       0       0       0       0       
      +0       0
  7699 ;;      Temps:          0       0       0       0       0       0       0       0       0       0       0       0       
      +0       0
  7700 ;;      Totals:         0       0       0       0       0       0       0       0       0       0       0       0       
      +0       0
  7701 ;;Total ram usage:        0 bytes
  7702 ;; Hardware stack levels used:    1
  7703 ;; This function calls:
  7704 ;;		Nothing
  7705 ;; This function is called by:
  7706 ;;		_SYSTEM_Initialize
  7707 ;; This function uses a non-reentrant model
  7708 ;;
  7709                           
  7710                           
  7711                           ;psect for function _WDT_Initialize
  7712  006C                     _WDT_Initialize:
  7713  006C                     l1910:	
  7714                           ;incstack = 0
  7715                           ; Regs used in _WDT_Initialize: [wreg]
  7716                           
  7717                           
  7718                           ;mcc_generated_files/mcc.c: 75:     WDTCON = 0x16;
  7719  006C  3016               	movlw	22
  7720  006D  0021               	movlb	1	; select bank1
  7721  006E  0097               	movwf	23	;volatile
  7722  006F                     l31:
  7723  006F  0008               	return
  7724  0070                     __end_of_WDT_Initialize:
  7725                           
  7726                           	psect	text30
  7727  00D0                     __ptext30:	
  7728 ;; *************** function _TMR4_Initialize *****************
  7729 ;; Defined at:
  7730 ;;		line 62 in file "mcc_generated_files/tmr4.c"
  7731 ;; Parameters:    Size  Location     Type
  7732 ;;		None
  7733 ;; Auto vars:     Size  Location     Type
  7734 ;;		None
  7735 ;; Return value:  Size  Location     Type
  7736 ;;                  1    wreg      void 
  7737 ;; Registers used:
  7738 ;;		wreg, status,2
  7739 ;; Tracked objects:
  7740 ;;		On entry : 0/0
  7741 ;;		On exit  : 0/0
  7742 ;;		Unchanged: 0/0
  7743 ;; Data sizes:     COMMON   BANK0   BANK1   BANK2   BANK3   BANK4   BANK5   BANK6   BANK7   BANK8   BANK9  BANK10  BANK1
      +1  BANK12
  7744 ;;      Params:         0       0       0       0       0       0       0       0       0       0       0       0       
      +0       0
  7745 ;;      Locals:         0       0       0       0       0       0       0       0       0       0       0       0       
      +0       0
  7746 ;;      Temps:          0       0       0       0       0       0       0       0       0       0       0       0       
      +0       0
  7747 ;;      Totals:         0       0       0       0       0       0       0       0       0       0       0       0       
      +0       0
  7748 ;;Total ram usage:        0 bytes
  7749 ;; Hardware stack levels used:    1
  7750 ;; This function calls:
  7751 ;;		Nothing
  7752 ;; This function is called by:
  7753 ;;		_SYSTEM_Initialize
  7754 ;; This function uses a non-reentrant model
  7755 ;;
  7756                           
  7757                           
  7758                           ;psect for function _TMR4_Initialize
  7759  00D0                     _TMR4_Initialize:
  7760  00D0                     l1922:	
  7761                           ;incstack = 0
  7762                           ; Regs used in _TMR4_Initialize: [wreg+status,2]
  7763                           
  7764                           
  7765                           ;mcc_generated_files/tmr4.c: 67:     PR4 = 0xFF;
  7766  00D0  30FF               	movlw	255
  7767  00D1  0028               	movlb	8	; select bank8
  7768  00D2  0096               	movwf	22	;volatile
  7769  00D3                     l1924:
  7770                           
  7771                           ;mcc_generated_files/tmr4.c: 70:     TMR4 = 0x00;
  7772  00D3  0195               	clrf	21	;volatile
  7773  00D4                     l1926:
  7774                           
  7775                           ;mcc_generated_files/tmr4.c: 73:     PIR2bits.TMR4IF = 0;
  7776  00D4  0020               	movlb	0	; select bank0
  7777  00D5  1092               	bcf	18,1	;volatile
  7778  00D6                     l1928:
  7779                           
  7780                           ;mcc_generated_files/tmr4.c: 76:     T4CON = 0x06;
  7781  00D6  3006               	movlw	6
  7782  00D7  0028               	movlb	8	; select bank8
  7783  00D8  0097               	movwf	23	;volatile
  7784  00D9                     l222:
  7785  00D9  0008               	return
  7786  00DA                     __end_of_TMR4_Initialize:
  7787                           
  7788                           	psect	text31
  7789  00E4                     __ptext31:	
  7790 ;; *************** function _PWM3_Initialize *****************
  7791 ;; Defined at:
  7792 ;;		line 58 in file "mcc_generated_files/pwm3.c"
  7793 ;; Parameters:    Size  Location     Type
  7794 ;;		None
  7795 ;; Auto vars:     Size  Location     Type
  7796 ;;		None
  7797 ;; Return value:  Size  Location     Type
  7798 ;;                  1    wreg      void 
  7799 ;; Registers used:
  7800 ;;		wreg, status,2, status,0
  7801 ;; Tracked objects:
  7802 ;;		On entry : 0/0
  7803 ;;		On exit  : 0/0
  7804 ;;		Unchanged: 0/0
  7805 ;; Data sizes:     COMMON   BANK0   BANK1   BANK2   BANK3   BANK4   BANK5   BANK6   BANK7   BANK8   BANK9  BANK10  BANK1
      +1  BANK12
  7806 ;;      Params:         0       0       0       0       0       0       0       0       0       0       0       0       
      +0       0
  7807 ;;      Locals:         0       0       0       0       0       0       0       0       0       0       0       0       
      +0       0
  7808 ;;      Temps:          0       0       0       0       0       0       0       0       0       0       0       0       
      +0       0
  7809 ;;      Totals:         0       0       0       0       0       0       0       0       0       0       0       0       
      +0       0
  7810 ;;Total ram usage:        0 bytes
  7811 ;; Hardware stack levels used:    1
  7812 ;; This function calls:
  7813 ;;		Nothing
  7814 ;; This function is called by:
  7815 ;;		_SYSTEM_Initialize
  7816 ;; This function uses a non-reentrant model
  7817 ;;
  7818                           
  7819                           
  7820                           ;psect for function _PWM3_Initialize
  7821  00E4                     _PWM3_Initialize:
  7822  00E4                     l1930:	
  7823                           ;incstack = 0
  7824                           ; Regs used in _PWM3_Initialize: [wreg+status,2+status,0]
  7825                           
  7826                           
  7827                           ;mcc_generated_files/pwm3.c: 62:     PWM3CON = 0x80;
  7828  00E4  3080               	movlw	128
  7829  00E5  002C               	movlb	12	; select bank12
  7830  00E6  0099               	movwf	25	;volatile
  7831  00E7                     l1932:
  7832                           
  7833                           ;mcc_generated_files/pwm3.c: 65:     PWM3DCH = 0x00;
  7834  00E7  0198               	clrf	24	;volatile
  7835  00E8                     l1934:
  7836                           
  7837                           ;mcc_generated_files/pwm3.c: 68:     PWM3DCL = 0x00;
  7838  00E8  0197               	clrf	23	;volatile
  7839  00E9                     l1936:
  7840                           
  7841                           ;mcc_generated_files/pwm3.c: 71:     CCPTMRSbits.P3TSEL = 1;
  7842  00E9  0025               	movlb	5	; select bank5
  7843  00EA  081E               	movf	30,w	;volatile
  7844  00EB  39CF               	andlw	-49
  7845  00EC  3810               	iorlw	16
  7846  00ED  009E               	movwf	30	;volatile
  7847  00EE                     l252:
  7848  00EE  0008               	return
  7849  00EF                     __end_of_PWM3_Initialize:
  7850                           
  7851                           	psect	text32
  7852  0366                     __ptext32:	
  7853 ;; *************** function _PIN_MANAGER_Initialize *****************
  7854 ;; Defined at:
  7855 ;;		line 55 in file "mcc_generated_files/pin_manager.c"
  7856 ;; Parameters:    Size  Location     Type
  7857 ;;		None
  7858 ;; Auto vars:     Size  Location     Type
  7859 ;;		None
  7860 ;; Return value:  Size  Location     Type
  7861 ;;                  1    wreg      void 
  7862 ;; Registers used:
  7863 ;;		wreg, status,2
  7864 ;; Tracked objects:
  7865 ;;		On entry : 0/0
  7866 ;;		On exit  : 0/0
  7867 ;;		Unchanged: 0/0
  7868 ;; Data sizes:     COMMON   BANK0   BANK1   BANK2   BANK3   BANK4   BANK5   BANK6   BANK7   BANK8   BANK9  BANK10  BANK1
      +1  BANK12
  7869 ;;      Params:         0       0       0       0       0       0       0       0       0       0       0       0       
      +0       0
  7870 ;;      Locals:         0       0       0       0       0       0       0       0       0       0       0       0       
      +0       0
  7871 ;;      Temps:          0       0       0       0       0       0       0       0       0       0       0       0       
      +0       0
  7872 ;;      Totals:         0       0       0       0       0       0       0       0       0       0       0       0       
      +0       0
  7873 ;;Total ram usage:        0 bytes
  7874 ;; Hardware stack levels used:    1
  7875 ;; This function calls:
  7876 ;;		Nothing
  7877 ;; This function is called by:
  7878 ;;		_SYSTEM_Initialize
  7879 ;; This function uses a non-reentrant model
  7880 ;;
  7881                           
  7882                           
  7883                           ;psect for function _PIN_MANAGER_Initialize
  7884  0366                     _PIN_MANAGER_Initialize:
  7885  0366                     l1858:	
  7886                           ;incstack = 0
  7887                           ; Regs used in _PIN_MANAGER_Initialize: [wreg+status,2]
  7888                           
  7889                           
  7890                           ;mcc_generated_files/pin_manager.c: 60:     LATE = 0x00;
  7891  0366  0022               	movlb	2	; select bank2
  7892  0367  0190               	clrf	16	;volatile
  7893                           
  7894                           ;mcc_generated_files/pin_manager.c: 61:     LATD = 0x00;
  7895  0368  018F               	clrf	15	;volatile
  7896                           
  7897                           ;mcc_generated_files/pin_manager.c: 62:     LATA = 0x00;
  7898  0369  018C               	clrf	12	;volatile
  7899                           
  7900                           ;mcc_generated_files/pin_manager.c: 63:     LATB = 0x00;
  7901  036A  018D               	clrf	13	;volatile
  7902                           
  7903                           ;mcc_generated_files/pin_manager.c: 64:     LATC = 0x00;
  7904  036B  018E               	clrf	14	;volatile
  7905  036C                     l1860:
  7906                           
  7907                           ;mcc_generated_files/pin_manager.c: 69:     TRISE = 0x0F;
  7908  036C  300F               	movlw	15
  7909  036D  0021               	movlb	1	; select bank1
  7910  036E  0090               	movwf	16	;volatile
  7911  036F                     l1862:
  7912                           
  7913                           ;mcc_generated_files/pin_manager.c: 70:     TRISA = 0xFF;
  7914  036F  30FF               	movlw	255
  7915  0370  008C               	movwf	12	;volatile
  7916  0371                     l1864:
  7917                           
  7918                           ;mcc_generated_files/pin_manager.c: 71:     TRISB = 0xF8;
  7919  0371  30F8               	movlw	248
  7920  0372  008D               	movwf	13	;volatile
  7921  0373                     l1866:
  7922                           
  7923                           ;mcc_generated_files/pin_manager.c: 72:     TRISC = 0xBF;
  7924  0373  30BF               	movlw	191
  7925  0374  008E               	movwf	14	;volatile
  7926                           
  7927                           ;mcc_generated_files/pin_manager.c: 73:     TRISD = 0x00;
  7928  0375  018F               	clrf	15	;volatile
  7929                           
  7930                           ;mcc_generated_files/pin_manager.c: 78:     ANSELD = 0x00;
  7931  0376  0023               	movlb	3	; select bank3
  7932  0377  018F               	clrf	15	;volatile
  7933  0378                     l1868:
  7934                           
  7935                           ;mcc_generated_files/pin_manager.c: 79:     ANSELC = 0x3C;
  7936  0378  303C               	movlw	60
  7937  0379  008E               	movwf	14	;volatile
  7938  037A                     l1870:
  7939                           
  7940                           ;mcc_generated_files/pin_manager.c: 80:     ANSELB = 0x20;
  7941  037A  3020               	movlw	32
  7942  037B  008D               	movwf	13	;volatile
  7943  037C                     l1872:
  7944                           
  7945                           ;mcc_generated_files/pin_manager.c: 81:     ANSELE = 0x07;
  7946  037C  3007               	movlw	7
  7947  037D  0090               	movwf	16	;volatile
  7948  037E                     l1874:
  7949                           
  7950                           ;mcc_generated_files/pin_manager.c: 82:     ANSELA = 0x3F;
  7951  037E  303F               	movlw	63
  7952  037F  008C               	movwf	12	;volatile
  7953                           
  7954                           ;mcc_generated_files/pin_manager.c: 87:     WPUD = 0x00;
  7955  0380  0024               	movlb	4	; select bank4
  7956  0381  018F               	clrf	15	;volatile
  7957                           
  7958                           ;mcc_generated_files/pin_manager.c: 88:     WPUE = 0x00;
  7959  0382  0190               	clrf	16	;volatile
  7960                           
  7961                           ;mcc_generated_files/pin_manager.c: 89:     WPUB = 0x00;
  7962  0383  018D               	clrf	13	;volatile
  7963                           
  7964                           ;mcc_generated_files/pin_manager.c: 90:     WPUA = 0x00;
  7965  0384  018C               	clrf	12	;volatile
  7966                           
  7967                           ;mcc_generated_files/pin_manager.c: 91:     WPUC = 0x00;
  7968  0385  018E               	clrf	14	;volatile
  7969  0386                     l1876:
  7970                           
  7971                           ;mcc_generated_files/pin_manager.c: 92:     OPTION_REGbits.nWPUEN = 1;
  7972  0386  0021               	movlb	1	; select bank1
  7973  0387  1795               	bsf	21,7	;volatile
  7974                           
  7975                           ;mcc_generated_files/pin_manager.c: 97:     ODCONE = 0x00;
  7976  0388  0025               	movlb	5	; select bank5
  7977  0389  0190               	clrf	16	;volatile
  7978                           
  7979                           ;mcc_generated_files/pin_manager.c: 98:     ODCONA = 0x00;
  7980  038A  018C               	clrf	12	;volatile
  7981                           
  7982                           ;mcc_generated_files/pin_manager.c: 99:     ODCONB = 0x00;
  7983  038B  018D               	clrf	13	;volatile
  7984                           
  7985                           ;mcc_generated_files/pin_manager.c: 100:     ODCONC = 0x00;
  7986  038C  018E               	clrf	14	;volatile
  7987                           
  7988                           ;mcc_generated_files/pin_manager.c: 101:     ODCOND = 0x00;
  7989  038D  018F               	clrf	15	;volatile
  7990  038E                     l1878:
  7991                           
  7992                           ;mcc_generated_files/pin_manager.c: 106:     SLRCONA = 0xFF;
  7993  038E  30FF               	movlw	255
  7994  038F  0026               	movlb	6	; select bank6
  7995  0390  008C               	movwf	12	;volatile
  7996  0391                     l1880:
  7997                           
  7998                           ;mcc_generated_files/pin_manager.c: 107:     SLRCONB = 0xFF;
  7999  0391  30FF               	movlw	255
  8000  0392  008D               	movwf	13	;volatile
  8001  0393                     l1882:
  8002                           
  8003                           ;mcc_generated_files/pin_manager.c: 108:     SLRCONC = 0xFF;
  8004  0393  30FF               	movlw	255
  8005  0394  008E               	movwf	14	;volatile
  8006  0395                     l1884:
  8007                           
  8008                           ;mcc_generated_files/pin_manager.c: 109:     SLRCOND = 0xFF;
  8009  0395  30FF               	movlw	255
  8010  0396  008F               	movwf	15	;volatile
  8011  0397                     l1886:
  8012                           
  8013                           ;mcc_generated_files/pin_manager.c: 110:     SLRCONE = 0x07;
  8014  0397  3007               	movlw	7
  8015  0398  0090               	movwf	16	;volatile
  8016  0399                     l1888:
  8017                           
  8018                           ;mcc_generated_files/pin_manager.c: 115:     INLVLA = 0xFF;
  8019  0399  30FF               	movlw	255
  8020  039A  0027               	movlb	7	; select bank7
  8021  039B  008C               	movwf	12	;volatile
  8022  039C                     l1890:
  8023                           
  8024                           ;mcc_generated_files/pin_manager.c: 116:     INLVLB = 0xFF;
  8025  039C  30FF               	movlw	255
  8026  039D  008D               	movwf	13	;volatile
  8027  039E                     l1892:
  8028                           
  8029                           ;mcc_generated_files/pin_manager.c: 117:     INLVLC = 0xFF;
  8030  039E  30FF               	movlw	255
  8031  039F  008E               	movwf	14	;volatile
  8032  03A0                     l1894:
  8033                           
  8034                           ;mcc_generated_files/pin_manager.c: 118:     INLVLD = 0xFF;
  8035  03A0  30FF               	movlw	255
  8036  03A1  008F               	movwf	15	;volatile
  8037  03A2                     l1896:
  8038                           
  8039                           ;mcc_generated_files/pin_manager.c: 119:     INLVLE = 0x0F;
  8040  03A2  300F               	movlw	15
  8041  03A3  0090               	movwf	16	;volatile
  8042  03A4                     l1898:
  8043                           
  8044                           ;mcc_generated_files/pin_manager.c: 128:     RXPPS = 0x17;
  8045  03A4  3017               	movlw	23
  8046  03A5  003C               	movlb	28	; select bank28
  8047  03A6  00A4               	movwf	36	;volatile
  8048  03A7                     l1900:
  8049                           
  8050                           ;mcc_generated_files/pin_manager.c: 129:     RB0PPS = 0x0E;
  8051  03A7  300E               	movlw	14
  8052  03A8  003D               	movlb	29	; select bank29
  8053  03A9  0098               	movwf	24	;volatile
  8054  03AA                     l1902:
  8055                           
  8056                           ;mcc_generated_files/pin_manager.c: 130:     RC6PPS = 0x14;
  8057  03AA  3014               	movlw	20
  8058  03AB  00A6               	movwf	38	;volatile
  8059  03AC                     l112:
  8060  03AC  0008               	return
  8061  03AD                     __end_of_PIN_MANAGER_Initialize:
  8062                           
  8063                           	psect	text33
  8064  00A0                     __ptext33:	
  8065 ;; *************** function _OSCILLATOR_Initialize *****************
  8066 ;; Defined at:
  8067 ;;		line 62 in file "mcc_generated_files/mcc.c"
  8068 ;; Parameters:    Size  Location     Type
  8069 ;;		None
  8070 ;; Auto vars:     Size  Location     Type
  8071 ;;		None
  8072 ;; Return value:  Size  Location     Type
  8073 ;;                  1    wreg      void 
  8074 ;; Registers used:
  8075 ;;		wreg, status,2
  8076 ;; Tracked objects:
  8077 ;;		On entry : 0/0
  8078 ;;		On exit  : 0/0
  8079 ;;		Unchanged: 0/0
  8080 ;; Data sizes:     COMMON   BANK0   BANK1   BANK2   BANK3   BANK4   BANK5   BANK6   BANK7   BANK8   BANK9  BANK10  BANK1
      +1  BANK12
  8081 ;;      Params:         0       0       0       0       0       0       0       0       0       0       0       0       
      +0       0
  8082 ;;      Locals:         0       0       0       0       0       0       0       0       0       0       0       0       
      +0       0
  8083 ;;      Temps:          0       0       0       0       0       0       0       0       0       0       0       0       
      +0       0
  8084 ;;      Totals:         0       0       0       0       0       0       0       0       0       0       0       0       
      +0       0
  8085 ;;Total ram usage:        0 bytes
  8086 ;; Hardware stack levels used:    1
  8087 ;; This function calls:
  8088 ;;		Nothing
  8089 ;; This function is called by:
  8090 ;;		_SYSTEM_Initialize
  8091 ;; This function uses a non-reentrant model
  8092 ;;
  8093                           
  8094                           
  8095                           ;psect for function _OSCILLATOR_Initialize
  8096  00A0                     _OSCILLATOR_Initialize:
  8097  00A0                     l1904:	
  8098                           ;incstack = 0
  8099                           ; Regs used in _OSCILLATOR_Initialize: [wreg+status,2]
  8100                           
  8101                           
  8102                           ;mcc_generated_files/mcc.c: 65:     OSCCON = 0x58;
  8103  00A0  3058               	movlw	88
  8104  00A1  0021               	movlb	1	; select bank1
  8105  00A2  0099               	movwf	25	;volatile
  8106  00A3                     l1906:
  8107                           
  8108                           ;mcc_generated_files/mcc.c: 67:     OSCTUNE = 0x00;
  8109  00A3  0198               	clrf	24	;volatile
  8110  00A4                     l1908:
  8111                           
  8112                           ;mcc_generated_files/mcc.c: 69:     BORCON = 0x00;
  8113  00A4  0022               	movlb	2	; select bank2
  8114  00A5  0196               	clrf	22	;volatile
  8115  00A6                     l28:
  8116  00A6  0008               	return
  8117  00A7                     __end_of_OSCILLATOR_Initialize:
  8118                           
  8119                           	psect	text34
  8120  0284                     __ptext34:	
  8121 ;; *************** function _EUSART_Initialize *****************
  8122 ;; Defined at:
  8123 ;;		line 66 in file "mcc_generated_files/eusart.c"
  8124 ;; Parameters:    Size  Location     Type
  8125 ;;		None
  8126 ;; Auto vars:     Size  Location     Type
  8127 ;;		None
  8128 ;; Return value:  Size  Location     Type
  8129 ;;                  1    wreg      void 
  8130 ;; Registers used:
  8131 ;;		wreg, status,2, status,0, pclath, cstack
  8132 ;; Tracked objects:
  8133 ;;		On entry : 0/0
  8134 ;;		On exit  : 0/0
  8135 ;;		Unchanged: 0/0
  8136 ;; Data sizes:     COMMON   BANK0   BANK1   BANK2   BANK3   BANK4   BANK5   BANK6   BANK7   BANK8   BANK9  BANK10  BANK1
      +1  BANK12
  8137 ;;      Params:         0       0       0       0       0       0       0       0       0       0       0       0       
      +0       0
  8138 ;;      Locals:         0       0       0       0       0       0       0       0       0       0       0       0       
      +0       0
  8139 ;;      Temps:          0       0       0       0       0       0       0       0       0       0       0       0       
      +0       0
  8140 ;;      Totals:         0       0       0       0       0       0       0       0       0       0       0       0       
      +0       0
  8141 ;;Total ram usage:        0 bytes
  8142 ;; Hardware stack levels used:    1
  8143 ;; Hardware stack levels required when called:    1
  8144 ;; This function calls:
  8145 ;;		_EUSART_SetErrorHandler
  8146 ;;		_EUSART_SetFramingErrorHandler
  8147 ;;		_EUSART_SetOverrunErrorHandler
  8148 ;; This function is called by:
  8149 ;;		_SYSTEM_Initialize
  8150 ;; This function uses a non-reentrant model
  8151 ;;
  8152                           
  8153                           
  8154                           ;psect for function _EUSART_Initialize
  8155  0284                     _EUSART_Initialize:
  8156  0284                     l1938:	
  8157                           ;incstack = 0
  8158                           ; Regs used in _EUSART_Initialize: [wreg+status,2+status,0+pclath+cstack]
  8159                           
  8160                           
  8161                           ;mcc_generated_files/eusart.c: 71:     BAUD1CON = 0x08;
  8162  0284  3008               	movlw	8
  8163  0285  0023               	movlb	3	; select bank3
  8164  0286  009F               	movwf	31	;volatile
  8165                           
  8166                           ;mcc_generated_files/eusart.c: 74:     RC1STA = 0x90;
  8167  0287  3090               	movlw	144
  8168  0288  009D               	movwf	29	;volatile
  8169                           
  8170                           ;mcc_generated_files/eusart.c: 77:     TX1STA = 0x24;
  8171  0289  3024               	movlw	36
  8172  028A  009E               	movwf	30	;volatile
  8173                           
  8174                           ;mcc_generated_files/eusart.c: 80:     SP1BRGL = 0x19;
  8175  028B  3019               	movlw	25
  8176  028C  009B               	movwf	27	;volatile
  8177  028D                     l1940:
  8178                           
  8179                           ;mcc_generated_files/eusart.c: 83:     SP1BRGH = 0x00;
  8180  028D  019C               	clrf	28	;volatile
  8181  028E                     l1942:
  8182                           
  8183                           ;mcc_generated_files/eusart.c: 86:     EUSART_SetFramingErrorHandler(EUSART_DefaultFrami
      +                          ngErrorHandler);
  8184  028E  3000               	movlw	0
  8185  028F  00F0               	movwf	EUSART_SetFramingErrorHandler@interruptHandler
  8186  0290  3000               	movlw	0
  8187  0291  00F1               	movwf	EUSART_SetFramingErrorHandler@interruptHandler+1
  8188  0292  3180  2076  3182   	fcall	_EUSART_SetFramingErrorHandler
  8189  0295                     l1944:
  8190                           
  8191                           ;mcc_generated_files/eusart.c: 87:     EUSART_SetOverrunErrorHandler(EUSART_DefaultOverr
      +                          unErrorHandler);
  8192  0295  3000               	movlw	0
  8193  0296  00F0               	movwf	EUSART_SetOverrunErrorHandler@interruptHandler
  8194  0297  3000               	movlw	0
  8195  0298  00F1               	movwf	EUSART_SetOverrunErrorHandler@interruptHandler+1
  8196  0299  3180  207C  3182   	fcall	_EUSART_SetOverrunErrorHandler
  8197  029C                     l1946:
  8198                           
  8199                           ;mcc_generated_files/eusart.c: 88:     EUSART_SetErrorHandler(EUSART_DefaultErrorHandler
      +                          );
  8200  029C  3000               	movlw	0
  8201  029D  00F0               	movwf	EUSART_SetErrorHandler@interruptHandler
  8202  029E  3000               	movlw	0
  8203  029F  00F1               	movwf	EUSART_SetErrorHandler@interruptHandler+1
  8204  02A0  3180  2070  3182   	fcall	_EUSART_SetErrorHandler
  8205  02A3                     l1948:
  8206                           
  8207                           ;mcc_generated_files/eusart.c: 90:     eusartRxLastError.status = 0;
  8208  02A3  0020               	movlb	0	; select bank0
  8209  02A4  01EE               	clrf	_eusartRxLastError	;volatile
  8210  02A5                     l158:
  8211  02A5  0008               	return
  8212  02A6                     __end_of_EUSART_Initialize:
  8213                           
  8214                           	psect	text35
  8215  007C                     __ptext35:	
  8216 ;; *************** function _EUSART_SetOverrunErrorHandler *****************
  8217 ;; Defined at:
  8218 ;;		line 170 in file "mcc_generated_files/eusart.c"
  8219 ;; Parameters:    Size  Location     Type
  8220 ;;  interruptHan    2    0[COMMON] PTR FTN()void 
  8221 ;;		 -> EUSART_DefaultOverrunErrorHandler(1), 
  8222 ;; Auto vars:     Size  Location     Type
  8223 ;;		None
  8224 ;; Return value:  Size  Location     Type
  8225 ;;                  1    wreg      void 
  8226 ;; Registers used:
  8227 ;;		wreg
  8228 ;; Tracked objects:
  8229 ;;		On entry : 0/0
  8230 ;;		On exit  : 0/0
  8231 ;;		Unchanged: 0/0
  8232 ;; Data sizes:     COMMON   BANK0   BANK1   BANK2   BANK3   BANK4   BANK5   BANK6   BANK7   BANK8   BANK9  BANK10  BANK1
      +1  BANK12
  8233 ;;      Params:         2       0       0       0       0       0       0       0       0       0       0       0       
      +0       0
  8234 ;;      Locals:         0       0       0       0       0       0       0       0       0       0       0       0       
      +0       0
  8235 ;;      Temps:          0       0       0       0       0       0       0       0       0       0       0       0       
      +0       0
  8236 ;;      Totals:         2       0       0       0       0       0       0       0       0       0       0       0       
      +0       0
  8237 ;;Total ram usage:        2 bytes
  8238 ;; Hardware stack levels used:    1
  8239 ;; This function calls:
  8240 ;;		Nothing
  8241 ;; This function is called by:
  8242 ;;		_EUSART_Initialize
  8243 ;; This function uses a non-reentrant model
  8244 ;;
  8245                           
  8246                           
  8247                           ;psect for function _EUSART_SetOverrunErrorHandler
  8248  007C                     _EUSART_SetOverrunErrorHandler:
  8249  007C                     l1740:	
  8250                           ;incstack = 0
  8251                           ; Regs used in _EUSART_SetOverrunErrorHandler: [wreg]
  8252                           
  8253                           
  8254                           ;mcc_generated_files/eusart.c: 171:     EUSART_OverrunErrorHandler = interruptHandler;
  8255  007C  0871               	movf	EUSART_SetOverrunErrorHandler@interruptHandler+1,w
  8256  007D  0021               	movlb	1	; select bank1
  8257  007E  00E5               	movwf	(_EUSART_OverrunErrorHandler+1)^(0+128)
  8258  007F  0870               	movf	EUSART_SetOverrunErrorHandler@interruptHandler,w
  8259  0080  00E4               	movwf	_EUSART_OverrunErrorHandler^(0+128)
  8260  0081                     l206:
  8261  0081  0008               	return
  8262  0082                     __end_of_EUSART_SetOverrunErrorHandler:
  8263                           
  8264                           	psect	text36
  8265  0076                     __ptext36:	
  8266 ;; *************** function _EUSART_SetFramingErrorHandler *****************
  8267 ;; Defined at:
  8268 ;;		line 166 in file "mcc_generated_files/eusart.c"
  8269 ;; Parameters:    Size  Location     Type
  8270 ;;  interruptHan    2    0[COMMON] PTR FTN()void 
  8271 ;;		 -> EUSART_DefaultFramingErrorHandler(1), 
  8272 ;; Auto vars:     Size  Location     Type
  8273 ;;		None
  8274 ;; Return value:  Size  Location     Type
  8275 ;;                  1    wreg      void 
  8276 ;; Registers used:
  8277 ;;		wreg
  8278 ;; Tracked objects:
  8279 ;;		On entry : 0/0
  8280 ;;		On exit  : 0/0
  8281 ;;		Unchanged: 0/0
  8282 ;; Data sizes:     COMMON   BANK0   BANK1   BANK2   BANK3   BANK4   BANK5   BANK6   BANK7   BANK8   BANK9  BANK10  BANK1
      +1  BANK12
  8283 ;;      Params:         2       0       0       0       0       0       0       0       0       0       0       0       
      +0       0
  8284 ;;      Locals:         0       0       0       0       0       0       0       0       0       0       0       0       
      +0       0
  8285 ;;      Temps:          0       0       0       0       0       0       0       0       0       0       0       0       
      +0       0
  8286 ;;      Totals:         2       0       0       0       0       0       0       0       0       0       0       0       
      +0       0
  8287 ;;Total ram usage:        2 bytes
  8288 ;; Hardware stack levels used:    1
  8289 ;; This function calls:
  8290 ;;		Nothing
  8291 ;; This function is called by:
  8292 ;;		_EUSART_Initialize
  8293 ;; This function uses a non-reentrant model
  8294 ;;
  8295                           
  8296                           
  8297                           ;psect for function _EUSART_SetFramingErrorHandler
  8298  0076                     _EUSART_SetFramingErrorHandler:
  8299  0076                     l1738:	
  8300                           ;incstack = 0
  8301                           ; Regs used in _EUSART_SetFramingErrorHandler: [wreg]
  8302                           
  8303                           
  8304                           ;mcc_generated_files/eusart.c: 167:     EUSART_FramingErrorHandler = interruptHandler;
  8305  0076  0871               	movf	EUSART_SetFramingErrorHandler@interruptHandler+1,w
  8306  0077  0021               	movlb	1	; select bank1
  8307  0078  00E7               	movwf	(_EUSART_FramingErrorHandler+1)^(0+128)
  8308  0079  0870               	movf	EUSART_SetFramingErrorHandler@interruptHandler,w
  8309  007A  00E6               	movwf	_EUSART_FramingErrorHandler^(0+128)
  8310  007B                     l203:
  8311  007B  0008               	return
  8312  007C                     __end_of_EUSART_SetFramingErrorHandler:
  8313                           
  8314                           	psect	text37
  8315  0070                     __ptext37:	
  8316 ;; *************** function _EUSART_SetErrorHandler *****************
  8317 ;; Defined at:
  8318 ;;		line 174 in file "mcc_generated_files/eusart.c"
  8319 ;; Parameters:    Size  Location     Type
  8320 ;;  interruptHan    2    0[COMMON] PTR FTN()void 
  8321 ;;		 -> EUSART_DefaultErrorHandler(1), 
  8322 ;; Auto vars:     Size  Location     Type
  8323 ;;		None
  8324 ;; Return value:  Size  Location     Type
  8325 ;;                  1    wreg      void 
  8326 ;; Registers used:
  8327 ;;		wreg
  8328 ;; Tracked objects:
  8329 ;;		On entry : 0/0
  8330 ;;		On exit  : 0/0
  8331 ;;		Unchanged: 0/0
  8332 ;; Data sizes:     COMMON   BANK0   BANK1   BANK2   BANK3   BANK4   BANK5   BANK6   BANK7   BANK8   BANK9  BANK10  BANK1
      +1  BANK12
  8333 ;;      Params:         2       0       0       0       0       0       0       0       0       0       0       0       
      +0       0
  8334 ;;      Locals:         0       0       0       0       0       0       0       0       0       0       0       0       
      +0       0
  8335 ;;      Temps:          0       0       0       0       0       0       0       0       0       0       0       0       
      +0       0
  8336 ;;      Totals:         2       0       0       0       0       0       0       0       0       0       0       0       
      +0       0
  8337 ;;Total ram usage:        2 bytes
  8338 ;; Hardware stack levels used:    1
  8339 ;; This function calls:
  8340 ;;		Nothing
  8341 ;; This function is called by:
  8342 ;;		_EUSART_Initialize
  8343 ;; This function uses a non-reentrant model
  8344 ;;
  8345                           
  8346                           
  8347                           ;psect for function _EUSART_SetErrorHandler
  8348  0070                     _EUSART_SetErrorHandler:
  8349  0070                     l1742:	
  8350                           ;incstack = 0
  8351                           ; Regs used in _EUSART_SetErrorHandler: [wreg]
  8352                           
  8353                           
  8354                           ;mcc_generated_files/eusart.c: 175:     EUSART_ErrorHandler = interruptHandler;
  8355  0070  0871               	movf	EUSART_SetErrorHandler@interruptHandler+1,w
  8356  0071  0021               	movlb	1	; select bank1
  8357  0072  00E3               	movwf	(_EUSART_ErrorHandler+1)^(0+128)
  8358  0073  0870               	movf	EUSART_SetErrorHandler@interruptHandler,w
  8359  0074  00E2               	movwf	_EUSART_ErrorHandler^(0+128)
  8360  0075                     l209:
  8361  0075  0008               	return
  8362  0076                     __end_of_EUSART_SetErrorHandler:
  8363                           
  8364                           	psect	text38
  8365  00B5                     __ptext38:	
  8366 ;; *************** function _ADC_Initialize *****************
  8367 ;; Defined at:
  8368 ;;		line 67 in file "mcc_generated_files/adc.c"
  8369 ;; Parameters:    Size  Location     Type
  8370 ;;		None
  8371 ;; Auto vars:     Size  Location     Type
  8372 ;;		None
  8373 ;; Return value:  Size  Location     Type
  8374 ;;                  1    wreg      void 
  8375 ;; Registers used:
  8376 ;;		wreg, status,2
  8377 ;; Tracked objects:
  8378 ;;		On entry : 0/0
  8379 ;;		On exit  : 0/0
  8380 ;;		Unchanged: 0/0
  8381 ;; Data sizes:     COMMON   BANK0   BANK1   BANK2   BANK3   BANK4   BANK5   BANK6   BANK7   BANK8   BANK9  BANK10  BANK1
      +1  BANK12
  8382 ;;      Params:         0       0       0       0       0       0       0       0       0       0       0       0       
      +0       0
  8383 ;;      Locals:         0       0       0       0       0       0       0       0       0       0       0       0       
      +0       0
  8384 ;;      Temps:          0       0       0       0       0       0       0       0       0       0       0       0       
      +0       0
  8385 ;;      Totals:         0       0       0       0       0       0       0       0       0       0       0       0       
      +0       0
  8386 ;;Total ram usage:        0 bytes
  8387 ;; Hardware stack levels used:    1
  8388 ;; This function calls:
  8389 ;;		Nothing
  8390 ;; This function is called by:
  8391 ;;		_SYSTEM_Initialize
  8392 ;; This function uses a non-reentrant model
  8393 ;;
  8394                           
  8395                           
  8396                           ;psect for function _ADC_Initialize
  8397  00B5                     _ADC_Initialize:
  8398  00B5                     l1912:	
  8399                           ;incstack = 0
  8400                           ; Regs used in _ADC_Initialize: [wreg+status,2]
  8401                           
  8402                           
  8403                           ;mcc_generated_files/adc.c: 72:     ADCON1 = 0x86;
  8404  00B5  3086               	movlw	134
  8405  00B6  0021               	movlb	1	; select bank1
  8406  00B7  009E               	movwf	30	;volatile
  8407  00B8                     l1914:
  8408                           
  8409                           ;mcc_generated_files/adc.c: 75:     ADCON2 = 0x00;
  8410  00B8  019F               	clrf	31	;volatile
  8411  00B9                     l1916:
  8412                           
  8413                           ;mcc_generated_files/adc.c: 78:     ADRESL = 0x00;
  8414  00B9  019B               	clrf	27	;volatile
  8415  00BA                     l1918:
  8416                           
  8417                           ;mcc_generated_files/adc.c: 81:     ADRESH = 0x00;
  8418  00BA  019C               	clrf	28	;volatile
  8419  00BB                     l1920:
  8420                           
  8421                           ;mcc_generated_files/adc.c: 84:     ADCON0 = 0x01;
  8422  00BB  3001               	movlw	1
  8423  00BC  009D               	movwf	29	;volatile
  8424  00BD                     l274:
  8425  00BD  0008               	return
  8426  00BE                     __end_of_ADC_Initialize:
  8427                           
  8428                           	psect	text39
  8429  0262                     __ptext39:	
  8430 ;; *************** function _LCD_Initialize *****************
  8431 ;; Defined at:
  8432 ;;		line 46 in file "lcd.c"
  8433 ;; Parameters:    Size  Location     Type
  8434 ;;		None
  8435 ;; Auto vars:     Size  Location     Type
  8436 ;;		None
  8437 ;; Return value:  Size  Location     Type
  8438 ;;                  1    wreg      void 
  8439 ;; Registers used:
  8440 ;;		wreg, status,2, status,0, pclath, cstack
  8441 ;; Tracked objects:
  8442 ;;		On entry : 0/0
  8443 ;;		On exit  : 0/0
  8444 ;;		Unchanged: 0/0
  8445 ;; Data sizes:     COMMON   BANK0   BANK1   BANK2   BANK3   BANK4   BANK5   BANK6   BANK7   BANK8   BANK9  BANK10  BANK1
      +1  BANK12
  8446 ;;      Params:         0       0       0       0       0       0       0       0       0       0       0       0       
      +0       0
  8447 ;;      Locals:         0       0       0       0       0       0       0       0       0       0       0       0       
      +0       0
  8448 ;;      Temps:          1       0       0       0       0       0       0       0       0       0       0       0       
      +0       0
  8449 ;;      Totals:         1       0       0       0       0       0       0       0       0       0       0       0       
      +0       0
  8450 ;;Total ram usage:        1 bytes
  8451 ;; Hardware stack levels used:    1
  8452 ;; Hardware stack levels required when called:    2
  8453 ;; This function calls:
  8454 ;;		_LCDPutCmd
  8455 ;; This function is called by:
  8456 ;;		_main
  8457 ;; This function uses a non-reentrant model
  8458 ;;
  8459                           
  8460                           
  8461                           ;psect for function _LCD_Initialize
  8462  0262                     _LCD_Initialize:
  8463  0262                     l2018:	
  8464                           ;incstack = 0
  8465                           ; Regs used in _LCD_Initialize: [wreg+status,2+status,0+pclath+cstack]
  8466                           
  8467                           
  8468                           ;lcd.c: 49:     PORTD = 0;
  8469  0262  0020               	movlb	0	; select bank0
  8470  0263  018F               	clrf	15	;volatile
  8471                           
  8472                           ;lcd.c: 51:     TRISD = 0x00;
  8473  0264  0021               	movlb	1	; select bank1
  8474  0265  018F               	clrf	15	;volatile
  8475  0266                     l2020:
  8476                           
  8477                           ;lcd.c: 54:     PORTDbits.RD7 = 1;
  8478  0266  0020               	movlb	0	; select bank0
  8479  0267  178F               	bsf	15,7	;volatile
  8480  0268                     l2022:
  8481                           
  8482                           ;lcd.c: 57:     _delay((unsigned long)((15)*(1000000/4000.0)));
  8483  0268  3005               	movlw	5
  8484  0269  00F7               	movwf	??_LCD_Initialize
  8485  026A  30DE               	movlw	222
  8486  026B                     u1247:
  8487  026B  0B89               	decfsz	9,f
  8488  026C  2A6B               	goto	u1247
  8489  026D  0BF7               	decfsz	??_LCD_Initialize,f
  8490  026E  2A6B               	goto	u1247
  8491  026F                     l2024:
  8492                           
  8493                           ;lcd.c: 60:     LCDPutCmd(0x32);
  8494  026F  3032               	movlw	50
  8495  0270  3182  2223  3182   	fcall	_LCDPutCmd
  8496  0273                     l2026:
  8497                           
  8498                           ;lcd.c: 63:     LCDPutCmd(0x28);
  8499  0273  3028               	movlw	40
  8500  0274  3182  2223  3182   	fcall	_LCDPutCmd
  8501  0277                     l2028:
  8502                           
  8503                           ;lcd.c: 66:     LCDPutCmd(0x0C);
  8504  0277  300C               	movlw	12
  8505  0278  3182  2223  3182   	fcall	_LCDPutCmd
  8506  027B                     l2030:
  8507                           
  8508                           ;lcd.c: 68:     LCDPutCmd(0x01);
  8509  027B  3001               	movlw	1
  8510  027C  3182  2223  3182   	fcall	_LCDPutCmd
  8511  027F                     l2032:
  8512                           
  8513                           ;lcd.c: 71:     LCDPutCmd(0x06);
  8514  027F  3006               	movlw	6
  8515  0280  3182  2223  3182   	fcall	_LCDPutCmd
  8516  0283                     l433:
  8517  0283  0008               	return
  8518  0284                     __end_of_LCD_Initialize:
  8519                           
  8520                           	psect	text40
  8521  0223                     __ptext40:	
  8522 ;; *************** function _LCDPutCmd *****************
  8523 ;; Defined at:
  8524 ;;		line 118 in file "lcd.c"
  8525 ;; Parameters:    Size  Location     Type
  8526 ;;  ch              1    wreg     unsigned char 
  8527 ;; Auto vars:     Size  Location     Type
  8528 ;;  ch              1    6[COMMON] unsigned char 
  8529 ;; Return value:  Size  Location     Type
  8530 ;;                  1    wreg      void 
  8531 ;; Registers used:
  8532 ;;		wreg, status,2, status,0, pclath, cstack
  8533 ;; Tracked objects:
  8534 ;;		On entry : 0/0
  8535 ;;		On exit  : 0/0
  8536 ;;		Unchanged: 0/0
  8537 ;; Data sizes:     COMMON   BANK0   BANK1   BANK2   BANK3   BANK4   BANK5   BANK6   BANK7   BANK8   BANK9  BANK10  BANK1
      +1  BANK12
  8538 ;;      Params:         0       0       0       0       0       0       0       0       0       0       0       0       
      +0       0
  8539 ;;      Locals:         1       0       0       0       0       0       0       0       0       0       0       0       
      +0       0
  8540 ;;      Temps:          2       0       0       0       0       0       0       0       0       0       0       0       
      +0       0
  8541 ;;      Totals:         3       0       0       0       0       0       0       0       0       0       0       0       
      +0       0
  8542 ;;Total ram usage:        3 bytes
  8543 ;; Hardware stack levels used:    1
  8544 ;; Hardware stack levels required when called:    1
  8545 ;; This function calls:
  8546 ;;		_LCDWriteNibble
  8547 ;; This function is called by:
  8548 ;;		_LCD_Initialize
  8549 ;;		_LCDGoto
  8550 ;; This function uses a non-reentrant model
  8551 ;;
  8552                           
  8553                           
  8554                           ;psect for function _LCDPutCmd
  8555  0223                     _LCDPutCmd:
  8556                           
  8557                           ;incstack = 0
  8558                           ; Regs used in _LCDPutCmd: [wreg+status,2+status,0+pclath+cstack]
  8559                           ;LCDPutCmd@ch stored from wreg
  8560  0223  00F6               	movwf	LCDPutCmd@ch
  8561  0224                     l1974:
  8562                           
  8563                           ;lcd.c: 118: void LCDPutCmd(uint8_t ch);lcd.c: 119: {;lcd.c: 120:     _delay((unsigned l
      +                          ong)((5)*(1000000/4000.0)));
  8564  0224  30FA               	movlw	250
  8565  0225                     u1257:
  8566  0225  3200               	nop2
  8567  0226  0B89               	decfsz	9,f
  8568  0227  2A25               	goto	u1257
  8569  0228                     l1976:
  8570                           
  8571                           ;lcd.c: 123:     LCDWriteNibble(ch,0);
  8572  0228  01F0               	clrf	LCDWriteNibble@rs
  8573  0229  0876               	movf	LCDPutCmd@ch,w
  8574  022A  3182  2242  3182   	fcall	_LCDWriteNibble
  8575  022D                     l1978:
  8576                           
  8577                           ;lcd.c: 126:     ch = (ch << 4);
  8578  022D  0876               	movf	LCDPutCmd@ch,w
  8579  022E  00F4               	movwf	??_LCDPutCmd
  8580  022F  3003               	movlw	3
  8581  0230                     u1015:
  8582  0230  35F4               	lslf	??_LCDPutCmd,f
  8583  0231  3EFF               	addlw	-1
  8584  0232  1D03               	skipz
  8585  0233  2A30               	goto	u1015
  8586  0234  3574               	lslf	??_LCDPutCmd,w
  8587  0235  00F5               	movwf	??_LCDPutCmd+1
  8588  0236  0875               	movf	??_LCDPutCmd+1,w
  8589  0237  00F6               	movwf	LCDPutCmd@ch
  8590  0238                     l1980:
  8591                           
  8592                           ;lcd.c: 128:     _delay((unsigned long)((1)*(1000000/4000.0)));
  8593  0238  3053               	movlw	83
  8594  0239                     u1267:
  8595  0239  0B89               	decfsz	9,f
  8596  023A  2A39               	goto	u1267
  8597  023B  0000               	nop
  8598  023C                     l1982:
  8599                           
  8600                           ;lcd.c: 131:     LCDWriteNibble(ch,0);
  8601  023C  01F0               	clrf	LCDWriteNibble@rs
  8602  023D  0876               	movf	LCDPutCmd@ch,w
  8603  023E  3182  2242  3182   	fcall	_LCDWriteNibble
  8604  0241                     l442:
  8605  0241  0008               	return
  8606  0242                     __end_of_LCDPutCmd:
  8607                           
  8608                           	psect	text41
  8609  02A6                     __ptext41:	
  8610 ;; *************** function _LCDPutStr *****************
  8611 ;; Defined at:
  8612 ;;		line 135 in file "lcd.c"
  8613 ;; Parameters:    Size  Location     Type
  8614 ;;  str             2    7[COMMON] PTR const unsigned char 
  8615 ;;		 -> STR_4(5), 
  8616 ;; Auto vars:     Size  Location     Type
  8617 ;;  i               1   12[COMMON] unsigned char 
  8618 ;; Return value:  Size  Location     Type
  8619 ;;                  1    wreg      void 
  8620 ;; Registers used:
  8621 ;;		wreg, fsr0l, fsr0h, status,2, status,0, pclath, cstack
  8622 ;; Tracked objects:
  8623 ;;		On entry : 0/0
  8624 ;;		On exit  : 0/0
  8625 ;;		Unchanged: 0/0
  8626 ;; Data sizes:     COMMON   BANK0   BANK1   BANK2   BANK3   BANK4   BANK5   BANK6   BANK7   BANK8   BANK9  BANK10  BANK1
      +1  BANK12
  8627 ;;      Params:         2       0       0       0       0       0       0       0       0       0       0       0       
      +0       0
  8628 ;;      Locals:         1       0       0       0       0       0       0       0       0       0       0       0       
      +0       0
  8629 ;;      Temps:          3       0       0       0       0       0       0       0       0       0       0       0       
      +0       0
  8630 ;;      Totals:         6       0       0       0       0       0       0       0       0       0       0       0       
      +0       0
  8631 ;;Total ram usage:        6 bytes
  8632 ;; Hardware stack levels used:    1
  8633 ;; Hardware stack levels required when called:    2
  8634 ;; This function calls:
  8635 ;;		_LCDPutChar
  8636 ;; This function is called by:
  8637 ;;		_main
  8638 ;; This function uses a non-reentrant model
  8639 ;;
  8640                           
  8641                           
  8642                           ;psect for function _LCDPutStr
  8643  02A6                     _LCDPutStr:
  8644  02A6                     l2048:	
  8645                           ;incstack = 0
  8646                           ; Regs used in _LCDPutStr: [wreg-fsr0h+status,2+status,0+pclath+cstack]
  8647                           
  8648                           
  8649                           ;lcd.c: 135: void LCDPutStr(const char *str);lcd.c: 136: {;lcd.c: 137:     uint8_t i=0;
  8650  02A6  01FC               	clrf	LCDPutStr@i
  8651                           
  8652                           ;lcd.c: 140:     while (str[i])
  8653  02A7  2ABB               	goto	l2054
  8654  02A8                     l2050:
  8655                           
  8656                           ;lcd.c: 141:     {;lcd.c: 143:         LCDPutChar(str[i++]);
  8657  02A8  0878               	movf	LCDPutStr@str+1,w
  8658  02A9  00FA               	movwf	??_LCDPutStr+1
  8659  02AA  0877               	movf	LCDPutStr@str,w
  8660  02AB  00F9               	movwf	??_LCDPutStr
  8661  02AC  087C               	movf	LCDPutStr@i,w
  8662  02AD  0779               	addwf	??_LCDPutStr,w
  8663  02AE  0084               	movwf	4
  8664  02AF  087A               	movf	??_LCDPutStr+1,w
  8665  02B0  1803               	skipnc
  8666  02B1  0A7A               	incf	??_LCDPutStr+1,w
  8667  02B2  0085               	movwf	5
  8668  02B3  0800               	movf	0,w	;code access
  8669  02B4  3182  2206  3182   	fcall	_LCDPutChar
  8670  02B7                     l2052:
  8671  02B7  3001               	movlw	1
  8672  02B8  00F9               	movwf	??_LCDPutStr
  8673  02B9  0879               	movf	??_LCDPutStr,w
  8674  02BA  07FC               	addwf	LCDPutStr@i,f
  8675  02BB                     l2054:
  8676                           
  8677                           ;lcd.c: 140:     while (str[i])
  8678  02BB  0878               	movf	LCDPutStr@str+1,w
  8679  02BC  00FA               	movwf	??_LCDPutStr+1
  8680  02BD  0877               	movf	LCDPutStr@str,w
  8681  02BE  00F9               	movwf	??_LCDPutStr
  8682  02BF  087C               	movf	LCDPutStr@i,w
  8683  02C0  0779               	addwf	??_LCDPutStr,w
  8684  02C1  0084               	movwf	4
  8685  02C2  087A               	movf	??_LCDPutStr+1,w
  8686  02C3  1803               	skipnc
  8687  02C4  0A7A               	incf	??_LCDPutStr+1,w
  8688  02C5  0085               	movwf	5
  8689  02C6  0012               	moviw fsr0++
  8690  02C7  1D03               	btfss	3,2
  8691  02C8  2ACA               	goto	u1061
  8692  02C9  2ACB               	goto	u1060
  8693  02CA                     u1061:
  8694  02CA  2AA8               	goto	l2050
  8695  02CB                     u1060:
  8696  02CB                     l448:
  8697  02CB  0008               	return
  8698  02CC                     __end_of_LCDPutStr:
  8699                           
  8700                           	psect	text42
  8701  0206                     __ptext42:	
  8702 ;; *************** function _LCDPutChar *****************
  8703 ;; Defined at:
  8704 ;;		line 103 in file "lcd.c"
  8705 ;; Parameters:    Size  Location     Type
  8706 ;;  ch              1    wreg     unsigned char 
  8707 ;; Auto vars:     Size  Location     Type
  8708 ;;  ch              1    6[COMMON] unsigned char 
  8709 ;; Return value:  Size  Location     Type
  8710 ;;                  1    wreg      void 
  8711 ;; Registers used:
  8712 ;;		wreg, status,2, status,0, pclath, cstack
  8713 ;; Tracked objects:
  8714 ;;		On entry : 0/0
  8715 ;;		On exit  : 0/0
  8716 ;;		Unchanged: 0/0
  8717 ;; Data sizes:     COMMON   BANK0   BANK1   BANK2   BANK3   BANK4   BANK5   BANK6   BANK7   BANK8   BANK9  BANK10  BANK1
      +1  BANK12
  8718 ;;      Params:         0       0       0       0       0       0       0       0       0       0       0       0       
      +0       0
  8719 ;;      Locals:         1       0       0       0       0       0       0       0       0       0       0       0       
      +0       0
  8720 ;;      Temps:          2       0       0       0       0       0       0       0       0       0       0       0       
      +0       0
  8721 ;;      Totals:         3       0       0       0       0       0       0       0       0       0       0       0       
      +0       0
  8722 ;;Total ram usage:        3 bytes
  8723 ;; Hardware stack levels used:    1
  8724 ;; Hardware stack levels required when called:    1
  8725 ;; This function calls:
  8726 ;;		_LCDWriteNibble
  8727 ;; This function is called by:
  8728 ;;		_LCDPutStr
  8729 ;; This function uses a non-reentrant model
  8730 ;;
  8731                           
  8732                           
  8733                           ;psect for function _LCDPutChar
  8734  0206                     _LCDPutChar:
  8735                           
  8736                           ;incstack = 0
  8737                           ; Regs used in _LCDPutChar: [wreg+status,2+status,0+pclath+cstack]
  8738                           ;LCDPutChar@ch stored from wreg
  8739  0206  00F6               	movwf	LCDPutChar@ch
  8740  0207                     l1984:
  8741                           
  8742                           ;lcd.c: 103: void LCDPutChar(uint8_t ch);lcd.c: 104: {;lcd.c: 105:     _delay((unsigned 
      +                          long)((5)*(1000000/4000.0)));
  8743  0207  30FA               	movlw	250
  8744  0208                     u1277:
  8745  0208  3200               	nop2
  8746  0209  0B89               	decfsz	9,f
  8747  020A  2A08               	goto	u1277
  8748  020B                     l1986:
  8749                           
  8750                           ;lcd.c: 108:     LCDWriteNibble(ch,1);
  8751  020B  01F0               	clrf	LCDWriteNibble@rs
  8752  020C  0AF0               	incf	LCDWriteNibble@rs,f
  8753  020D  0876               	movf	LCDPutChar@ch,w
  8754  020E  3182  2242  3182   	fcall	_LCDWriteNibble
  8755  0211                     l1988:
  8756                           
  8757                           ;lcd.c: 111:     ch = (ch << 4);
  8758  0211  0876               	movf	LCDPutChar@ch,w
  8759  0212  00F4               	movwf	??_LCDPutChar
  8760  0213  3003               	movlw	3
  8761  0214                     u1025:
  8762  0214  35F4               	lslf	??_LCDPutChar,f
  8763  0215  3EFF               	addlw	-1
  8764  0216  1D03               	skipz
  8765  0217  2A14               	goto	u1025
  8766  0218  3574               	lslf	??_LCDPutChar,w
  8767  0219  00F5               	movwf	??_LCDPutChar+1
  8768  021A  0875               	movf	??_LCDPutChar+1,w
  8769  021B  00F6               	movwf	LCDPutChar@ch
  8770  021C                     l1990:
  8771                           
  8772                           ;lcd.c: 114:     LCDWriteNibble(ch,1);
  8773  021C  01F0               	clrf	LCDWriteNibble@rs
  8774  021D  0AF0               	incf	LCDWriteNibble@rs,f
  8775  021E  0876               	movf	LCDPutChar@ch,w
  8776  021F  3182  2242  3182   	fcall	_LCDWriteNibble
  8777  0222                     l439:
  8778  0222  0008               	return
  8779  0223                     __end_of_LCDPutChar:
  8780                           
  8781                           	psect	text43
  8782  0242                     __ptext43:	
  8783 ;; *************** function _LCDWriteNibble *****************
  8784 ;; Defined at:
  8785 ;;		line 76 in file "lcd.c"
  8786 ;; Parameters:    Size  Location     Type
  8787 ;;  ch              1    wreg     unsigned char 
  8788 ;;  rs              1    0[COMMON] unsigned char 
  8789 ;; Auto vars:     Size  Location     Type
  8790 ;;  ch              1    3[COMMON] unsigned char 
  8791 ;; Return value:  Size  Location     Type
  8792 ;;                  1    wreg      void 
  8793 ;; Registers used:
  8794 ;;		wreg, status,2, status,0
  8795 ;; Tracked objects:
  8796 ;;		On entry : 0/0
  8797 ;;		On exit  : 0/0
  8798 ;;		Unchanged: 0/0
  8799 ;; Data sizes:     COMMON   BANK0   BANK1   BANK2   BANK3   BANK4   BANK5   BANK6   BANK7   BANK8   BANK9  BANK10  BANK1
      +1  BANK12
  8800 ;;      Params:         1       0       0       0       0       0       0       0       0       0       0       0       
      +0       0
  8801 ;;      Locals:         1       0       0       0       0       0       0       0       0       0       0       0       
      +0       0
  8802 ;;      Temps:          2       0       0       0       0       0       0       0       0       0       0       0       
      +0       0
  8803 ;;      Totals:         4       0       0       0       0       0       0       0       0       0       0       0       
      +0       0
  8804 ;;Total ram usage:        4 bytes
  8805 ;; Hardware stack levels used:    1
  8806 ;; This function calls:
  8807 ;;		Nothing
  8808 ;; This function is called by:
  8809 ;;		_LCDPutChar
  8810 ;;		_LCDPutCmd
  8811 ;; This function uses a non-reentrant model
  8812 ;;
  8813                           
  8814                           
  8815                           ;psect for function _LCDWriteNibble
  8816  0242                     _LCDWriteNibble:
  8817                           
  8818                           ;incstack = 0
  8819                           ; Regs used in _LCDWriteNibble: [wreg+status,2+status,0]
  8820                           ;LCDWriteNibble@ch stored from wreg
  8821  0242  00F3               	movwf	LCDWriteNibble@ch
  8822  0243                     l1748:
  8823                           
  8824                           ;lcd.c: 76: void LCDWriteNibble(uint8_t ch,uint8_t rs);lcd.c: 77: {;lcd.c: 79:     ch = 
      +                          (ch >> 4);
  8825  0243  0873               	movf	LCDWriteNibble@ch,w
  8826  0244  00F1               	movwf	??_LCDWriteNibble
  8827  0245  3004               	movlw	4
  8828  0246                     u815:
  8829  0246  36F1               	lsrf	??_LCDWriteNibble,f
  8830  0247  0B89               	decfsz	9,f
  8831  0248  2A46               	goto	u815
  8832  0249  0871               	movf	??_LCDWriteNibble,w
  8833  024A  00F2               	movwf	??_LCDWriteNibble+1
  8834  024B  0872               	movf	??_LCDWriteNibble+1,w
  8835  024C  00F3               	movwf	LCDWriteNibble@ch
  8836  024D                     l1750:
  8837                           
  8838                           ;lcd.c: 82:     ch = (ch & 0x0F);
  8839  024D  0873               	movf	LCDWriteNibble@ch,w
  8840  024E  390F               	andlw	15
  8841  024F  00F1               	movwf	??_LCDWriteNibble
  8842  0250  0871               	movf	??_LCDWriteNibble,w
  8843  0251  00F3               	movwf	LCDWriteNibble@ch
  8844  0252                     l1752:
  8845                           
  8846                           ;lcd.c: 85:     PORTD = (PORTD & 0xF0);
  8847  0252  0020               	movlb	0	; select bank0
  8848  0253  080F               	movf	15,w	;volatile
  8849  0254  39F0               	andlw	240
  8850  0255  008F               	movwf	15	;volatile
  8851                           
  8852                           ;lcd.c: 88:     PORTD = (PORTD | ch);
  8853  0256  080F               	movf	15,w	;volatile
  8854  0257  0473               	iorwf	LCDWriteNibble@ch,w
  8855  0258  008F               	movwf	15	;volatile
  8856  0259                     l1754:
  8857                           
  8858                           ;lcd.c: 91:     PORTDbits.RD5 = rs;
  8859  0259  0C70               	rrf	LCDWriteNibble@rs,w
  8860  025A  1C03               	skipc
  8861  025B  128F               	bcf	15,5	;volatile
  8862  025C  1803               	skipnc
  8863  025D  168F               	bsf	15,5	;volatile
  8864  025E                     l1756:
  8865                           
  8866                           ;lcd.c: 94:     PORTDbits.RD6 = 0;
  8867  025E  130F               	bcf	15,6	;volatile
  8868  025F                     l1758:
  8869                           
  8870                           ;lcd.c: 97:     PORTDbits.RD4 = 1;
  8871  025F  160F               	bsf	15,4	;volatile
  8872  0260                     l1760:
  8873                           
  8874                           ;lcd.c: 100:     PORTDbits.RD4 = 0;
  8875  0260  120F               	bcf	15,4	;volatile
  8876  0261                     l436:
  8877  0261  0008               	return
  8878  0262                     __end_of_LCDWriteNibble:
  8879  007E                     btemp	set	126	;btemp
  8880  007E                     wtemp0	set	126
  8881                           
  8882                           	psect	config
  8883                           
  8884                           ;Config register CONFIG1 @ 0x8007
  8885                           ;	Oscillator Selection Bits
  8886                           ;	FOSC = INTOSC, INTOSC oscillator: I/O function on CLKIN pin
  8887                           ;	Watchdog Timer Enable
  8888                           ;	WDTE = OFF, WDT disabled
  8889                           ;	Power-up Timer Enable
  8890                           ;	PWRTE = OFF, PWRT disabled
  8891                           ;	MCLR Pin Function Select
  8892                           ;	MCLRE = ON, MCLR/VPP pin function is MCLR
  8893                           ;	Flash Program Memory Code Protection
  8894                           ;	CP = OFF, Program memory code protection is disabled
  8895                           ;	Brown-out Reset Enable
  8896                           ;	BOREN = ON, Brown-out Reset enabled
  8897                           ;	Clock Out Enable
  8898                           ;	CLKOUTEN = OFF, CLKOUT function is disabled. I/O or oscillator function on the CLKOUT 
      +                          pin
  8899                           ;	Internal/External Switchover Mode
  8900                           ;	IESO = ON, Internal/External Switchover Mode is enabled
  8901                           ;	Fail-Safe Clock Monitor Enable
  8902                           ;	FCMEN = ON, Fail-Safe Clock Monitor is enabled
  8903  8007                     	org	32775
  8904  8007  3FE4               	dw	16356
  8905                           
  8906                           ;Config register CONFIG2 @ 0x8008
  8907                           ;	Flash Memory Self-Write Protection
  8908                           ;	WRT = OFF, Write protection off
  8909                           ;	Peripheral Pin Select one-way control
  8910                           ;	PPS1WAY = ON, The PPSLOCK bit cannot be cleared once it is set by software
  8911                           ;	Zero-cross detect disable
  8912                           ;	ZCDDIS = ON, Zero-cross detect circuit is disabled at POR and can be enabled with ZCDS
      +                          EN bit.
  8913                           ;	Phase Lock Loop enable
  8914                           ;	PLLEN = OFF, 4x PLL is enabled when software sets the SPLLEN bit
  8915                           ;	Stack Overflow/Underflow Reset Enable
  8916                           ;	STVREN = ON, Stack Overflow or Underflow will cause a Reset
  8917                           ;	Brown-out Reset Voltage Selection
  8918                           ;	BORV = LO, Brown-out Reset Voltage (Vbor), low trip point selected.
  8919                           ;	Low-Power Brown Out Reset
  8920                           ;	LPBOR = OFF, Low-Power BOR is disabled
  8921                           ;	Low-Voltage Programming Enable
  8922                           ;	LVP = ON, Low-voltage programming enabled
  8923  8008                     	org	32776
  8924  8008  3EFF               	dw	16127

Data Sizes:
    Strings     118
    Constant    0
    Data        7
    BSS         70
    Persistent  38
    Stack       0

Auto Spaces:
    Space          Size  Autos    Used
    COMMON           14     14      14
    BANK0            80     68      79
    BANK1            80      0      72
    BANK2            80      0       0
    BANK3            80      0       0
    BANK4            80      0       0
    BANK5            80      0       0
    BANK6            80      0       0
    BANK7            80      0       0
    BANK8            80      0       0
    BANK9            80      0       0
    BANK10           80      0       0
    BANK11           80      0       0
    BANK12           48      0       0

Pointer List with Targets:

    ADC_InterruptHandler	PTR FTN()void  size(2) Largest target is 1
		 -> Absolute function(), 

    strlen@s	PTR const unsigned char  size(2) Largest target is 12
		 -> stoa@nuls(BANK0[7]), ?_printf(BANK0[2]), STR_6(CODE[12]), STR_5(CODE[6]), 

    strlen@a	PTR const unsigned char  size(2) Largest target is 12
		 -> stoa@nuls(BANK0[7]), ?_printf(BANK0[2]), STR_6(CODE[12]), STR_5(CODE[6]), 

    S1108_IO_FILE$buffer	PTR unsigned char  size(1) Largest target is 0

    fputc@fp.buffer	PTR unsigned char  size(1) Largest target is 0

    fputc@fp	PTR struct _IO_FILE size(1) Largest target is 0
		 -> NULL(NULL[0]), 

    vfprintf@ap	PTR PTR void  size(1) Largest target is 1
		 -> printf@ap(BANK0[1]), 

    vfprintf@fp	PTR struct _IO_FILE size(1) Largest target is 0
		 -> NULL(NULL[0]), 

    vfprintf@fmt	PTR const unsigned char  size(2) Largest target is 34
		 -> STR_9(CODE[9]), STR_8(CODE[9]), STR_7(CODE[9]), STR_3(CODE[6]), 
		 -> STR_2(CODE[28]), STR_1(CODE[34]), 

    vfprintf@cfmt	PTR unsigned char  size(2) Largest target is 34
		 -> STR_9(CODE[9]), STR_8(CODE[9]), STR_7(CODE[9]), STR_3(CODE[6]), 
		 -> STR_2(CODE[28]), STR_1(CODE[34]), 

    vfpfcnvrt@fp	PTR struct _IO_FILE size(1) Largest target is 0
		 -> NULL(NULL[0]), 

    vfpfcnvrt@ap	PTR PTR void  size(1) Largest target is 1
		 -> printf@ap(BANK0[1]), 

    vfpfcnvrt@cp	PTR unsigned char  size(2) Largest target is 12
		 -> ?_printf(BANK0[2]), STR_6(CODE[12]), STR_5(CODE[6]), 

    vfpfcnvrt@fmt	PTR PTR unsigned char  size(1) Largest target is 2
		 -> vfprintf@cfmt(BANK0[2]), 

    stoa@fp	PTR struct _IO_FILE size(1) Largest target is 0
		 -> NULL(NULL[0]), 

    stoa@s	PTR unsigned char  size(2) Largest target is 12
		 -> ?_printf(BANK0[2]), STR_6(CODE[12]), STR_5(CODE[6]), 

    stoa@cp	PTR unsigned char  size(2) Largest target is 12
		 -> stoa@nuls(BANK0[7]), ?_printf(BANK0[2]), STR_6(CODE[12]), STR_5(CODE[6]), 

    printf@fmt	PTR const unsigned char  size(2) Largest target is 34
		 -> STR_9(CODE[9]), STR_8(CODE[9]), STR_7(CODE[9]), STR_3(CODE[6]), 
		 -> STR_2(CODE[28]), STR_1(CODE[34]), 

    printf@ap	PTR void [1] size(1) Largest target is 2
		 -> ?_printf(BANK0[2]), 

    LCDPutStr@str	PTR const unsigned char  size(2) Largest target is 5
		 -> STR_4(CODE[5]), 

    initialize_led@led.set_color	PTR FTN(int ,)void  size(2) Largest target is 1
		 -> set_color(), 

    initialize_led@led.set_brightness	PTR FTN(int ,)void  size(2) Largest target is 1
		 -> set_brightness(), 

    initialize_led@led	PTR struct led size(1) Largest target is 4
		 -> led_var(BANK1[4]), 

    initialize_lcd_screen@lcd_screen_var.demo3	PTR FTN()void  size(2) Largest target is 1
		 -> demo3(), 

    initialize_lcd_screen@lcd_screen_var.demo2	PTR FTN()void  size(2) Largest target is 1
		 -> demo2(), 

    initialize_lcd_screen@lcd_screen_var.demo1	PTR FTN()void  size(2) Largest target is 1
		 -> demo1(), 

    initialize_lcd_screen@lcd_screen_var	PTR struct lcd_screen size(1) Largest target is 6
		 -> lcd_screen_var(BANK1[6]), 

    initialize_temp@sensor_var.read	PTR FTN()int  size(2) Largest target is 2
		 -> read@temp_sensor$F636(), read(), 

    initialize_temp@sensor_var.open	PTR FTN()_Bool  size(2) Largest target is 1
		 -> open@temp_sensor$F633(), open(), 

    initialize_temp@sensor_var.name	PTR unsigned char  size(2) Largest target is 12
		 -> STR_6(CODE[12]), STR_5(CODE[6]), 

    initialize_temp@sensor_var	PTR struct sensor size(1) Largest target is 6
		 -> temp_sensor(BANK1[6]), 

    initialize_light@sensor_var.read	PTR FTN()int  size(2) Largest target is 2
		 -> read@temp_sensor$F636(), read(), 

    initialize_light@sensor_var.open	PTR FTN()_Bool  size(2) Largest target is 1
		 -> open@temp_sensor$F633(), open(), 

    initialize_light@sensor_var.name	PTR unsigned char  size(2) Largest target is 12
		 -> STR_6(CODE[12]), STR_5(CODE[6]), 

    initialize_light@sensor_var	PTR struct sensor size(1) Largest target is 6
		 -> light_sensor(BANK1[6]), 

    main@names_pointer	PTR PTR unsigned char  size(1) Largest target is 6
		 -> main@sensor_names(BANK0[6]), 

    main@sensor_names	PTR unsigned char [3] size(2) Largest target is 12
		 -> STR_6(CODE[12]), STR_5(CODE[6]), 

    S507led$set_color	PTR FTN(int ,)void  size(2) Largest target is 1
		 -> set_color(), 

    led_var.set_color	PTR FTN(int ,)void  size(2) Largest target is 1
		 -> set_color(), 

    S507led$set_brightness	PTR FTN(int ,)void  size(2) Largest target is 1
		 -> set_brightness(), 

    led_var.set_brightness	PTR FTN(int ,)void  size(2) Largest target is 1
		 -> set_brightness(), 

    S501lcd_screen$demo3	PTR FTN()void  size(2) Largest target is 1
		 -> demo3(), 

    lcd_screen_var.demo3	PTR FTN()void  size(2) Largest target is 1
		 -> demo3(), 

    S501lcd_screen$demo2	PTR FTN()void  size(2) Largest target is 1
		 -> demo2(), 

    lcd_screen_var.demo2	PTR FTN()void  size(2) Largest target is 1
		 -> demo2(), 

    S501lcd_screen$demo1	PTR FTN()void  size(2) Largest target is 1
		 -> demo1(), 

    lcd_screen_var.demo1	PTR FTN()void  size(2) Largest target is 1
		 -> demo1(), 

    temp_sensor.read	PTR FTN()int  size(2) Largest target is 2
		 -> read@temp_sensor$F636(), read(), 

    temp_sensor.open	PTR FTN()_Bool  size(2) Largest target is 1
		 -> open@temp_sensor$F633(), open(), 

    temp_sensor.name	PTR unsigned char  size(2) Largest target is 12
		 -> STR_6(CODE[12]), STR_5(CODE[6]), 

    S494sensor$read	PTR FTN()int  size(2) Largest target is 2
		 -> read@temp_sensor$F636(), read(), 

    light_sensor.read	PTR FTN()int  size(2) Largest target is 2
		 -> read@temp_sensor$F636(), read(), 

    S494sensor$open	PTR FTN()_Bool  size(2) Largest target is 1
		 -> open@temp_sensor$F633(), open(), 

    light_sensor.open	PTR FTN()_Bool  size(2) Largest target is 1
		 -> open@temp_sensor$F633(), open(), 

    S494sensor$name	PTR unsigned char  size(2) Largest target is 12
		 -> STR_6(CODE[12]), STR_5(CODE[6]), 

    light_sensor.name	PTR unsigned char  size(2) Largest target is 12
		 -> STR_6(CODE[12]), STR_5(CODE[6]), 

    EUSART_SetErrorHandler@interruptHandler	PTR FTN()void  size(2) Largest target is 1
		 -> EUSART_DefaultErrorHandler(), 

    EUSART_ErrorHandler	PTR FTN()void  size(2) Largest target is 1
		 -> Absolute function(), EUSART_DefaultErrorHandler(), 

    EUSART_SetOverrunErrorHandler@interruptHandler	PTR FTN()void  size(2) Largest target is 1
		 -> EUSART_DefaultOverrunErrorHandler(), 

    EUSART_OverrunErrorHandler	PTR FTN()void  size(2) Largest target is 1
		 -> Absolute function(), EUSART_DefaultOverrunErrorHandler(), 

    EUSART_SetFramingErrorHandler@interruptHandler	PTR FTN()void  size(2) Largest target is 1
		 -> EUSART_DefaultFramingErrorHandler(), 

    EUSART_FramingErrorHandler	PTR FTN()void  size(2) Largest target is 1
		 -> Absolute function(), EUSART_DefaultFramingErrorHandler(), 


Critical Paths under _main in COMMON

    _main->_set_brightness
    _main->_set_color
    _turn_red->_turn_selectors
    _turn_green->_turn_selectors
    _turn_blue->_turn_selectors
    _map->___aldiv
    ___aldiv->___lmul
    _read@temp_sensor$F636->_ADC_GetConversion
    _read->_ADC_GetConversion
    _vfprintf->_vfpfcnvrt
    _vfpfcnvrt->_stoa
    _stoa->_fputc
    _fputc->_putch
    _putch->_EUSART_Write
    _open@temp_sensor$F633->_ADC_GetConversion
    _open->_ADC_GetConversion
    _EUSART_Initialize->_EUSART_SetErrorHandler
    _EUSART_Initialize->_EUSART_SetFramingErrorHandler
    _EUSART_Initialize->_EUSART_SetOverrunErrorHandler
    _LCD_Initialize->_LCDPutCmd
    _LCDPutCmd->_LCDWriteNibble
    _LCDPutStr->_LCDPutChar
    _LCDPutChar->_LCDWriteNibble

Critical Paths under _main in BANK0

    _main->_set_brightness
    _main->_set_color
    _set_color->_map
    _set_brightness->_map
    _map->___aldiv
    _printf->_vfprintf
    _vfprintf->_vfpfcnvrt
    _vfpfcnvrt->_stoa

Critical Paths under _main in BANK1

    None.

Critical Paths under _main in BANK2

    None.

Critical Paths under _main in BANK3

    None.

Critical Paths under _main in BANK4

    None.

Critical Paths under _main in BANK5

    None.

Critical Paths under _main in BANK6

    None.

Critical Paths under _main in BANK7

    None.

Critical Paths under _main in BANK8

    None.

Critical Paths under _main in BANK9

    None.

Critical Paths under _main in BANK10

    None.

Critical Paths under _main in BANK11

    None.

Critical Paths under _main in BANK12

    None.

Call Graph Tables:

 ---------------------------------------------------------------------------------
 (Depth) Function   	        Calls       Base Space   Used Autos Params    Refs
 ---------------------------------------------------------------------------------
 (0) _main                                                16    16      0   11973
                                             52 BANK0     16    16      0
                          _LCDPutStr
                     _LCD_Initialize
                  _SYSTEM_Initialize
              _initialize_lcd_screen
                     _initialize_led
                   _initialize_light
                    _initialize_temp
                               _open *
              _open@temp_sensor$F633 *
                             _printf
                               _read *
              _read@temp_sensor$F636 *
                     _set_brightness *
                          _set_color *
 ---------------------------------------------------------------------------------
 (1) _set_color                                            5     3      2    3014
                                             13 COMMON     1     1      0
                                             48 BANK0      4     2      2
                                _map
                          _turn_blue
                         _turn_green
                           _turn_red
 ---------------------------------------------------------------------------------
 (2) _turn_red                                             0     0      0     272
                     _turn_selectors
 ---------------------------------------------------------------------------------
 (2) _turn_green                                           0     0      0     272
                     _turn_selectors
 ---------------------------------------------------------------------------------
 (2) _turn_blue                                            0     0      0     272
                     _turn_selectors
 ---------------------------------------------------------------------------------
 (3) _turn_selectors                                       2     1      1     272
                                              0 COMMON     2     1      1
 ---------------------------------------------------------------------------------
 (1) _set_brightness                                       5     3      2    2231
                                             13 COMMON     1     1      0
                                             48 BANK0      4     2      2
                 _PWM3_LoadDutyValue
                                _map
 ---------------------------------------------------------------------------------
 (2) _map                                                 34    16     18    1990
                                             14 BANK0     34    16     18
                            ___aldiv
                             ___lmul
 ---------------------------------------------------------------------------------
 (3) ___lmul                                              12     4      8     244
                                              0 COMMON    12     4      8
 ---------------------------------------------------------------------------------
 (3) ___aldiv                                             15     7      8     452
                                             12 COMMON     1     1      0
                                              0 BANK0     14     6      8
                             ___lmul (ARG)
 ---------------------------------------------------------------------------------
 (2) _PWM3_LoadDutyValue                                   4     2      2     120
                                              0 COMMON     4     2      2
 ---------------------------------------------------------------------------------
 (1) _read@temp_sensor$F636                                2     0      2      22
                                              4 COMMON     2     0      2
                  _ADC_GetConversion
 ---------------------------------------------------------------------------------
 (1) _read                                                 2     0      2      22
                                              4 COMMON     2     0      2
                  _ADC_GetConversion
 ---------------------------------------------------------------------------------
 (1) _printf                                               8     4      4    4536
                                             37 BANK0      8     4      4
                           _vfprintf
 ---------------------------------------------------------------------------------
 (2) _vfprintf                                             8     5      3    4026
                                             29 BANK0      8     5      3
                          _vfpfcnvrt
 ---------------------------------------------------------------------------------
 (3) _vfpfcnvrt                                           40    38      2    3699
                                             12 COMMON     2     0      2
                                             21 BANK0      8     8      0
                              _fputc
                               _stoa
 ---------------------------------------------------------------------------------
 (4) _stoa                                                23    21      2    1972
                                             10 COMMON     2     0      2
                                              0 BANK0     21    21      0
                              _fputc
                             _strlen
 ---------------------------------------------------------------------------------
 (5) _strlen                                               5     3      2     169
                                              0 COMMON     5     3      2
 ---------------------------------------------------------------------------------
 (5) _fputc                                                8     5      3    1216
                                              2 COMMON     8     5      3
                              _putch
 ---------------------------------------------------------------------------------
 (6) _putch                                                1     1      0      44
                                              1 COMMON     1     1      0
                       _EUSART_Write
 ---------------------------------------------------------------------------------
 (7) _EUSART_Write                                         1     1      0      22
                                              0 COMMON     1     1      0
 ---------------------------------------------------------------------------------
 (1) _open@temp_sensor$F633                                5     5      0      68
                                              4 COMMON     5     5      0
                  _ADC_GetConversion
 ---------------------------------------------------------------------------------
 (1) _open                                                 5     5      0      68
                                              4 COMMON     5     5      0
                  _ADC_GetConversion
 ---------------------------------------------------------------------------------
 (2) _ADC_GetConversion                                    4     2      2      22
                                              0 COMMON     4     2      2
 ---------------------------------------------------------------------------------
 (1) _initialize_temp                                      1     1      0      99
                                              0 COMMON     1     1      0
 ---------------------------------------------------------------------------------
 (1) _initialize_light                                     1     1      0      99
                                              0 COMMON     1     1      0
 ---------------------------------------------------------------------------------
 (1) _initialize_led                                       1     1      0      77
                                              0 COMMON     1     1      0
 ---------------------------------------------------------------------------------
 (1) _initialize_lcd_screen                                1     1      0      99
                                              0 COMMON     1     1      0
 ---------------------------------------------------------------------------------
 (1) _SYSTEM_Initialize                                    0     0      0     294
                     _ADC_Initialize
                  _EUSART_Initialize
              _OSCILLATOR_Initialize
             _PIN_MANAGER_Initialize
                    _PWM3_Initialize
                    _TMR4_Initialize
                     _WDT_Initialize
 ---------------------------------------------------------------------------------
 (2) _WDT_Initialize                                       0     0      0       0
 ---------------------------------------------------------------------------------
 (2) _TMR4_Initialize                                      0     0      0       0
 ---------------------------------------------------------------------------------
 (2) _PWM3_Initialize                                      0     0      0       0
 ---------------------------------------------------------------------------------
 (2) _PIN_MANAGER_Initialize                               0     0      0       0
 ---------------------------------------------------------------------------------
 (2) _OSCILLATOR_Initialize                                0     0      0       0
 ---------------------------------------------------------------------------------
 (2) _EUSART_Initialize                                    0     0      0     294
             _EUSART_SetErrorHandler
      _EUSART_SetFramingErrorHandler
      _EUSART_SetOverrunErrorHandler
 ---------------------------------------------------------------------------------
 (3) _EUSART_SetOverrunErrorHandler                        2     0      2      98
                                              0 COMMON     2     0      2
 ---------------------------------------------------------------------------------
 (3) _EUSART_SetFramingErrorHandler                        2     0      2      98
                                              0 COMMON     2     0      2
 ---------------------------------------------------------------------------------
 (3) _EUSART_SetErrorHandler                               2     0      2      98
                                              0 COMMON     2     0      2
 ---------------------------------------------------------------------------------
 (2) _ADC_Initialize                                       0     0      0       0
 ---------------------------------------------------------------------------------
 (1) _LCD_Initialize                                       1     1      0     461
                                              7 COMMON     1     1      0
                          _LCDPutCmd
 ---------------------------------------------------------------------------------
 (2) _LCDPutCmd                                            3     3      0     461
                                              4 COMMON     3     3      0
                     _LCDWriteNibble
 ---------------------------------------------------------------------------------
 (1) _LCDPutStr                                            6     4      2     627
                                              7 COMMON     6     4      2
                         _LCDPutChar
 ---------------------------------------------------------------------------------
 (2) _LCDPutChar                                           3     3      0     461
                                              4 COMMON     3     3      0
                     _LCDWriteNibble
 ---------------------------------------------------------------------------------
 (3) _LCDWriteNibble                                       4     3      1     394
                                              0 COMMON     4     3      1
 ---------------------------------------------------------------------------------
 Estimated maximum stack depth 7
 ---------------------------------------------------------------------------------

 Call Graph Graphs:

 _main (ROOT)
   _LCDPutStr
     _LCDPutChar
       _LCDWriteNibble
   _LCD_Initialize
     _LCDPutCmd
       _LCDWriteNibble
   _SYSTEM_Initialize
     _ADC_Initialize
     _EUSART_Initialize
       _EUSART_SetErrorHandler
       _EUSART_SetFramingErrorHandler
       _EUSART_SetOverrunErrorHandler
     _OSCILLATOR_Initialize
     _PIN_MANAGER_Initialize
     _PWM3_Initialize
     _TMR4_Initialize
     _WDT_Initialize
   _initialize_lcd_screen
   _initialize_led
   _initialize_light
   _initialize_temp
   _open *
     _ADC_GetConversion
   _open@temp_sensor$F633 *
     _ADC_GetConversion
   _printf *
     _vfprintf
       _vfpfcnvrt
         _fputc
           _putch
             _EUSART_Write
         _stoa
           _fputc
             _putch
               _EUSART_Write
           _strlen
   _read *
     _ADC_GetConversion
   _read@temp_sensor$F636 *
     _ADC_GetConversion
   _set_brightness *
     _PWM3_LoadDutyValue
     _map
       ___aldiv
         ___lmul (ARG)
       ___lmul
   _set_color *
     _map
       ___aldiv
         ___lmul (ARG)
       ___lmul
     _turn_blue
       _turn_selectors
     _turn_green
       _turn_selectors
     _turn_red
       _turn_selectors

 Address spaces:
Name               Size   Autos  Total    Cost      Usage
BIGRAM             3F0      0       0       0        0.0%
NULL                 0      0       0       0        0.0%
CODE                 0      0       0       0        0.0%
BITCOMMON            E      0       0       1        0.0%
BITSFR0              0      0       0       1        0.0%
SFR0                 0      0       0       1        0.0%
COMMON               E      E       E       2      100.0%
BITSFR1              0      0       0       2        0.0%
SFR1                 0      0       0       2        0.0%
BITSFR2              0      0       0       3        0.0%
SFR2                 0      0       0       3        0.0%
STACK                0      0       0       3        0.0%
BITBANK0            50      0       0       4        0.0%
BITSFR3              0      0       0       4        0.0%
SFR3                 0      0       0       4        0.0%
BANK0               50     44      4F       5       98.8%
BITSFR4              0      0       0       5        0.0%
SFR4                 0      0       0       5        0.0%
BITBANK1            50      0       0       6        0.0%
BITSFR5              0      0       0       6        0.0%
SFR5                 0      0       0       6        0.0%
BANK1               50      0      48       7       90.0%
BITSFR6              0      0       0       7        0.0%
SFR6                 0      0       0       7        0.0%
BITBANK2            50      0       0       8        0.0%
BITSFR7              0      0       0       8        0.0%
SFR7                 0      0       0       8        0.0%
BANK2               50      0       0       9        0.0%
BITSFR8              0      0       0       9        0.0%
SFR8                 0      0       0       9        0.0%
BITBANK3            50      0       0      10        0.0%
BITSFR9              0      0       0      10        0.0%
SFR9                 0      0       0      10        0.0%
BANK3               50      0       0      11        0.0%
BITSFR10             0      0       0      11        0.0%
SFR10                0      0       0      11        0.0%
BITBANK4            50      0       0      12        0.0%
BITSFR11             0      0       0      12        0.0%
SFR11                0      0       0      12        0.0%
BANK4               50      0       0      13        0.0%
BITSFR12             0      0       0      13        0.0%
SFR12                0      0       0      13        0.0%
BITBANK5            50      0       0      14        0.0%
BITSFR13             0      0       0      14        0.0%
SFR13                0      0       0      14        0.0%
BANK5               50      0       0      15        0.0%
BITSFR14             0      0       0      15        0.0%
SFR14                0      0       0      15        0.0%
BITBANK6            50      0       0      16        0.0%
BITSFR15             0      0       0      16        0.0%
SFR15                0      0       0      16        0.0%
BANK6               50      0       0      17        0.0%
BITSFR16             0      0       0      17        0.0%
SFR16                0      0       0      17        0.0%
BITBANK7            50      0       0      18        0.0%
BITSFR17             0      0       0      18        0.0%
SFR17                0      0       0      18        0.0%
BANK7               50      0       0      19        0.0%
BITSFR18             0      0       0      19        0.0%
SFR18                0      0       0      19        0.0%
BITSFR19             0      0       0      20        0.0%
SFR19                0      0       0      20        0.0%
ABS                  0      0      A5      20        0.0%
BITBANK8            50      0       0      21        0.0%
BITSFR20             0      0       0      21        0.0%
SFR20                0      0       0      21        0.0%
BANK8               50      0       0      22        0.0%
BITSFR21             0      0       0      22        0.0%
SFR21                0      0       0      22        0.0%
BITBANK9            50      0       0      23        0.0%
BITSFR22             0      0       0      23        0.0%
SFR22                0      0       0      23        0.0%
BANK9               50      0       0      24        0.0%
BITSFR23             0      0       0      24        0.0%
SFR23                0      0       0      24        0.0%
BITBANK10           50      0       0      25        0.0%
BITSFR24             0      0       0      25        0.0%
SFR24                0      0       0      25        0.0%
BANK10              50      0       0      26        0.0%
BITSFR25             0      0       0      26        0.0%
SFR25                0      0       0      26        0.0%
BITBANK11           50      0       0      27        0.0%
BITSFR26             0      0       0      27        0.0%
SFR26                0      0       0      27        0.0%
BANK11              50      0       0      28        0.0%
BITSFR27             0      0       0      28        0.0%
SFR27                0      0       0      28        0.0%
BITBANK12           30      0       0      29        0.0%
BITSFR28             0      0       0      29        0.0%
SFR28                0      0       0      29        0.0%
BANK12              30      0       0      30        0.0%
BITSFR29             0      0       0      30        0.0%
SFR29                0      0       0      30        0.0%
BITSFR30             0      0       0      31        0.0%
SFR30                0      0       0      31        0.0%
DATA                 0      0      A5      31        0.0%
BITSFR31             0      0       0      32        0.0%
SFR31                0      0       0      32        0.0%


Microchip Technology PIC Macro Assembler V2.31 build 20201012212115 
Symbol Table                                                                                   Mon Mar 01 22:16:26 2021

                               _LCD_Initialize 0262                                             l31 006F  
                                           l25 013B                                    ?_LCDPutChar 0070  
                                           l28 00A6                          _initialize_lcd_screen 016A  
                                          l112 03AC                                            l203 007B  
                                          l206 0081                                            l222 00D9  
                                          l400 008D                                            l209 0075  
                                          l403 00AD                                            l252 00EE  
                                          l420 00FF                                            l158 02A5  
                                          l342 0205                                            l182 00DB  
                                          l406 0093                                            l191 0087  
                                          l255 0151                                            l433 0283  
                                          l353 01E9                                            l185 00E3  
                                          l345 00CF                                            l601 058F  
                                          l409 047D                                            l417 04FF  
                                          l442 0241                                            l274 00BD  
                                          l436 0261                                            l348 019B  
                                          l292 0169                                            l356 00C6  
                                          l540 0326                                            l373 0182  
                                          l382 0413                                            l439 0222  
                                          l359 01B4                                            l448 02CB  
                                          l392 0122                                            l289 0161  
                                          l386 0118                                            l395 0124  
                                          l397 0125                                            l389 011B  
                                          l591 0513                                            l989 0111  
                                          _PR4 0416                                            u700 0648  
                                          u710 0656                                            u711 0655  
                                          u640 00E0                                            u720 066E  
                                          u800 0122                                            u641 00DF  
                                          u721 066D                                            u801 0121  
                                          u650 032C                                            u730 067C  
                                          u651 032B                                            u731 067B  
                                          u660 0331                                            u740 068F  
                                          u900 0548                                            u820 0300  
                                          u661 0330                                            u741 068E  
                                          u901 0547                                            u821 02FF  
                                          u670 0340                                            u750 06AF  
                                          u815 0246                                            u671 033F  
                                          u751 06AE                                            u735 0678  
                                          u680 035D                                            u760 06DD  
                                          u920 0561                                            u681 035C  
                                          u761 06DC                                            u921 0560  
                                          u690 01C7                                            u770 06E2  
                                          u850 031E                                            u691 01C6  
                                          u771 06E1                                            u755 06AB  
                                          u915 0549                                            u851 031D  
                                          u835 0309                                            u780 0702  
                                          u940 0577                                            u860 0506  
                                          u685 0359                                            u781 0701  
                                          u765 06D9                                            u941 0576  
                                          u925 055D                                            u861 0505  
                                          u845 0310                                            u950 057C  
                                          u870 0517                                            u790 0118  
                                          u951 057B                                            u935 056B  
                                          u871 0516                                            u791 0117  
                                          u960 05A3                                            u880 0536  
                                          u785 06FE                                            u961 05A2  
                                          u881 0535                                            u970 05C4  
                                          u971 05C3                                            u980 05F6  
                                          u981 05F5                                            u895 053A  
                                          u995 014B                                            _map 03AD  
               ?_EUSART_SetFramingErrorHandler 0070                                            wreg 0009  
                                         l2000 02EF                                           l1042 0707  
                                         l2020 0266                                           l2004 0126  
                                         l1028 0682                                           l2100 04E0  
                                         l1037 06DD                                           l2030 027B  
                                         l2022 0268                                           l1054 02F3  
                                         l2102 04EE                                           l2110 0708  
                                         l1047 063B                                           l2032 027F  
                                         l2024 026F                                           l2040 00F0  
                                         l1080 01CD                                           l2104 04FC  
                                         l2120 0723                                           l2112 070E  
                                         l2050 02A8                                           l2026 0273  
                                         l2018 0262                                           l2034 0184  
                                         l1066 0365                                           l2042 0100  
                                         l2130 0745                                           l2122 0727  
                                         l2114 0719                                           l2052 02B7  
                                         l2028 0277                                           l2036 019D  
                                         l2060 0204                                           l2044 0105  
                                         l2140 0775                                           l2132 074E  
                                         l2124 072B                                           l2116 071D  
                                         l2054 02BB                                           l2038 016B  
                                         l2070 01D6                                           l2150 07A3  
                                         l2142 077A                                           l2134 0753  
                                         l2126 072F                                           l2118 071F  
                                         l2048 02A6                                           l2072 01E8  
                                         l2056 01EA                                           l2064 00C7  
                                         l2080 0414                                           l2152 07AA  
                                         l2144 077E                                           l2136 0761  
                                         l2128 073D                                           l2058 01F2  
                                         l2082 046D                                           l2090 04AF  
                                         l2154 07B8                                           l2146 0790  
                                         l2138 0769                                           l2068 01CE  
                                         l1700 066A                                           l2076 00BE  
                                         l2084 0476                                           l2092 04BC  
                                         l2156 07C6                                           l2148 0795  
                                         l1710 0690                                           l1702 066E  
                                         l2094 04C0                                           l2086 047E  
                                         l2158 07D0                                           l1720 06C6  
                                         l1712 069C                                           l1704 067D  
                                         l1800 0561                                           l2096 04CE  
                                         l2088 04AB                                           l1730 06EF  
                                         l1722 06CB                                           l1714 06A1  
                                         l1706 068B                                           l1810 057C  
                                         l1802 0569                                           l2098 04DC  
                                         l1740 007C                                           l1900 03A7  
                                         l1660 00E0                                           l1732 06F4  
                                         l1724 06CF                                           l1716 06AF  
                                         l1820 05AB                                           l1812 0587  
                                         l1804 056A                                           l1750 024D  
                                         l1742 0070                                           l1902 03AA  
                                         l1910 006C                                           l1662 0083  
                                         l1670 0336                                           l1734 0702  
                                         l1718 06B3                                           l1830 05D8  
                                         l1822 05AF                                           l1806 0571  
                                         l1760 0260                                           l1752 0252  
                                         l1920 00BB                                           l1912 00B5  
                                         l1904 00A0                                           l1672 0340  
                                         l1664 0327                                           l1680 01BA  
                                         l1728 06E3                                           l1840 0609  
                                         l1824 05B3                                           l1816 0592  
                                         l1808 0577                                           l1744 0113  
                                         l1754 0259                                           l1914 00B8  
                                         l1738 0076                                           l1906 00A3  
                                         l1930 00E4                                           l1922 00D0  
                                         l1658 00DB                                           l1674 035D  
                                         l1666 032C                                           l1682 01BE  
                                         l1690 064C                                           l1826 05C4  
                                         l1834 05E5                                           l1818 05A3  
                                         l1850 0619                                           l1770 030F  
                                         l1762 02F4                                           l1746 011D  
                                         l1756 025E                                           l1748 0243  
                                         l1916 00B9                                           l1940 028D  
                                         l1908 00A4                                           l1860 036C  
                                         l1932 00E7                                           l1924 00D3  
                                         l1668 0331                                           l1684 01C7  
                                         l1692 0650                                           l1852 0632  
                                         l1836 05F6                                           l1844 060E  
                                         l1828 05CC                                           l1780 0506  
                                         l1772 031E                                           l1764 02FC  
                                         l1758 025F                                           l1918 00BA  
                                         l1942 028E                                           l1870 037A  
                                         l1862 036F                                           l1934 00E8  
                                         l1926 00D4                                           l1678 01B5  
                                         l1694 0656                                           l1846 0616  
                                         l1838 05FE                                           l1950 013C  
                                         l1790 0536                                           l1782 0517  
                                         l1766 0300                                           l1944 0295  
                                         l1880 0391                                           l1872 037C  
                                         l1864 0371                                           l1936 00E9  
                                         l1928 00D6                                           l1960 0165  
                                         l1952 0153                                           l1696 065A  
                                         l1688 063E                                           l1792 0539  
                                         l1784 0522                                           l1776 0500  
                                         l1768 0308                                           l1946 029C  
                                         l1938 0284                                           l1890 039C  
                                         l1882 0393                                           l1874 037E  
                                         l1866 0373                                           l1858 0366  
                                         l1954 015D                                           l1698 0666  
                                         l1794 0544                                           l1786 0526  
                                         l1778 0502                                           l1970 00A7  
                                         l1980 0238                                           l1948 02A3  
                                         l1892 039E                                           l1884 0395  
                                         l1876 0386                                           l1868 0378  
                                         l1956 015E                                           l1796 0548  
                                         l1788 052E                                           l1964 03AD  
                                         l1972 008E                                           l1990 021C  
                                         l1982 023C                                           l1974 0224  
                                         l1894 03A0                                           l1886 0397  
                                         l1878 038E                                           l1958 015F  
                                         l1798 054F                                           ?_map 002E  
                                         l1984 0207                                           l1976 0228  
                                         l1896 03A2                                           l1888 0399  
                                         l1992 02CE                                           l1968 0088  
                                         l1986 020B                                           l1978 022D  
                                         l1898 03A4                                           l1994 02D2  
                                         l1988 0211                                           l1996 02D5  
                                         l1998 02E6                                           STR_1 0800  
                                         STR_2 0822                                           STR_3 086B  
                                         STR_4 0871                                           STR_5 0865  
                                         STR_6 083E                                           STR_7 084A  
                                         STR_8 0853                                           STR_9 085C  
                                         u1000 0165                                           u1001 0164  
                                         u1100 01E5                                           u1030 02EF  
                                         u1110 04AF                                           u1015 0230  
                                         u1031 02EE                                           u1111 04AE  
                                         u1120 04BC                                           u1200 07A3  
                                         u1025 0214                                           u1121 04BB  
                                         u1201 07A2                                           u1130 04CE  
                                         u1131 04CD                                           u1060 02CB  
                                         u1140 04DC                                           u1061 02CA  
                                         u1141 04DB                                           u1125 04B8  
                                         u1205 079F                                           u1070 0200  
                                         u1150 04EE                                           u1071 01FE  
                                         u1151 04ED                                           u1135 04CA  
                                         u1080 0201                                           u1160 04FC  
                                         u1161 04FB                                           u1145 04D8  
                                         u1090 01E4                                           u1170 0716  
                                         u1091 01E2                                           u1075 01FB  
                                         u1155 04EA                                           u1180 073D  
                                         u1165 04F8                                           u1181 073C  
                                         _LATA 010C                                           u1190 0761  
                                         _LATB 010D                                           u1247 026B  
                                         u1095 01DF                                           u1191 0760  
                                         _LATC 010E                                           _LATD 010F  
                                         u1257 0225                                           _LATE 0110  
                                         u1267 0239                                           u1277 0208  
                                         _TMR4 0415                                           _WPUA 020C  
                                         _WPUB 020D                                           _WPUC 020E  
                                         _WPUD 020F                                           _WPUE 0210  
                      ??_read@temp_sensor$F636 0076                               ??_initialize_led 0070  
                                         _dbuf 00A0                                           _main 0708  
                                         _read 00C7                                           _open 01EA  
                                         _prec 0068                                           _nout 0064  
                                         fsr0h 0005                                           fsr1h 0007  
                                         indf0 0000                                           fsr0l 0004  
                                         indf1 0001                                           fsr1l 0006  
                                         map@x 002E                                           _stoa 063C  
                                         btemp 007E                             __size_of_LCDPutCmd 001F  
                                         start 0002                             __size_of_LCDPutStr 0026  
                       __end_of_LCD_Initialize 0284                              initialize_led@led 0070  
                                        ??_map 0040                                    LCDPutCmd@ch 0076  
                                ?_EUSART_Write 0070                 __size_of_OSCILLATOR_Initialize 0007  
                __end_of_OSCILLATOR_Initialize 00A7                                __end_of___aldiv 0590  
                                        ?_main 0070                                          ?_read 0074  
                                        ?_open 0070                                          ?_stoa 007A  
                                        _T4CON 0417                                   vfpfcnvrt@fmt 007C  
                                        _PORTD 000F                                          _TRISA 008C  
                                        _TRISB 008D                                          _TRISC 008E  
                                        _TRISD 008F                                          _TRISE 0090  
                                        _RXPPS 0E24                                _TMR4_Initialize 00D0  
                          ___lmul@multiplicand 0074                              ??_initialize_temp 0070  
                                        _demo1 0000                                          _demo2 0000  
                                        _demo3 0000                                          _flags 006A  
                               _WDT_Initialize 006C                                          _fputc 0327  
                                        _width 0066                                          _putch 0082  
                                        main@i 005F                        __end_of_PWM3_Initialize 00EF  
                                        pclath 000A                            __size_of_LCDPutChar 001D  
                                        stoa@i 002A                                          stoa@l 0033  
                                        stoa@p 0031                                          stoa@s 007A  
                                        stoa@w 002C                                          status 0003  
                                        wtemp0 007E                             main@sensor_counter 0062  
                       ?_open@temp_sensor$F633 0070                                ?_LCD_Initialize 0070  
                              __initialization 07E1                                   __end_of_main 07E1  
                                 __end_of_read 00D0                                   __end_of_open 0206  
                                 __end_of_stoa 0708                         ?_initialize_lcd_screen 0070  
                               ??_EUSART_Write 0070                      initialize_temp@sensor_var 0070  
                                       ??_main 0054                                         ??_read 0076  
                                       ??_open 0074                                         ??_stoa 0020  
                            __end_of_LCDPutCmd 0242                                   LCDPutChar@ch 0076  
                            __end_of_LCDPutStr 02CC                         __end_of_WDT_Initialize 0070  
            _EUSART_DefaultFramingErrorHandler 0000                                         _ADCON0 009D  
                                       _ADCON1 009E                                         _ADCON2 009F  
                   _EUSART_OverrunErrorHandler 00E4                                         ?_fputc 0072  
                                       _ADRESH 009C                                         _ADRESL 009B  
                                       _ANSELA 018C                                         ?_putch 0070  
                                       _ANSELB 018D                                         _ANSELC 018E  
                                       _ANSELD 018F                                         _ANSELE 0190  
                                       _BORCON 0116                                         _RC1REG 0199  
                                       _RB0PPS 0E98                                         _RC1STA 019D  
                                       _ODCONA 028C                                         _ODCONB 028D  
                                       _RC6PPS 0EA6                                         _ODCONC 028E  
                                       _ODCOND 028F                                         _ODCONE 0290  
                                       _INLVLA 038C                                         _INLVLB 038D  
                                       _INLVLC 038E                                         _INLVLD 038F  
                                       _INLVLE 0390                                         _OSCCON 0099  
                                       _TX1REG 019A                                         _WDTCON 0097  
                                       _TX1STA 019E                                   LCDPutStr@str 0077  
                             ??_turn_selectors 0071                                 _LCDWriteNibble 0242  
                            ?_initialize_light 0070                             ??_initialize_light 0070  
                                 vfprintf@cfmt 0043                                         ___lmul 02F4  
                  __size_of_PWM3_LoadDutyValue 0016                                      ??___aldiv 007C  
                      __end_of_TMR4_Initialize 00DA                                         _printf 0100  
                                       _strlen 01B5                                         fputc@c 0072  
                              ?_WDT_Initialize 0070                       ADC_GetConversion@channel 0073  
                                       stoa@cp 002E                                         stoa@fp 0030  
                      __size_of_set_brightness 006A                               __end_of_vfprintf 02F4  
          initialize_lcd_screen@lcd_screen_var 0070                               ?_PWM3_Initialize 0070  
                             __end_of_turn_red 0094                              _SYSTEM_Initialize 0126  
                       __end_of_LCDWriteNibble 0262                        __end_of__initialization 07FD  
                           ?_SYSTEM_Initialize 0070                     initialize_light@sensor_var 0070  
                               __pcstackCOMMON 0070                                   __pidataBANK1 00AE  
                          ??_SYSTEM_Initialize 0072                                  __end_of_fputc 0366  
                                 ??_LCDPutChar 0074                                  __end_of_putch 0088  
            open@temp_sensor$F633@is_connected 0078                                 _OPTION_REGbits 0095  
              ??_EUSART_SetOverrunErrorHandler 0072                                        ??_fputc 0075  
                    __end_of_SYSTEM_Initialize 013C                                        ??_putch 0071  
                                   __pbssBANK0 0064                                     __pbssBANK1 00A0  
                         __end_of_EUSART_Write 00E4                                ?_LCDWriteNibble 0070  
                           __end_of_LCDPutChar 0223                 __size_of_read@temp_sensor$F636 0009  
                __end_of_read@temp_sensor$F636 00C7                                     __pmaintext 0708  
                                      ?___lmul 0070                                _initialize_temp 019C  
                               ___lmul@product 0078                               ?_TMR4_Initialize 0070  
                           __size_of_set_color 0082                                        ?_printf 0045  
                      __size_of_ADC_Initialize 0009                                        ?_strlen 0070  
                                      _SP1BRGH 019C                                        _SP1BRGL 019B  
                           __size_of_vfpfcnvrt 00AC                                        _OSCTUNE 0098  
                                      _PWM3DCH 0618                                        _PWM3DCL 0617  
                                      _PWM3CON 0619                                        _SLRCONA 030C  
                                      _SLRCONB 030D                                        _SLRCONC 030E  
                                      _SLRCOND 030F                                        _SLRCONE 0310  
                     ??_EUSART_SetErrorHandler 0072                        ??_open@temp_sensor$F633 0074  
                             ??_LCD_Initialize 0077                             __size_of_turn_blue 0006  
                         _ADC_InterruptHandler 00C3                        ??_initialize_lcd_screen 0070  
                                      ___aldiv 0500                                __size_of___lmul 0033  
                                    ?_vfprintf 003D                                 set_color@color 0052  
                                      __ptext1 047E                                        __ptext2 008E  
                                      __ptext3 00A7                                        __ptext4 0088  
                                      __ptext5 0112                                        __ptext6 0414  
                                      __ptext7 03AD                                        __ptext8 02F4  
                                      __ptext9 0500                                __size_of_printf 0012  
                                    ?_turn_red 0070                                        _led_var 00D7  
                              __size_of_strlen 0019                          _OSCILLATOR_Initialize 00A0  
                                 __size_of_map 0067                                     _duty_cycle 006C  
                             ___aldiv@dividend 0024                                      _T4CONbits 0417  
                     ??_PIN_MANAGER_Initialize 0070                                 _set_brightness 0414  
                                    _LCDPutCmd 0223                     __size_of_SYSTEM_Initialize 0016  
                                      clrloop0 0095                                      _LCDPutStr 02A6  
                               main@temp_value 005D                           end_of_initialization 07FD  
                      turn_selectors@selector1 0071                        turn_selectors@selector2 0070  
        __end_of_EUSART_SetOverrunErrorHandler 0082         __size_of_EUSART_SetOverrunErrorHandler 0006  
                _EUSART_SetOverrunErrorHandler 007C                                        fputc@fp 0074  
                                      init_ram 009A                              __end_of_set_color 0500  
                                      initloop 009B                              _EUSART_Initialize 0284  
                      __end_of_initialize_temp 01B5                             ?_EUSART_Initialize 0070  
                            __end_of_vfpfcnvrt 063C                               ___aldiv@quotient 002A  
                      __size_of_initialize_led 0011                                     ??_vfprintf 0040  
                                      strlen@a 0073                                        strlen@s 0070  
                          ??_EUSART_Initialize 0072                               ??_WDT_Initialize 0070  
                                    _PORTDbits 000F                                     ??_turn_red 0072  
                    __size_of_initialize_light 0019                         __end_of_set_brightness 047E  
                            __end_of_turn_blue 008E                          __size_of_EUSART_Write 000A  
                                   ?_LCDPutCmd 0070                                     ?_LCDPutStr 0077  
              __size_of_EUSART_SetErrorHandler 0006                                     map@out_max 003C  
                                   map@out_min 0038                      __end_of_EUSART_Initialize 02A6  
                   __end_of_PWM3_LoadDutyValue 0152                                 __end_of___lmul 0327  
                   _EUSART_DefaultErrorHandler 0000                                    vfpfcnvrt@ap 007D  
                                  vfpfcnvrt@cp 003A                                    vfpfcnvrt@fp 003C  
                                   LCDPutStr@i 007C                                     _turn_green 00A7  
                                 _EUSART_Write 00DA                                 _ADC_Initialize 00B5  
                       ?_OSCILLATOR_Initialize 0070                                 __end_of_printf 0112  
                         set_color@temperature 0050                                ?_set_brightness 0050  
                               __end_of_strlen 01CE                            start_initialization 07E1  
              __size_of_PIN_MANAGER_Initialize 0047                               ??_LCDWriteNibble 0071  
                                  __end_of_map 0414                                    putch@txData 0071  
               ?_EUSART_SetOverrunErrorHandler 0070                               ?_initialize_temp 0070  
                     __size_of_PWM3_Initialize 000B                                    vfprintf@fmt 003D  
                   _EUSART_FramingErrorHandler 00E6                                       ??___lmul 0078  
                       _EUSART_SetErrorHandler 0070                                    _CCPTMRSbits 029E  
                       __end_of_ADC_Initialize 00BE                                    __pdataBANK1 00DB  
                      __size_of_turn_selectors 0014                                       ??_printf 0049  
                                     ??_strlen 0072             open@temp_sensor$F633@opening_value 0076  
                                    ___latbits 0002                                  __pcstackBANK0 0020  
                                  ??_LCDPutCmd 0074                                    ??_LCDPutStr 0079  
                                 _light_sensor 00D1                     __size_of_EUSART_Initialize 0022  
               __size_of_open@temp_sensor$F633 001C                                      __pnvBANK1 00E2  
                __end_of_open@temp_sensor$F633 01EA                         _PIN_MANAGER_Initialize 0366  
                        _read@temp_sensor$F636 00BE                 __size_of_initialize_lcd_screen 0019  
                __end_of_initialize_lcd_screen 0183                                       ?___aldiv 0020  
                               _initialize_led 00EF                                ?_ADC_Initialize 0070  
                             LCDWriteNibble@ch 0073                               LCDWriteNibble@rs 0070  
                                  ?_turn_green 0070                              __size_of_vfprintf 0028  
                             _initialize_light 0183                                       _BAUD1CON 019F  
                             open@is_connected 0078                              __size_of_turn_red 0006  
                     __size_of_TMR4_Initialize 000A                                 __size_of_fputc 003F  
                               __size_of_putch 0006                                ___aldiv@divisor 0020  
                              ___aldiv@counter 0028         EUSART_SetErrorHandler@interruptHandler 0070  
                                     _LATBbits 010D                                      clear_ram0 0094  
                            _eusartRxLastError 006E                         __end_of_initialize_led 0100  
                                     _PIR1bits 0011                ??_EUSART_SetFramingErrorHandler 0072  
                                     _PIR2bits 0012                                      _set_color 047E  
                                    main@F6180 00C0              _EUSART_DefaultOverrunErrorHandler 0000  
                                    _vfpfcnvrt 0590                                      map@in_max 0034  
                                    map@in_min 0030                              ??_PWM3_Initialize 0070  
                                   _ADCON0bits 009D                                main@light_value 005B  
                     set_brightness@brightness 0050                                      _turn_blue 0088  
                            ___lmul@multiplier 0070                               main@sensor_names 0055  
                          __size_of_turn_green 0007                         ?_read@temp_sensor$F636 0074  
                              ?_initialize_led 0070                                     ?_set_color 0050  
                                   vfprintf@ap 003F                                     vfprintf@fp 0042  
                            _ADC_GetConversion 0152                        ??_OSCILLATOR_Initialize 0070  
                          _EUSART_ErrorHandler 00E2                        __size_of_LCD_Initialize 0022  
                           ?_ADC_GetConversion 0070                               __size_of___aldiv 0090  
                               _turn_selectors 0112                               ??_set_brightness 007D  
                                   ?_vfpfcnvrt 007C                             _PWM3_LoadDutyValue 013C  
                          ??_ADC_GetConversion 0072                                       __ptext10 013C  
                                     __ptext11 00C7                                       __ptext20 00DA  
                                     __ptext12 00BE                                       __ptext21 01EA  
                                     __ptext13 0100                                       __ptext30 00D0  
                                     __ptext22 01CE                                       __ptext14 02CC  
                                     __ptext31 00E4                                       __ptext23 0152  
                                     __ptext15 0590                                       __ptext40 0223  
                                     __ptext32 0366                                       __ptext24 019C  
                                     __ptext16 063C                                       __ptext41 02A6  
                                     __ptext33 00A0                                       __ptext25 0183  
                                     __ptext17 01B5                                       __ptext42 0206  
                                     __ptext34 0284                                       __ptext26 00EF  
                                     __ptext18 0327                                       __ptext43 0242  
                                     __ptext35 007C                                       __ptext27 016A  
                                     __ptext19 0082                                       __ptext36 0076  
                                     __ptext28 0126                                       __ptext37 0070  
                                     __ptext29 006C                                       __ptext38 00B5  
                                     __ptext39 0262                            ?_PWM3_LoadDutyValue 0070  
                                   ?_turn_blue 0070                              ??_TMR4_Initialize 0070  
                                __size_of_main 00D9                                  __size_of_read 0009  
                                __size_of_open 001C                                  __size_of_stoa 00CC  
                            open@opening_value 0076                      __end_of_ADC_GetConversion 016A  
                      ?_EUSART_SetErrorHandler 0070                                     _RC1STAbits 019D  
                                    stoa@F1133 00DB  EUSART_SetOverrunErrorHandler@interruptHandler 0070  
                       __end_of_turn_selectors 0126                           ??_PWM3_LoadDutyValue 0072  
                                     _vfprintf 02CC                                     _LCDPutChar 0206  
                                    printf@fmt 0045          __end_of_EUSART_SetFramingErrorHandler 007C  
       __size_of_EUSART_SetFramingErrorHandler 0006                  _EUSART_SetFramingErrorHandler 0076  
                                     _turn_red 008E                                 __pstringtext10 0000  
                               _lcd_screen_var 00C5                        __size_of_WDT_Initialize 0004  
                      ?_PIN_MANAGER_Initialize 0070                 __end_of_EUSART_SetErrorHandler 0076  
                     __end_of_initialize_light 019C                               ??_ADC_Initialize 0070  
                                  ??_set_color 007D                                ?_turn_selectors 0070  
                                     printf@ap 004C  EUSART_SetFramingErrorHandler@interruptHandler 0070  
                  PWM3_LoadDutyValue@dutyValue 0070                                    ??_vfpfcnvrt 0035  
                                     stoa@nuls 0023                                   ??_turn_green 0072  
                            main@names_pointer 0061                                    _temp_sensor 00CB  
                     __size_of_initialize_temp 0019                                  __pstringtext1 0800  
                                __pstringtext2 0822                                  __pstringtext3 083E  
                                __pstringtext4 084A                                  __pstringtext5 0853  
                                __pstringtext6 085C                                  __pstringtext7 0865  
                                __pstringtext8 086B                                  __pstringtext9 0871  
                                 ___aldiv@sign 0029                                     _TX1STAbits 019E  
                                  ??_turn_blue 0072                             EUSART_Write@txData 0070  
               __end_of_PIN_MANAGER_Initialize 03AD                             __end_of_turn_green 00AE  
                      __size_of_LCDWriteNibble 0020                     __size_of_ADC_GetConversion 0018  
                              _PWM3_Initialize 00E4                     set_brightness@mapped_value 0052  
                        _open@temp_sensor$F633 01CE  
